 streaming_protocol

 Timestamp is 5b562a12 (Mon Jul 23 15:18:42 2018)

 Preferred load address is 0000000140000000

 Start         Length     Name                   Class
 0001:00000000 00000fe0H .text$di                CODE
 0001:00000fe0 000289c0H .text$mn                CODE
 0001:000299a0 00000020H .text$mn$00             CODE
 0001:000299c0 00002660H .text$x                 CODE
 0001:0002c020 00000255H .text$yd                CODE
 0002:00000000 000005e8H .idata$5                DATA
 0002:000005e8 00000010H .00cfg                  DATA
 0002:000005f8 00000008H .CRT$XCA                DATA
 0002:00000600 00000008H .CRT$XCAA               DATA
 0002:00000608 00000008H .CRT$XCL                DATA
 0002:00000610 00000318H .CRT$XCU                DATA
 0002:00000928 00000008H .CRT$XCZ                DATA
 0002:00000930 00000008H .CRT$XIA                DATA
 0002:00000938 00000008H .CRT$XIAA               DATA
 0002:00000940 00000008H .CRT$XIAC               DATA
 0002:00000948 00000008H .CRT$XIZ                DATA
 0002:00000950 00000008H .CRT$XPA                DATA
 0002:00000958 00000008H .CRT$XPZ                DATA
 0002:00000960 00000008H .CRT$XTA                DATA
 0002:00000968 00000008H .CRT$XTZ                DATA
 0002:00000970 00000000H .gfids$y                DATA
 0002:00000970 00005800H .rdata                  DATA
 0002:00006170 00000db4H .rdata$r                DATA
 0002:00006f24 000003a4H .rdata$zzzdbg           DATA
 0002:000072c8 00000008H .rtc$IAA                DATA
 0002:000072d0 00000008H .rtc$IZZ                DATA
 0002:000072d8 00000008H .rtc$TAA                DATA
 0002:000072e0 00000010H .rtc$TZZ                DATA
 0002:000072f0 00006988H .xdata                  DATA
 0002:0000dc78 000001acH .xdata$x                DATA
 0002:0000de24 00000000H .edata                  DATA
 0002:0000de24 00000078H .idata$2                DATA
 0002:0000de9c 00000014H .idata$3                DATA
 0002:0000deb0 000005e8H .idata$4                DATA
 0002:0000e498 0000184aH .idata$6                DATA
 0003:00000000 00000050H .data                   DATA
 0003:00000050 00000590H .data$r                 DATA
 0003:000005e0 00000968H .bss                    DATA
 0004:00000000 00004c14H .pdata                  DATA
 0005:00000000 00000060H .rsrc$01                DATA
 0005:00000060 00000180H .rsrc$02                DATA

  Address         Publics by Value              Rva+Base               Lib:Object

 0000:00000000       __guard_fids_count         0000000000000000     <absolute>
 0000:00000000       __guard_iat_table          0000000000000000     <absolute>
 0000:00000000       __hybrid_code_map          0000000000000000     <absolute>
 0000:00000000       __guard_longjmp_count      0000000000000000     <absolute>
 0000:00000000       __dynamic_value_reloc_table 0000000000000000     <absolute>
 0000:00000000       __guard_longjmp_table      0000000000000000     <absolute>
 0000:00000000       __guard_fids_table         0000000000000000     <absolute>
 0000:00000000       ___safe_se_handler_count   0000000000000000     <absolute>
 0000:00000000       ___safe_se_handler_table   0000000000000000     <absolute>
 0000:00000000       __enclave_config           0000000000000000     <absolute>
 0000:00000000       __hybrid_code_map_count    0000000000000000     <absolute>
 0000:00000000       __guard_iat_count          0000000000000000     <absolute>
 0000:00000000       __hybrid_auxiliary_iat     0000000000000000     <absolute>
 0000:00000100       __guard_flags              0000000000000100     <absolute>
 0000:00000000       __ImageBase                0000000140000000     <linker-defined>
 0001:00000fe0       ??0AngularSegmentKinematicsDatagram@@QEAA@XZ 0000000140001fe0 f   angularsegmentkinematicsdatagram.obj
 0001:00001040       ??1AngularSegmentKinematicsDatagram@@UEAA@XZ 0000000140002040 f   angularsegmentkinematicsdatagram.obj
 0001:00001080       ?printData@AngularSegmentKinematicsDatagram@@UEBAXXZ 0000000140002080 f   angularsegmentkinematicsdatagram.obj
 0001:000010b0       ?streamData@AngularSegmentKinematicsDatagram@@UEBAXXZ 00000001400020b0 f   angularsegmentkinematicsdatagram.obj
 0001:00001150       ?align_data@AngularSegmentKinematicsDatagram@@SA?AV?$vector@MV?$allocator@M@std@@@std@@V?$vector@UKinematics@AngularSegmentKinematicsDatagram@@V?$allocator@UKinematics@AngularSegmentKinematicsDatagram@@@std@@@3@@Z 0000000140002150 f   angularsegmentkinematicsdatagram.obj
 0001:00001370       ?push_sample@AngularSegmentKinematicsDatagram@@SAXV?$vector@MV?$allocator@M@std@@@std@@@Z 0000000140002370 f   angularsegmentkinematicsdatagram.obj
 0001:000013b0       ?deserializeData@AngularSegmentKinematicsDatagram@@MEAAXAEAVStreamer@@@Z 00000001400023b0 f   angularsegmentkinematicsdatagram.obj
 0001:000015a0       ??$?0$$V@?$_Compressed_pair@V?$allocator@D@std@@V?$_String_val@U?$_Simple_types@D@std@@@2@$00@std@@QEAA@U_Zero_then_variadic_args_t@1@@Z 00000001400025a0 f i angularsegmentkinematicsdatagram.obj
 0001:000015d0       ??$?0$$V@?$_Compressed_pair@V?$allocator@M@std@@V?$_Vector_val@U?$_Simple_types@M@std@@@2@$00@std@@QEAA@U_Zero_then_variadic_args_t@1@@Z 00000001400025d0 f i angularsegmentkinematicsdatagram.obj
 0001:00001600       ??$?0$$V@?$_Compressed_pair@V?$allocator@UKinematics@AngularSegmentKinematicsDatagram@@@std@@V?$_Vector_val@U?$_Simple_types@UKinematics@AngularSegmentKinematicsDatagram@@@std@@@2@$00@std@@QEAA@U_Zero_then_variadic_args_t@1@@Z 0000000140002600 f i angularsegmentkinematicsdatagram.obj
 0001:00001630       ??$?0D@?$allocator@U_Container_proxy@std@@@std@@QEAA@AEBV?$allocator@D@1@@Z 0000000140002630 f i angularsegmentkinematicsdatagram.obj
 0001:00001640       ??$?0M@?$allocator@U_Container_proxy@std@@@std@@QEAA@AEBV?$allocator@M@1@@Z 0000000140002640 f i angularsegmentkinematicsdatagram.obj
 0001:00001650       ??$?0UKinematics@AngularSegmentKinematicsDatagram@@@?$allocator@U_Container_proxy@std@@@std@@QEAA@AEBV?$allocator@UKinematics@AngularSegmentKinematicsDatagram@@@1@@Z 0000000140002650 f i angularsegmentkinematicsdatagram.obj
 0001:00001660       ??$?0V?$allocator@M@std@@$$V@?$_Compressed_pair@V?$allocator@M@std@@V?$_Vector_val@U?$_Simple_types@M@std@@@2@$00@std@@QEAA@U_One_then_variadic_args_t@1@$$QEAV?$allocator@M@1@@Z 0000000140002660 f i angularsegmentkinematicsdatagram.obj
 0001:000016a0       ??$?0V?$allocator@M@std@@X@?$_Vector_alloc@U?$_Vec_base_types@MV?$allocator@M@std@@@std@@@std@@QEAA@$$QEAV?$allocator@M@1@@Z 00000001400026a0 f i angularsegmentkinematicsdatagram.obj
 0001:000016e0       ??$?0V?$allocator@UKinematics@AngularSegmentKinematicsDatagram@@@std@@$$V@?$_Compressed_pair@V?$allocator@UKinematics@AngularSegmentKinematicsDatagram@@@std@@V?$_Vector_val@U?$_Simple_types@UKinematics@AngularSegmentKinematicsDatagram@@@std@@@2@$00@std@@QEAA@U_One_then_variadic_args_t@1@$$QEAV?$allocator@UKinematics@AngularSegmentKinematicsDatagram@@@1@@Z 00000001400026e0 f i angularsegmentkinematicsdatagram.obj
 0001:00001720       ??$?0V?$allocator@UKinematics@AngularSegmentKinematicsDatagram@@@std@@X@?$_Vector_alloc@U?$_Vec_base_types@UKinematics@AngularSegmentKinematicsDatagram@@V?$allocator@UKinematics@AngularSegmentKinematicsDatagram@@@std@@@std@@@std@@QEAA@$$QEAV?$allocator@UKinematics@AngularSegmentKinematicsDatagram@@@1@@Z 0000000140002720 f i angularsegmentkinematicsdatagram.obj
 0001:00001760       ??$_Allocate@$0BA@U_Default_allocate_traits@std@@$0A@@std@@YAPEAX_K@Z 0000000140002760 f i angularsegmentkinematicsdatagram.obj
 0001:000017a0       ??$_Allocate_manually_vector_aligned@U_Default_allocate_traits@std@@@std@@YAPEAX_K@Z 00000001400027a0 f i angularsegmentkinematicsdatagram.obj
 0001:000018b0       ??$_Convert_size@_K@std@@YA_K_K@Z 00000001400028b0 f i angularsegmentkinematicsdatagram.obj
 0001:000018c0       ??$_Copy_memmove@PEAMPEAM@std@@YAPEAMPEAM00@Z 00000001400028c0 f i angularsegmentkinematicsdatagram.obj
 0001:00001930       ??$_Copy_memmove@PEAUKinematics@AngularSegmentKinematicsDatagram@@PEAU12@@std@@YAPEAUKinematics@AngularSegmentKinematicsDatagram@@PEAU12@00@Z 0000000140002930 f i angularsegmentkinematicsdatagram.obj
 0001:000019a0       ??$_Deallocate@$0BA@$0A@@std@@YAXPEAX_K@Z 00000001400029a0 f i angularsegmentkinematicsdatagram.obj
 0001:000019e0       ??$_Deallocate_plain@V?$allocator@U_Container_proxy@std@@@std@@$0A@@std@@YAXAEAV?$allocator@U_Container_proxy@std@@@0@QEAU_Container_proxy@0@@Z 00000001400029e0 f i angularsegmentkinematicsdatagram.obj
 0001:00001a10       ??$_Destroy_range1@V?$allocator@M@std@@@std@@YAXPEAM0AEAV?$allocator@M@0@U?$integral_constant@_N$00@0@@Z 0000000140002a10 f i angularsegmentkinematicsdatagram.obj
 0001:00001a30       ??$_Destroy_range1@V?$allocator@UKinematics@AngularSegmentKinematicsDatagram@@@std@@@std@@YAXPEAUKinematics@AngularSegmentKinematicsDatagram@@0AEAV?$allocator@UKinematics@AngularSegmentKinematicsDatagram@@@0@U?$integral_constant@_N$00@0@@Z 0000000140002a30 f i angularsegmentkinematicsdatagram.obj
 0001:00001a50       ??$_Destroy_range@V?$allocator@M@std@@@std@@YAXPEAM0AEAV?$allocator@M@0@@Z 0000000140002a50 f i angularsegmentkinematicsdatagram.obj
 0001:00001a90       ??$_Destroy_range@V?$allocator@UKinematics@AngularSegmentKinematicsDatagram@@@std@@@std@@YAXPEAUKinematics@AngularSegmentKinematicsDatagram@@0AEAV?$allocator@UKinematics@AngularSegmentKinematicsDatagram@@@0@@Z 0000000140002a90 f i angularsegmentkinematicsdatagram.obj
 0001:00001ad0       ??$_Emplace_back_with_unused_capacity@AEBM@?$vector@MV?$allocator@M@std@@@std@@AEAAXAEBM@Z 0000000140002ad0 f i angularsegmentkinematicsdatagram.obj
 0001:00001b90       ??$_Emplace_back_with_unused_capacity@AEBUKinematics@AngularSegmentKinematicsDatagram@@@?$vector@UKinematics@AngularSegmentKinematicsDatagram@@V?$allocator@UKinematics@AngularSegmentKinematicsDatagram@@@std@@@std@@AEAAXAEBUKinematics@AngularSegmentKinematicsDatagram@@@Z 0000000140002b90 f i angularsegmentkinematicsdatagram.obj
 0001:00001c50       ??$_Emplace_reallocate@AEBM@?$vector@MV?$allocator@M@std@@@std@@QEAAPEAMQEAMAEBM@Z 0000000140002c50 f i angularsegmentkinematicsdatagram.obj
 0001:00001e90       ??$_Emplace_reallocate@AEBUKinematics@AngularSegmentKinematicsDatagram@@@?$vector@UKinematics@AngularSegmentKinematicsDatagram@@V?$allocator@UKinematics@AngularSegmentKinematicsDatagram@@@std@@@std@@QEAAPEAUKinematics@AngularSegmentKinematicsDatagram@@QEAU23@AEBU23@@Z 0000000140002e90 f i angularsegmentkinematicsdatagram.obj
 0001:000020e0       ??$_Get_size_of_n@$00@std@@YA_K_K@Z 00000001400030e0 f i angularsegmentkinematicsdatagram.obj
 0001:000020f0       ??$_Get_size_of_n@$03@std@@YA_K_K@Z 00000001400030f0 f i angularsegmentkinematicsdatagram.obj
 0001:00002140       ??$_Get_size_of_n@$0BA@@std@@YA_K_K@Z 0000000140003140 f i angularsegmentkinematicsdatagram.obj
 0001:00002190       ??$_Get_size_of_n@$0CM@@std@@YA_K_K@Z 0000000140003190 f i angularsegmentkinematicsdatagram.obj
 0001:000021e0       ??$_Max_value@_K@std@@YAAEB_KAEB_K0@Z 00000001400031e0 f i angularsegmentkinematicsdatagram.obj
 0001:00002230       ??$_Min_value@_K@std@@YAAEB_KAEB_K0@Z 0000000140003230 f i angularsegmentkinematicsdatagram.obj
 0001:00002280       ??$_Ptr_copy_cat@MM@std@@YA?AU_Really_trivial_ptr_iterator_tag@0@AEBQEAM0@Z 0000000140003280 f i angularsegmentkinematicsdatagram.obj
 0001:000022a0       ??$_Ptr_copy_cat@UKinematics@AngularSegmentKinematicsDatagram@@U12@@std@@YA?AU_Really_trivial_ptr_iterator_tag@0@AEBQEAUKinematics@AngularSegmentKinematicsDatagram@@0@Z 00000001400032a0 f i angularsegmentkinematicsdatagram.obj
 0001:000022c0       ??$_Ptr_move_cat@MM@std@@YA?AU_Really_trivial_ptr_iterator_tag@0@AEBQEAM0@Z 00000001400032c0 f i angularsegmentkinematicsdatagram.obj
 0001:000022e0       ??$_Ptr_move_cat@UKinematics@AngularSegmentKinematicsDatagram@@U12@@std@@YA?AU_Really_trivial_ptr_iterator_tag@0@AEBQEAUKinematics@AngularSegmentKinematicsDatagram@@0@Z 00000001400032e0 f i angularsegmentkinematicsdatagram.obj
 0001:00002440       ??$_Rechecked@PEAMPEAM@std@@YAAEAPEAMAEAPEAMQEAM@Z 0000000140003440 f i angularsegmentkinematicsdatagram.obj
 0001:00002460       ??$_Rechecked@PEAUKinematics@AngularSegmentKinematicsDatagram@@PEAU12@@std@@YAAEAPEAUKinematics@AngularSegmentKinematicsDatagram@@AEAPEAU12@QEAU12@@Z 0000000140003460 f i angularsegmentkinematicsdatagram.obj
 0001:00002480       ??$_Ucopy@PEAM@?$vector@MV?$allocator@M@std@@@std@@AEAAPEAMPEAM00@Z 0000000140003480 f i angularsegmentkinematicsdatagram.obj
 0001:000024c0       ??$_Ucopy@PEAUKinematics@AngularSegmentKinematicsDatagram@@@?$vector@UKinematics@AngularSegmentKinematicsDatagram@@V?$allocator@UKinematics@AngularSegmentKinematicsDatagram@@@std@@@std@@AEAAPEAUKinematics@AngularSegmentKinematicsDatagram@@PEAU23@00@Z 00000001400034c0 f i angularsegmentkinematicsdatagram.obj
 0001:00002500       ??$_Unchecked@PEAM@std@@YAPEAMPEAM@Z 0000000140003500 f i angularsegmentkinematicsdatagram.obj
 0001:00002510       ??$_Unchecked@PEAUKinematics@AngularSegmentKinematicsDatagram@@@std@@YAPEAUKinematics@AngularSegmentKinematicsDatagram@@PEAU12@@Z 0000000140003510 f i angularsegmentkinematicsdatagram.obj
 0001:00002520       ??$_Unfancy@D@std@@YAPEADPEAD@Z 0000000140003520 f i angularsegmentkinematicsdatagram.obj
 0001:00002530       ??$_Unfancy@M@std@@YAPEAMPEAM@Z 0000000140003530 f i angularsegmentkinematicsdatagram.obj
 0001:00002540       ??$_Unfancy@UKinematics@AngularSegmentKinematicsDatagram@@@std@@YAPEAUKinematics@AngularSegmentKinematicsDatagram@@PEAU12@@Z 0000000140003540 f i angularsegmentkinematicsdatagram.obj
 0001:00002550       ??$_Unfancy@U_Container_proxy@std@@@std@@YAPEAU_Container_proxy@0@PEAU10@@Z 0000000140003550 f i angularsegmentkinematicsdatagram.obj
 0001:00002560       ??$_Uninitialized_copy@PEAMPEAMV?$allocator@M@std@@@std@@YAPEAMQEAM0PEAMAEAV?$allocator@M@0@@Z 0000000140003560 f i angularsegmentkinematicsdatagram.obj
 0001:00002600       ??$_Uninitialized_copy@PEAUKinematics@AngularSegmentKinematicsDatagram@@PEAU12@V?$allocator@UKinematics@AngularSegmentKinematicsDatagram@@@std@@@std@@YAPEAUKinematics@AngularSegmentKinematicsDatagram@@QEAU12@0PEAU12@AEAV?$allocator@UKinematics@AngularSegmentKinematicsDatagram@@@0@@Z 0000000140003600 f i angularsegmentkinematicsdatagram.obj
 0001:000026a0       ??$_Uninitialized_copy_al_unchecked@MMV?$allocator@M@std@@@std@@YAPEAMQEAM00AEAV?$allocator@M@0@U_Really_trivial_ptr_iterator_tag@0@U?$integral_constant@_N$00@0@@Z 00000001400036a0 f i angularsegmentkinematicsdatagram.obj
 0001:000026e0       ??$_Uninitialized_copy_al_unchecked@UKinematics@AngularSegmentKinematicsDatagram@@U12@V?$allocator@UKinematics@AngularSegmentKinematicsDatagram@@@std@@@std@@YAPEAUKinematics@AngularSegmentKinematicsDatagram@@QEAU12@00AEAV?$allocator@UKinematics@AngularSegmentKinematicsDatagram@@@0@U_Really_trivial_ptr_iterator_tag@0@U?$integral_constant@_N$00@0@@Z 00000001400036e0 f i angularsegmentkinematicsdatagram.obj
 0001:00002720       ??$_Uninitialized_move@PEAMPEAMV?$allocator@M@std@@@std@@YAPEAMQEAM0PEAMAEAV?$allocator@M@0@@Z 0000000140003720 f i angularsegmentkinematicsdatagram.obj
 0001:000027c0       ??$_Uninitialized_move@PEAUKinematics@AngularSegmentKinematicsDatagram@@PEAU12@V?$allocator@UKinematics@AngularSegmentKinematicsDatagram@@@std@@@std@@YAPEAUKinematics@AngularSegmentKinematicsDatagram@@QEAU12@0PEAU12@AEAV?$allocator@UKinematics@AngularSegmentKinematicsDatagram@@@0@@Z 00000001400037c0 f i angularsegmentkinematicsdatagram.obj
 0001:00002860       ??$_Uninitialized_move_al_unchecked@MMV?$allocator@M@std@@@std@@YAPEAMQEAM00AEAV?$allocator@M@0@U_Really_trivial_ptr_iterator_tag@0@U?$integral_constant@_N$00@0@@Z 0000000140003860 f i angularsegmentkinematicsdatagram.obj
 0001:000028a0       ??$_Uninitialized_move_al_unchecked@UKinematics@AngularSegmentKinematicsDatagram@@U12@V?$allocator@UKinematics@AngularSegmentKinematicsDatagram@@@std@@@std@@YAPEAUKinematics@AngularSegmentKinematicsDatagram@@QEAU12@00AEAV?$allocator@UKinematics@AngularSegmentKinematicsDatagram@@@0@U_Really_trivial_ptr_iterator_tag@0@U?$integral_constant@_N$00@0@@Z 00000001400038a0 f i angularsegmentkinematicsdatagram.obj
 0001:000028e0       ??$addressof@PEAD@std@@YAPEAPEADAEAPEAD@Z 00000001400038e0 f i angularsegmentkinematicsdatagram.obj
 0001:000028f0       ??$addressof@V?$_String_val@U?$_Simple_types@D@std@@@std@@@std@@YAPEAV?$_String_val@U?$_Simple_types@D@std@@@0@AEAV10@@Z 00000001400038f0 f i angularsegmentkinematicsdatagram.obj
 0001:00002900       ??$addressof@V?$_Vector_val@U?$_Simple_types@M@std@@@std@@@std@@YAPEAV?$_Vector_val@U?$_Simple_types@M@std@@@0@AEAV10@@Z 0000000140003900 f i angularsegmentkinematicsdatagram.obj
 0001:00002910       ??$addressof@V?$_Vector_val@U?$_Simple_types@UKinematics@AngularSegmentKinematicsDatagram@@@std@@@std@@@std@@YAPEAV?$_Vector_val@U?$_Simple_types@UKinematics@AngularSegmentKinematicsDatagram@@@std@@@0@AEAV10@@Z 0000000140003910 f i angularsegmentkinematicsdatagram.obj
 0001:00002920       ??$construct@MAEBM@?$_Default_allocator_traits@V?$allocator@M@std@@@std@@SAXAEAV?$allocator@M@1@QEAMAEBM@Z 0000000140003920 f i angularsegmentkinematicsdatagram.obj
 0001:00002970       ??$construct@PEADAEBQEAD@?$_Default_allocator_traits@V?$allocator@D@std@@@std@@SAXAEAV?$allocator@D@1@QEAPEADAEBQEAD@Z 0000000140003970 f i angularsegmentkinematicsdatagram.obj
 0001:000029c0       ??$construct@UKinematics@AngularSegmentKinematicsDatagram@@AEBU12@@?$_Default_allocator_traits@V?$allocator@UKinematics@AngularSegmentKinematicsDatagram@@@std@@@std@@SAXAEAV?$allocator@UKinematics@AngularSegmentKinematicsDatagram@@@1@QEAUKinematics@AngularSegmentKinematicsDatagram@@AEBU34@@Z 00000001400039c0 f i angularsegmentkinematicsdatagram.obj
 0001:00002a10       ??$construct@U_Container_proxy@std@@U12@@?$_Default_allocator_traits@V?$allocator@U_Container_proxy@std@@@std@@@std@@SAXAEAV?$allocator@U_Container_proxy@std@@@1@QEAU_Container_proxy@1@$$QEAU31@@Z 0000000140003a10 f i angularsegmentkinematicsdatagram.obj
 0001:00002a60       ??$destroy@PEAD@?$_Default_allocator_traits@V?$allocator@D@std@@@std@@SAXAEAV?$allocator@D@1@QEAPEAD@Z 0000000140003a60 f i angularsegmentkinematicsdatagram.obj
 0001:00002a70       ??$destroy@U_Container_proxy@std@@@?$_Default_allocator_traits@V?$allocator@U_Container_proxy@std@@@std@@@std@@SAXAEAV?$allocator@U_Container_proxy@std@@@1@QEAU_Container_proxy@1@@Z 0000000140003a70 f i angularsegmentkinematicsdatagram.obj
 0001:00002a80       ??$emplace_back@AEBM@?$vector@MV?$allocator@M@std@@@std@@QEAAXAEBM@Z 0000000140003a80 f i angularsegmentkinematicsdatagram.obj
 0001:00002af0       ??$emplace_back@AEBUKinematics@AngularSegmentKinematicsDatagram@@@?$vector@UKinematics@AngularSegmentKinematicsDatagram@@V?$allocator@UKinematics@AngularSegmentKinematicsDatagram@@@std@@@std@@QEAAXAEBUKinematics@AngularSegmentKinematicsDatagram@@@Z 0000000140003af0 f i angularsegmentkinematicsdatagram.obj
 0001:00002b60       ??$forward@AEBM@std@@YAAEBMAEBM@Z 0000000140003b60 f i angularsegmentkinematicsdatagram.obj
 0001:00002b70       ??$forward@AEBQEAD@std@@YAAEBQEADAEBQEAD@Z 0000000140003b70 f i angularsegmentkinematicsdatagram.obj
 0001:00002b80       ??$forward@AEBUKinematics@AngularSegmentKinematicsDatagram@@@std@@YAAEBUKinematics@AngularSegmentKinematicsDatagram@@AEBU12@@Z 0000000140003b80 f i angularsegmentkinematicsdatagram.obj
 0001:00002b90       ??$forward@U_Container_proxy@std@@@std@@YA$$QEAU_Container_proxy@0@AEAU10@@Z 0000000140003b90 f i angularsegmentkinematicsdatagram.obj
 0001:00002ba0       ??$forward@V?$allocator@M@std@@@std@@YA$$QEAV?$allocator@M@0@AEAV10@@Z 0000000140003ba0 f i angularsegmentkinematicsdatagram.obj
 0001:00002bb0       ??$forward@V?$allocator@UKinematics@AngularSegmentKinematicsDatagram@@@std@@@std@@YA$$QEAV?$allocator@UKinematics@AngularSegmentKinematicsDatagram@@@0@AEAV10@@Z 0000000140003bb0 f i angularsegmentkinematicsdatagram.obj
 0001:00002bc0       ??$move@AEAV?$allocator@M@std@@@std@@YA$$QEAV?$allocator@M@0@AEAV10@@Z 0000000140003bc0 f i angularsegmentkinematicsdatagram.obj
 0001:00002bd0       ??$move@AEAV?$vector@MV?$allocator@M@std@@@std@@@std@@YA$$QEAV?$vector@MV?$allocator@M@std@@@0@AEAV10@@Z 0000000140003bd0 f i angularsegmentkinematicsdatagram.obj
 0001:00002be0       ??0?$_String_alloc@U?$_String_base_types@DV?$allocator@D@std@@@std@@@std@@QEAA@XZ 0000000140003be0 f i angularsegmentkinematicsdatagram.obj
 0001:00002c20       ??0?$_String_val@U?$_Simple_types@D@std@@@std@@QEAA@XZ 0000000140003c20 f i angularsegmentkinematicsdatagram.obj
 0001:00002c70       ??0?$_Vector_alloc@U?$_Vec_base_types@MV?$allocator@M@std@@@std@@@std@@QEAA@XZ 0000000140003c70 f i angularsegmentkinematicsdatagram.obj
 0001:00002ca0       ??0?$_Vector_alloc@U?$_Vec_base_types@UKinematics@AngularSegmentKinematicsDatagram@@V?$allocator@UKinematics@AngularSegmentKinematicsDatagram@@@std@@@std@@@std@@QEAA@XZ 0000000140003ca0 f i angularsegmentkinematicsdatagram.obj
 0001:00002cd0       ??0?$_Vector_val@U?$_Simple_types@M@std@@@std@@QEAA@XZ 0000000140003cd0 f i angularsegmentkinematicsdatagram.obj
 0001:00002d20       ??0?$_Vector_val@U?$_Simple_types@UKinematics@AngularSegmentKinematicsDatagram@@@std@@@std@@QEAA@XZ 0000000140003d20 f i angularsegmentkinematicsdatagram.obj
 0001:00002d70       ??0?$allocator@D@std@@QEAA@XZ 0000000140003d70 f i angularsegmentkinematicsdatagram.obj
 0001:00002d80       ??0?$allocator@M@std@@QEAA@XZ 0000000140003d80 f i angularsegmentkinematicsdatagram.obj
 0001:00002d90       ??0?$allocator@UKinematics@AngularSegmentKinematicsDatagram@@@std@@QEAA@XZ 0000000140003d90 f i angularsegmentkinematicsdatagram.obj
 0001:00002da0       ??0?$basic_string@DU?$char_traits@D@std@@V?$allocator@D@2@@std@@QEAA@QEBD@Z 0000000140003da0 f i angularsegmentkinematicsdatagram.obj
 0001:00002df0       ??0?$basic_string@DU?$char_traits@D@std@@V?$allocator@D@2@@std@@QEAA@XZ 0000000140003df0 f i angularsegmentkinematicsdatagram.obj
 0001:00002e30       ??0?$vector@MV?$allocator@M@std@@@std@@QEAA@$$QEAV01@@Z 0000000140003e30 f i angularsegmentkinematicsdatagram.obj
 0001:00002eb0       ??0?$vector@MV?$allocator@M@std@@@std@@QEAA@AEBV01@@Z 0000000140003eb0 f i angularsegmentkinematicsdatagram.obj
 0001:00002f80       ??0?$vector@MV?$allocator@M@std@@@std@@QEAA@XZ 0000000140003f80 f i angularsegmentkinematicsdatagram.obj
 0001:00002fb0       ??0?$vector@UKinematics@AngularSegmentKinematicsDatagram@@V?$allocator@UKinematics@AngularSegmentKinematicsDatagram@@@std@@@std@@QEAA@AEBV01@@Z 0000000140003fb0 f i angularsegmentkinematicsdatagram.obj
 0001:00003080       ??0?$vector@UKinematics@AngularSegmentKinematicsDatagram@@V?$allocator@UKinematics@AngularSegmentKinematicsDatagram@@@std@@@std@@QEAA@XZ 0000000140004080 f i angularsegmentkinematicsdatagram.obj
 0001:000030b0       ??0_Bxty@?$_String_val@U?$_Simple_types@D@std@@@std@@QEAA@XZ 00000001400040b0 f i angularsegmentkinematicsdatagram.obj
 0001:000030c0       ??0_Container_base12@std@@QEAA@XZ 00000001400040c0 f i angularsegmentkinematicsdatagram.obj
 0001:000030e0       ??0_Container_proxy@std@@QEAA@XZ 00000001400040e0 f i angularsegmentkinematicsdatagram.obj
 0001:00003110       ??0exception@std@@QEAA@AEBV01@@Z 0000000140004110 f i angularsegmentkinematicsdatagram.obj
 0001:00003170       ??0exception@std@@QEAA@QEBD@Z 0000000140004170 f i angularsegmentkinematicsdatagram.obj
 0001:000031e0       ??0runtime_error@std@@QEAA@AEBV01@@Z 00000001400041e0 f i angularsegmentkinematicsdatagram.obj
 0001:00003220       ??0runtime_error@std@@QEAA@PEBD@Z 0000000140004220 f i angularsegmentkinematicsdatagram.obj
 0001:00003260       ??0stream_info@lsl@@QEAA@AEBV?$basic_string@DU?$char_traits@D@std@@V?$allocator@D@2@@std@@0HNW4channel_format_t@1@0@Z 0000000140004260 f i angularsegmentkinematicsdatagram.obj
 0001:000032f0       ??0stream_outlet@lsl@@QEAA@AEBVstream_info@1@HH@Z 00000001400042f0 f i angularsegmentkinematicsdatagram.obj
 0001:00003350       ??1?$_Compressed_pair@V?$allocator@D@std@@V?$_String_val@U?$_Simple_types@D@std@@@2@$00@std@@QEAA@XZ 0000000140004350 f i angularsegmentkinematicsdatagram.obj
 0001:00003370       ??1?$_String_alloc@U?$_String_base_types@DV?$allocator@D@std@@@std@@@std@@QEAA@XZ 0000000140004370 f i angularsegmentkinematicsdatagram.obj
 0001:000033a0       ??1?$_String_val@U?$_Simple_types@D@std@@@std@@QEAA@XZ 00000001400043a0 f i angularsegmentkinematicsdatagram.obj
 0001:000033c0       ??1?$_Vector_alloc@U?$_Vec_base_types@MV?$allocator@M@std@@@std@@@std@@QEAA@XZ 00000001400043c0 f i angularsegmentkinematicsdatagram.obj
 0001:000033f0       ??1?$_Vector_alloc@U?$_Vec_base_types@UKinematics@AngularSegmentKinematicsDatagram@@V?$allocator@UKinematics@AngularSegmentKinematicsDatagram@@@std@@@std@@@std@@QEAA@XZ 00000001400043f0 f i angularsegmentkinematicsdatagram.obj
 0001:00003420       ??1?$basic_string@DU?$char_traits@D@std@@V?$allocator@D@2@@std@@QEAA@XZ 0000000140004420 f i angularsegmentkinematicsdatagram.obj
 0001:00003450       ??1?$vector@MV?$allocator@M@std@@@std@@QEAA@XZ 0000000140004450 f i angularsegmentkinematicsdatagram.obj
 0001:00003480       ??1?$vector@UKinematics@AngularSegmentKinematicsDatagram@@V?$allocator@UKinematics@AngularSegmentKinematicsDatagram@@@std@@@std@@QEAA@XZ 0000000140004480 f i angularsegmentkinematicsdatagram.obj
 0001:000034b0       ??1_Bxty@?$_String_val@U?$_Simple_types@D@std@@@std@@QEAA@XZ 00000001400044b0 f i angularsegmentkinematicsdatagram.obj
 0001:000034c0       ??1exception@std@@UEAA@XZ  00000001400044c0 f i angularsegmentkinematicsdatagram.obj
 0001:000034f0       ??1runtime_error@std@@UEAA@XZ 00000001400044f0 f i angularsegmentkinematicsdatagram.obj
 0001:00003510       ??1stream_info@lsl@@QEAA@XZ 0000000140004510 f i angularsegmentkinematicsdatagram.obj
 0001:00003530       ??1stream_outlet@lsl@@QEAA@XZ 0000000140004530 f i angularsegmentkinematicsdatagram.obj
 0001:00003550       ??2@YAPEAX_KPEAX@Z         0000000140004550 f i angularsegmentkinematicsdatagram.obj
 0001:00003560       ??A?$vector@MV?$allocator@M@std@@@std@@QEBAAEBM_K@Z 0000000140004560 f i angularsegmentkinematicsdatagram.obj
 0001:00003640       ??_GAngularSegmentKinematicsDatagram@@UEAAPEAXI@Z 0000000140004640 f i angularsegmentkinematicsdatagram.obj
 0001:00003640       ??_EAngularSegmentKinematicsDatagram@@UEAAPEAXI@Z 0000000140004640 f i angularsegmentkinematicsdatagram.obj
 0001:00003680       ??_Eexception@std@@UEAAPEAXI@Z 0000000140004680 f i angularsegmentkinematicsdatagram.obj
 0001:00003680       ??_Gexception@std@@UEAAPEAXI@Z 0000000140004680 f i angularsegmentkinematicsdatagram.obj
 0001:000036c0       ??_Gruntime_error@std@@UEAAPEAXI@Z 00000001400046c0 f i angularsegmentkinematicsdatagram.obj
 0001:000036c0       ??_Eruntime_error@std@@UEAAPEAXI@Z 00000001400046c0 f i angularsegmentkinematicsdatagram.obj
 0001:00003700       ?_Adjust_manually_vector_aligned@std@@YAXAEAPEAXAEA_K@Z 0000000140004700 f i angularsegmentkinematicsdatagram.obj
 0001:00003800       ?_Alloc_proxy@?$_String_alloc@U?$_String_base_types@DV?$allocator@D@std@@@std@@@std@@QEAAXXZ 0000000140004800 f i angularsegmentkinematicsdatagram.obj
 0001:000038b0       ?_Alloc_proxy@?$_Vector_alloc@U?$_Vec_base_types@MV?$allocator@M@std@@@std@@@std@@QEAAXXZ 00000001400048b0 f i angularsegmentkinematicsdatagram.obj
 0001:00003960       ?_Alloc_proxy@?$_Vector_alloc@U?$_Vec_base_types@UKinematics@AngularSegmentKinematicsDatagram@@V?$allocator@UKinematics@AngularSegmentKinematicsDatagram@@@std@@@std@@@std@@QEAAXXZ 0000000140004960 f i angularsegmentkinematicsdatagram.obj
 0001:00003a10       ?_Allocate@_Default_allocate_traits@std@@SAPEAX_K@Z 0000000140004a10 f i angularsegmentkinematicsdatagram.obj
 0001:00003a30       ?_Buy@?$vector@MV?$allocator@M@std@@@std@@AEAA_N_K@Z 0000000140004a30 f i angularsegmentkinematicsdatagram.obj
 0001:00003b20       ?_Buy@?$vector@UKinematics@AngularSegmentKinematicsDatagram@@V?$allocator@UKinematics@AngularSegmentKinematicsDatagram@@@std@@@std@@AEAA_N_K@Z 0000000140004b20 f i angularsegmentkinematicsdatagram.obj
 0001:00003c10       ?_Calculate_growth@?$basic_string@DU?$char_traits@D@std@@V?$allocator@D@2@@std@@QEBA_K_K@Z 0000000140004c10 f i angularsegmentkinematicsdatagram.obj
 0001:00003cd0       ?_Calculate_growth@?$vector@MV?$allocator@M@std@@@std@@AEBA_K_K@Z 0000000140004cd0 f i angularsegmentkinematicsdatagram.obj
 0001:00003d60       ?_Calculate_growth@?$vector@UKinematics@AngularSegmentKinematicsDatagram@@V?$allocator@UKinematics@AngularSegmentKinematicsDatagram@@@std@@@std@@AEBA_K_K@Z 0000000140004d60 f i angularsegmentkinematicsdatagram.obj
 0001:00003df0       ?_Change_array@?$vector@MV?$allocator@M@std@@@std@@AEAAXQEAM_K1@Z 0000000140004df0 f i angularsegmentkinematicsdatagram.obj
 0001:00003f00       ?_Change_array@?$vector@UKinematics@AngularSegmentKinematicsDatagram@@V?$allocator@UKinematics@AngularSegmentKinematicsDatagram@@@std@@@std@@AEAAXQEAUKinematics@AngularSegmentKinematicsDatagram@@_K1@Z 0000000140004f00 f i angularsegmentkinematicsdatagram.obj
 0001:00004010       ?_Clrcont@_Iterator_base12@std@@QEAAXXZ 0000000140005010 f i angularsegmentkinematicsdatagram.obj
 0001:00004030       ?_Destroy@?$vector@MV?$allocator@M@std@@@std@@AEAAXPEAM0@Z 0000000140005030 f i angularsegmentkinematicsdatagram.obj
 0001:00004070       ?_Destroy@?$vector@UKinematics@AngularSegmentKinematicsDatagram@@V?$allocator@UKinematics@AngularSegmentKinematicsDatagram@@@std@@@std@@AEAAXPEAUKinematics@AngularSegmentKinematicsDatagram@@0@Z 0000000140005070 f i angularsegmentkinematicsdatagram.obj
 0001:000040b0       ?_Free_proxy@?$_String_alloc@U?$_String_base_types@DV?$allocator@D@std@@@std@@@std@@QEAAXXZ 00000001400050b0 f i angularsegmentkinematicsdatagram.obj
 0001:00004120       ?_Free_proxy@?$_Vector_alloc@U?$_Vec_base_types@MV?$allocator@M@std@@@std@@@std@@QEAAXXZ 0000000140005120 f i angularsegmentkinematicsdatagram.obj
 0001:00004190       ?_Free_proxy@?$_Vector_alloc@U?$_Vec_base_types@UKinematics@AngularSegmentKinematicsDatagram@@V?$allocator@UKinematics@AngularSegmentKinematicsDatagram@@@std@@@std@@@std@@QEAAXXZ 0000000140005190 f i angularsegmentkinematicsdatagram.obj
 0001:00004200       ?_Get_data@?$_String_alloc@U?$_String_base_types@DV?$allocator@D@std@@@std@@@std@@QEAAAEAV?$_String_val@U?$_Simple_types@D@std@@@2@XZ 0000000140005200 f i angularsegmentkinematicsdatagram.obj
 0001:00004220       ?_Get_data@?$_String_alloc@U?$_String_base_types@DV?$allocator@D@std@@@std@@@std@@QEBAAEBV?$_String_val@U?$_Simple_types@D@std@@@2@XZ 0000000140005220 f i angularsegmentkinematicsdatagram.obj
 0001:00004240       ?_Get_data@?$_Vector_alloc@U?$_Vec_base_types@MV?$allocator@M@std@@@std@@@std@@QEAAAEAV?$_Vector_val@U?$_Simple_types@M@std@@@2@XZ 0000000140005240 f i angularsegmentkinematicsdatagram.obj
 0001:00004260       ?_Get_data@?$_Vector_alloc@U?$_Vec_base_types@MV?$allocator@M@std@@@std@@@std@@QEBAAEBV?$_Vector_val@U?$_Simple_types@M@std@@@2@XZ 0000000140005260 f i angularsegmentkinematicsdatagram.obj
 0001:00004280       ?_Get_data@?$_Vector_alloc@U?$_Vec_base_types@UKinematics@AngularSegmentKinematicsDatagram@@V?$allocator@UKinematics@AngularSegmentKinematicsDatagram@@@std@@@std@@@std@@QEAAAEAV?$_Vector_val@U?$_Simple_types@UKinematics@AngularSegmentKinematicsDatagram@@@std@@@2@XZ 0000000140005280 f i angularsegmentkinematicsdatagram.obj
 0001:000042a0       ?_Get_data@?$_Vector_alloc@U?$_Vec_base_types@UKinematics@AngularSegmentKinematicsDatagram@@V?$allocator@UKinematics@AngularSegmentKinematicsDatagram@@@std@@@std@@@std@@QEBAAEBV?$_Vector_val@U?$_Simple_types@UKinematics@AngularSegmentKinematicsDatagram@@@std@@@2@XZ 00000001400052a0 f i angularsegmentkinematicsdatagram.obj
 0001:000042c0       ?_Get_first@?$_Compressed_pair@V?$allocator@D@std@@V?$_String_val@U?$_Simple_types@D@std@@@2@$00@std@@QEAAAEAV?$allocator@D@2@XZ 00000001400052c0 f i angularsegmentkinematicsdatagram.obj
 0001:000042d0       ?_Get_first@?$_Compressed_pair@V?$allocator@D@std@@V?$_String_val@U?$_Simple_types@D@std@@@2@$00@std@@QEBAAEBV?$allocator@D@2@XZ 00000001400052d0 f i angularsegmentkinematicsdatagram.obj
 0001:000042e0       ?_Get_first@?$_Compressed_pair@V?$allocator@M@std@@V?$_Vector_val@U?$_Simple_types@M@std@@@2@$00@std@@QEAAAEAV?$allocator@M@2@XZ 00000001400052e0 f i angularsegmentkinematicsdatagram.obj
 0001:000042f0       ?_Get_first@?$_Compressed_pair@V?$allocator@M@std@@V?$_Vector_val@U?$_Simple_types@M@std@@@2@$00@std@@QEBAAEBV?$allocator@M@2@XZ 00000001400052f0 f i angularsegmentkinematicsdatagram.obj
 0001:00004300       ?_Get_first@?$_Compressed_pair@V?$allocator@UKinematics@AngularSegmentKinematicsDatagram@@@std@@V?$_Vector_val@U?$_Simple_types@UKinematics@AngularSegmentKinematicsDatagram@@@std@@@2@$00@std@@QEAAAEAV?$allocator@UKinematics@AngularSegmentKinematicsDatagram@@@2@XZ 0000000140005300 f i angularsegmentkinematicsdatagram.obj
 0001:00004310       ?_Get_first@?$_Compressed_pair@V?$allocator@UKinematics@AngularSegmentKinematicsDatagram@@@std@@V?$_Vector_val@U?$_Simple_types@UKinematics@AngularSegmentKinematicsDatagram@@@std@@@2@$00@std@@QEBAAEBV?$allocator@UKinematics@AngularSegmentKinematicsDatagram@@@2@XZ 0000000140005310 f i angularsegmentkinematicsdatagram.obj
 0001:00004320       ?_Get_second@?$_Compressed_pair@V?$allocator@D@std@@V?$_String_val@U?$_Simple_types@D@std@@@2@$00@std@@QEAAAEAV?$_String_val@U?$_Simple_types@D@std@@@2@XZ 0000000140005320 f i angularsegmentkinematicsdatagram.obj
 0001:00004330       ?_Get_second@?$_Compressed_pair@V?$allocator@D@std@@V?$_String_val@U?$_Simple_types@D@std@@@2@$00@std@@QEBAAEBV?$_String_val@U?$_Simple_types@D@std@@@2@XZ 0000000140005330 f i angularsegmentkinematicsdatagram.obj
 0001:00004340       ?_Get_second@?$_Compressed_pair@V?$allocator@M@std@@V?$_Vector_val@U?$_Simple_types@M@std@@@2@$00@std@@QEAAAEAV?$_Vector_val@U?$_Simple_types@M@std@@@2@XZ 0000000140005340 f i angularsegmentkinematicsdatagram.obj
 0001:00004350       ?_Get_second@?$_Compressed_pair@V?$allocator@M@std@@V?$_Vector_val@U?$_Simple_types@M@std@@@2@$00@std@@QEBAAEBV?$_Vector_val@U?$_Simple_types@M@std@@@2@XZ 0000000140005350 f i angularsegmentkinematicsdatagram.obj
 0001:00004360       ?_Get_second@?$_Compressed_pair@V?$allocator@UKinematics@AngularSegmentKinematicsDatagram@@@std@@V?$_Vector_val@U?$_Simple_types@UKinematics@AngularSegmentKinematicsDatagram@@@std@@@2@$00@std@@QEAAAEAV?$_Vector_val@U?$_Simple_types@UKinematics@AngularSegmentKinematicsDatagram@@@std@@@2@XZ 0000000140005360 f i angularsegmentkinematicsdatagram.obj
 0001:00004370       ?_Get_second@?$_Compressed_pair@V?$allocator@UKinematics@AngularSegmentKinematicsDatagram@@@std@@V?$_Vector_val@U?$_Simple_types@UKinematics@AngularSegmentKinematicsDatagram@@@std@@@2@$00@std@@QEBAAEBV?$_Vector_val@U?$_Simple_types@UKinematics@AngularSegmentKinematicsDatagram@@@std@@@2@XZ 0000000140005370 f i angularsegmentkinematicsdatagram.obj
 0001:00004380       ?_Getal@?$_String_alloc@U?$_String_base_types@DV?$allocator@D@std@@@std@@@std@@QEAAAEAV?$allocator@D@2@XZ 0000000140005380 f i angularsegmentkinematicsdatagram.obj
 0001:000043a0       ?_Getal@?$_String_alloc@U?$_String_base_types@DV?$allocator@D@std@@@std@@@std@@QEBAAEBV?$allocator@D@2@XZ 00000001400053a0 f i angularsegmentkinematicsdatagram.obj
 0001:000043c0       ?_Getal@?$_Vector_alloc@U?$_Vec_base_types@MV?$allocator@M@std@@@std@@@std@@QEAAAEAV?$allocator@M@2@XZ 00000001400053c0 f i angularsegmentkinematicsdatagram.obj
 0001:000043e0       ?_Getal@?$_Vector_alloc@U?$_Vec_base_types@MV?$allocator@M@std@@@std@@@std@@QEBAAEBV?$allocator@M@2@XZ 00000001400053e0 f i angularsegmentkinematicsdatagram.obj
 0001:00004400       ?_Getal@?$_Vector_alloc@U?$_Vec_base_types@UKinematics@AngularSegmentKinematicsDatagram@@V?$allocator@UKinematics@AngularSegmentKinematicsDatagram@@@std@@@std@@@std@@QEAAAEAV?$allocator@UKinematics@AngularSegmentKinematicsDatagram@@@2@XZ 0000000140005400 f i angularsegmentkinematicsdatagram.obj
 0001:00004420       ?_Getal@?$_Vector_alloc@U?$_Vec_base_types@UKinematics@AngularSegmentKinematicsDatagram@@V?$allocator@UKinematics@AngularSegmentKinematicsDatagram@@@std@@@std@@@std@@QEBAAEBV?$allocator@UKinematics@AngularSegmentKinematicsDatagram@@@2@XZ 0000000140005420 f i angularsegmentkinematicsdatagram.obj
 0001:00004440       ?_Getpfirst@?$_Vector_alloc@U?$_Vec_base_types@MV?$allocator@M@std@@@std@@@std@@QEBAPEAPEAU_Iterator_base12@2@XZ 0000000140005440 f i angularsegmentkinematicsdatagram.obj
 0001:00004460       ?_Getpfirst@?$_Vector_alloc@U?$_Vec_base_types@UKinematics@AngularSegmentKinematicsDatagram@@V?$allocator@UKinematics@AngularSegmentKinematicsDatagram@@@std@@@std@@@std@@QEBAPEAPEAU_Iterator_base12@2@XZ 0000000140005460 f i angularsegmentkinematicsdatagram.obj
 0001:00004480       ?_Getpfirst@_Container_base12@std@@QEBAPEAPEAU_Iterator_base12@2@XZ 0000000140005480 f i angularsegmentkinematicsdatagram.obj
 0001:000044c0       ?_Getpnext@_Iterator_base12@std@@QEAAPEAPEAU12@XZ 00000001400054c0 f i angularsegmentkinematicsdatagram.obj
 0001:000044d0       ?_Has_unused_capacity@?$vector@MV?$allocator@M@std@@@std@@AEBA_NXZ 00000001400054d0 f i angularsegmentkinematicsdatagram.obj
 0001:00004520       ?_Has_unused_capacity@?$vector@UKinematics@AngularSegmentKinematicsDatagram@@V?$allocator@UKinematics@AngularSegmentKinematicsDatagram@@@std@@@std@@AEBA_NXZ 0000000140005520 f i angularsegmentkinematicsdatagram.obj
 0001:00004570       ?_Large_string_engaged@?$_String_val@U?$_Simple_types@D@std@@@std@@QEBA_NXZ 0000000140005570 f i angularsegmentkinematicsdatagram.obj
 0001:000045a0       ?_Move_from@?$vector@MV?$allocator@M@std@@@std@@AEAAX$$QEAV12@U?$integral_constant@_N$00@2@@Z 00000001400055a0 f i angularsegmentkinematicsdatagram.obj
 0001:00004680       ?_Myend@?$_Vector_alloc@U?$_Vec_base_types@MV?$allocator@M@std@@@std@@@std@@QEAAAEAPEAMXZ 0000000140005680 f i angularsegmentkinematicsdatagram.obj
 0001:000046a0       ?_Myend@?$_Vector_alloc@U?$_Vec_base_types@MV?$allocator@M@std@@@std@@@std@@QEBAAEBQEAMXZ 00000001400056a0 f i angularsegmentkinematicsdatagram.obj
 0001:000046c0       ?_Myend@?$_Vector_alloc@U?$_Vec_base_types@UKinematics@AngularSegmentKinematicsDatagram@@V?$allocator@UKinematics@AngularSegmentKinematicsDatagram@@@std@@@std@@@std@@QEAAAEAPEAUKinematics@AngularSegmentKinematicsDatagram@@XZ 00000001400056c0 f i angularsegmentkinematicsdatagram.obj
 0001:000046e0       ?_Myend@?$_Vector_alloc@U?$_Vec_base_types@UKinematics@AngularSegmentKinematicsDatagram@@V?$allocator@UKinematics@AngularSegmentKinematicsDatagram@@@std@@@std@@@std@@QEBAAEBQEAUKinematics@AngularSegmentKinematicsDatagram@@XZ 00000001400056e0 f i angularsegmentkinematicsdatagram.obj
 0001:00004700       ?_Myfirst@?$_Vector_alloc@U?$_Vec_base_types@MV?$allocator@M@std@@@std@@@std@@QEAAAEAPEAMXZ 0000000140005700 f i angularsegmentkinematicsdatagram.obj
 0001:00004720       ?_Myfirst@?$_Vector_alloc@U?$_Vec_base_types@MV?$allocator@M@std@@@std@@@std@@QEBAAEBQEAMXZ 0000000140005720 f i angularsegmentkinematicsdatagram.obj
 0001:00004740       ?_Myfirst@?$_Vector_alloc@U?$_Vec_base_types@UKinematics@AngularSegmentKinematicsDatagram@@V?$allocator@UKinematics@AngularSegmentKinematicsDatagram@@@std@@@std@@@std@@QEAAAEAPEAUKinematics@AngularSegmentKinematicsDatagram@@XZ 0000000140005740 f i angularsegmentkinematicsdatagram.obj
 0001:00004760       ?_Myfirst@?$_Vector_alloc@U?$_Vec_base_types@UKinematics@AngularSegmentKinematicsDatagram@@V?$allocator@UKinematics@AngularSegmentKinematicsDatagram@@@std@@@std@@@std@@QEBAAEBQEAUKinematics@AngularSegmentKinematicsDatagram@@XZ 0000000140005760 f i angularsegmentkinematicsdatagram.obj
 0001:00004780       ?_Mylast@?$_Vector_alloc@U?$_Vec_base_types@MV?$allocator@M@std@@@std@@@std@@QEAAAEAPEAMXZ 0000000140005780 f i angularsegmentkinematicsdatagram.obj
 0001:000047a0       ?_Mylast@?$_Vector_alloc@U?$_Vec_base_types@MV?$allocator@M@std@@@std@@@std@@QEBAAEBQEAMXZ 00000001400057a0 f i angularsegmentkinematicsdatagram.obj
 0001:000047c0       ?_Mylast@?$_Vector_alloc@U?$_Vec_base_types@UKinematics@AngularSegmentKinematicsDatagram@@V?$allocator@UKinematics@AngularSegmentKinematicsDatagram@@@std@@@std@@@std@@QEAAAEAPEAUKinematics@AngularSegmentKinematicsDatagram@@XZ 00000001400057c0 f i angularsegmentkinematicsdatagram.obj
 0001:000047e0       ?_Mylast@?$_Vector_alloc@U?$_Vec_base_types@UKinematics@AngularSegmentKinematicsDatagram@@V?$allocator@UKinematics@AngularSegmentKinematicsDatagram@@@std@@@std@@@std@@QEBAAEBQEAUKinematics@AngularSegmentKinematicsDatagram@@XZ 00000001400057e0 f i angularsegmentkinematicsdatagram.obj
 0001:00004800       ?_Myproxy@?$_String_alloc@U?$_String_base_types@DV?$allocator@D@std@@@std@@@std@@QEAAAEAPEAU_Container_proxy@2@XZ 0000000140005800 f i angularsegmentkinematicsdatagram.obj
 0001:00004820       ?_Myproxy@?$_Vector_alloc@U?$_Vec_base_types@MV?$allocator@M@std@@@std@@@std@@QEAAAEAPEAU_Container_proxy@2@XZ 0000000140005820 f i angularsegmentkinematicsdatagram.obj
 0001:00004840       ?_Myproxy@?$_Vector_alloc@U?$_Vec_base_types@UKinematics@AngularSegmentKinematicsDatagram@@V?$allocator@UKinematics@AngularSegmentKinematicsDatagram@@@std@@@std@@@std@@QEAAAEAPEAU_Container_proxy@2@XZ 0000000140005840 f i angularsegmentkinematicsdatagram.obj
 0001:00004860       ?_Myptr@?$_String_val@U?$_Simple_types@D@std@@@std@@QEAAPEADXZ 0000000140005860 f i angularsegmentkinematicsdatagram.obj
 0001:000048b0       ?_Myptr@?$_String_val@U?$_Simple_types@D@std@@@std@@QEBAPEBDXZ 00000001400058b0 f i angularsegmentkinematicsdatagram.obj
 0001:00004900       ?_Orphan_all@?$_String_alloc@U?$_String_base_types@DV?$allocator@D@std@@@std@@@std@@QEAAXXZ 0000000140005900 f i angularsegmentkinematicsdatagram.obj
 0001:00004920       ?_Orphan_all@?$_Vector_alloc@U?$_Vec_base_types@MV?$allocator@M@std@@@std@@@std@@QEAAXXZ 0000000140005920 f i angularsegmentkinematicsdatagram.obj
 0001:00004940       ?_Orphan_all@?$_Vector_alloc@U?$_Vec_base_types@UKinematics@AngularSegmentKinematicsDatagram@@V?$allocator@UKinematics@AngularSegmentKinematicsDatagram@@@std@@@std@@@std@@QEAAXXZ 0000000140005940 f i angularsegmentkinematicsdatagram.obj
 0001:00004960       ?_Orphan_all@_Container_base12@std@@QEAAXXZ 0000000140005960 f i angularsegmentkinematicsdatagram.obj
 0001:00004a00       ?_Orphan_range@?$vector@MV?$allocator@M@std@@@std@@AEBAXPEAM0@Z 0000000140005a00 f i angularsegmentkinematicsdatagram.obj
 0001:00004ac0       ?_Orphan_range@?$vector@UKinematics@AngularSegmentKinematicsDatagram@@V?$allocator@UKinematics@AngularSegmentKinematicsDatagram@@@std@@@std@@AEBAXPEAUKinematics@AngularSegmentKinematicsDatagram@@0@Z 0000000140005ac0 f i angularsegmentkinematicsdatagram.obj
 0001:00004b80       ?_Swap_all@?$_Vector_alloc@U?$_Vec_base_types@MV?$allocator@M@std@@@std@@@std@@QEAAXAEAV12@@Z 0000000140005b80 f i angularsegmentkinematicsdatagram.obj
 0001:00004bc0       ?_Swap_all@_Container_base12@std@@QEAAXAEAU12@@Z 0000000140005bc0 f i angularsegmentkinematicsdatagram.obj
 0001:00004c60       ?_Tidy@?$vector@MV?$allocator@M@std@@@std@@AEAAXXZ 0000000140005c60 f i angularsegmentkinematicsdatagram.obj
 0001:00004d30       ?_Tidy@?$vector@UKinematics@AngularSegmentKinematicsDatagram@@V?$allocator@UKinematics@AngularSegmentKinematicsDatagram@@@std@@@std@@AEAAXXZ 0000000140005d30 f i angularsegmentkinematicsdatagram.obj
 0001:00004e00       ?_Tidy_deallocate@?$basic_string@DU?$char_traits@D@std@@V?$allocator@D@2@@std@@QEAAXXZ 0000000140005e00 f i angularsegmentkinematicsdatagram.obj
 0001:00004ed0       ?_Tidy_init@?$basic_string@DU?$char_traits@D@std@@V?$allocator@D@2@@std@@QEAAXXZ 0000000140005ed0 f i angularsegmentkinematicsdatagram.obj
 0001:00004f30       ?_Umove@?$vector@MV?$allocator@M@std@@@std@@AEAAPEAMPEAM00@Z 0000000140005f30 f i angularsegmentkinematicsdatagram.obj
 0001:00004f70       ?_Umove@?$vector@UKinematics@AngularSegmentKinematicsDatagram@@V?$allocator@UKinematics@AngularSegmentKinematicsDatagram@@@std@@@std@@AEAAPEAUKinematics@AngularSegmentKinematicsDatagram@@PEAU34@00@Z 0000000140005f70 f i angularsegmentkinematicsdatagram.obj
 0001:00004fb0       ?_Umove_if_noexcept1@?$vector@MV?$allocator@M@std@@@std@@AEAAXPEAM00U?$integral_constant@_N$00@2@@Z 0000000140005fb0 f i angularsegmentkinematicsdatagram.obj
 0001:00004ff0       ?_Umove_if_noexcept1@?$vector@UKinematics@AngularSegmentKinematicsDatagram@@V?$allocator@UKinematics@AngularSegmentKinematicsDatagram@@@std@@@std@@AEAAXPEAUKinematics@AngularSegmentKinematicsDatagram@@00U?$integral_constant@_N$00@2@@Z 0000000140005ff0 f i angularsegmentkinematicsdatagram.obj
 0001:00005030       ?_Umove_if_noexcept@?$vector@MV?$allocator@M@std@@@std@@AEAAXPEAM00@Z 0000000140006030 f i angularsegmentkinematicsdatagram.obj
 0001:00005090       ?_Umove_if_noexcept@?$vector@UKinematics@AngularSegmentKinematicsDatagram@@V?$allocator@UKinematics@AngularSegmentKinematicsDatagram@@@std@@@std@@AEAAXPEAUKinematics@AngularSegmentKinematicsDatagram@@00@Z 0000000140006090 f i angularsegmentkinematicsdatagram.obj
 0001:000050f0       ?_Unchecked_begin@?$vector@UKinematics@AngularSegmentKinematicsDatagram@@V?$allocator@UKinematics@AngularSegmentKinematicsDatagram@@@std@@@std@@QEAAPEAUKinematics@AngularSegmentKinematicsDatagram@@XZ 00000001400060f0 f i angularsegmentkinematicsdatagram.obj
 0001:00005110       ?_Unchecked_end@?$vector@UKinematics@AngularSegmentKinematicsDatagram@@V?$allocator@UKinematics@AngularSegmentKinematicsDatagram@@@std@@@std@@QEAAPEAUKinematics@AngularSegmentKinematicsDatagram@@XZ 0000000140006110 f i angularsegmentkinematicsdatagram.obj
 0001:00005130       ?_Xlen@?$basic_string@DU?$char_traits@D@std@@V?$allocator@D@2@@std@@SAXXZ 0000000140006130 f i angularsegmentkinematicsdatagram.obj
 0001:00005150       ?_Xlength@?$vector@MV?$allocator@M@std@@@std@@CAXXZ 0000000140006150 f i angularsegmentkinematicsdatagram.obj
 0001:00005170       ?_Xlength@?$vector@UKinematics@AngularSegmentKinematicsDatagram@@V?$allocator@UKinematics@AngularSegmentKinematicsDatagram@@@std@@@std@@CAXXZ 0000000140006170 f i angularsegmentkinematicsdatagram.obj
 0001:00005190       ?__empty_global_delete@@YAXPEAX@Z 0000000140006190 f i angularsegmentkinematicsdatagram.obj
 0001:000051a0       ?__global_delete@@YAXPEAX_K@Z 00000001400061a0 f i angularsegmentkinematicsdatagram.obj
 0001:000051a0       ?__empty_global_delete@@YAXPEAX_K@Z 00000001400061a0 f i angularsegmentkinematicsdatagram.obj
 0001:000051b0       ?allocate@?$allocator@D@std@@QEAAPEAD_K@Z 00000001400061b0 f i angularsegmentkinematicsdatagram.obj
 0001:000051e0       ?allocate@?$allocator@M@std@@QEAAPEAM_K@Z 00000001400061e0 f i angularsegmentkinematicsdatagram.obj
 0001:00005210       ?allocate@?$allocator@UKinematics@AngularSegmentKinematicsDatagram@@@std@@QEAAPEAUKinematics@AngularSegmentKinematicsDatagram@@_K@Z 0000000140006210 f i angularsegmentkinematicsdatagram.obj
 0001:00005240       ?allocate@?$allocator@U_Container_proxy@std@@@std@@QEAAPEAU_Container_proxy@2@_K@Z 0000000140006240 f i angularsegmentkinematicsdatagram.obj
 0001:00005270       ?assign@?$basic_string@DU?$char_traits@D@std@@V?$allocator@D@2@@std@@QEAAAEAV12@QEBD@Z 0000000140006270 f i angularsegmentkinematicsdatagram.obj
 0001:000052b0       ?assign@?$basic_string@DU?$char_traits@D@std@@V?$allocator@D@2@@std@@QEAAAEAV12@QEBD_K@Z 00000001400062b0 f i angularsegmentkinematicsdatagram.obj
 0001:00005370       ?assign@?$char_traits@D@std@@SAXAEADAEBD@Z 0000000140006370 f i angularsegmentkinematicsdatagram.obj
 0001:00005390       ?c_str@?$basic_string@DU?$char_traits@D@std@@V?$allocator@D@2@@std@@QEBAPEBDXZ 0000000140006390 f i angularsegmentkinematicsdatagram.obj
 0001:000053c0       ?capacity@?$vector@MV?$allocator@M@std@@@std@@QEBA_KXZ 00000001400063c0 f i angularsegmentkinematicsdatagram.obj
 0001:00005400       ?capacity@?$vector@UKinematics@AngularSegmentKinematicsDatagram@@V?$allocator@UKinematics@AngularSegmentKinematicsDatagram@@@std@@@std@@QEBA_KXZ 0000000140006400 f i angularsegmentkinematicsdatagram.obj
 0001:00005450       ?channel_count@stream_info@lsl@@QEBAHXZ 0000000140006450 f i angularsegmentkinematicsdatagram.obj
 0001:00005470       ?check_numchan@stream_outlet@lsl@@AEBAX_K@Z 0000000140006470 f i angularsegmentkinematicsdatagram.obj
 0001:000054c0       ?copy@?$char_traits@D@std@@SAPEADQEADQEBD_K@Z 00000001400064c0 f i angularsegmentkinematicsdatagram.obj
 0001:000054f0       ?deallocate@?$_Default_allocator_traits@V?$allocator@U_Container_proxy@std@@@std@@@std@@SAXAEAV?$allocator@U_Container_proxy@std@@@2@QEAU_Container_proxy@2@_K@Z 00000001400064f0 f i angularsegmentkinematicsdatagram.obj
 0001:00005520       ?deallocate@?$allocator@D@std@@QEAAXQEAD_K@Z 0000000140006520 f i angularsegmentkinematicsdatagram.obj
 0001:00005550       ?deallocate@?$allocator@M@std@@QEAAXQEAM_K@Z 0000000140006550 f i angularsegmentkinematicsdatagram.obj
 0001:00005580       ?deallocate@?$allocator@UKinematics@AngularSegmentKinematicsDatagram@@@std@@QEAAXQEAUKinematics@AngularSegmentKinematicsDatagram@@_K@Z 0000000140006580 f i angularsegmentkinematicsdatagram.obj
 0001:000055b0       ?handle@stream_info@lsl@@QEBAPEAUlsl_streaminfo_struct_@2@XZ 00000001400065b0 f i angularsegmentkinematicsdatagram.obj
 0001:000055c0       ?length@?$char_traits@D@std@@SA_KQEBD@Z 00000001400065c0 f i angularsegmentkinematicsdatagram.obj
 0001:000055e0       ?max@?$numeric_limits@_J@std@@SA_JXZ 00000001400065e0 f i angularsegmentkinematicsdatagram.obj
 0001:000055f0       ?max_size@?$_Default_allocator_traits@V?$allocator@D@std@@@std@@SA_KAEBV?$allocator@D@2@@Z 00000001400065f0 f i angularsegmentkinematicsdatagram.obj
 0001:00005600       ?max_size@?$_Default_allocator_traits@V?$allocator@M@std@@@std@@SA_KAEBV?$allocator@M@2@@Z 0000000140006600 f i angularsegmentkinematicsdatagram.obj
 0001:00005610       ?max_size@?$_Default_allocator_traits@V?$allocator@UKinematics@AngularSegmentKinematicsDatagram@@@std@@@std@@SA_KAEBV?$allocator@UKinematics@AngularSegmentKinematicsDatagram@@@2@@Z 0000000140006610 f i angularsegmentkinematicsdatagram.obj
 0001:00005620       ?max_size@?$basic_string@DU?$char_traits@D@std@@V?$allocator@D@2@@std@@QEBA_KXZ 0000000140006620 f i angularsegmentkinematicsdatagram.obj
 0001:00005690       ?max_size@?$vector@MV?$allocator@M@std@@@std@@QEBA_KXZ 0000000140006690 f i angularsegmentkinematicsdatagram.obj
 0001:000056e0       ?max_size@?$vector@UKinematics@AngularSegmentKinematicsDatagram@@V?$allocator@UKinematics@AngularSegmentKinematicsDatagram@@@std@@@std@@QEBA_KXZ 00000001400066e0 f i angularsegmentkinematicsdatagram.obj
 0001:00005730       ?move@?$char_traits@D@std@@SAPEADQEADQEBD_K@Z 0000000140006730 f i angularsegmentkinematicsdatagram.obj
 0001:00005760       ?push_back@?$vector@MV?$allocator@M@std@@@std@@QEAAXAEBM@Z 0000000140006760 f i angularsegmentkinematicsdatagram.obj
 0001:00005790       ?push_back@?$vector@UKinematics@AngularSegmentKinematicsDatagram@@V?$allocator@UKinematics@AngularSegmentKinematicsDatagram@@@std@@@std@@QEAAXAEBUKinematics@AngularSegmentKinematicsDatagram@@@Z 0000000140006790 f i angularsegmentkinematicsdatagram.obj
 0001:000057c0       ?push_sample@stream_outlet@lsl@@QEAAXAEBV?$vector@MV?$allocator@M@std@@@std@@N_N@Z 00000001400067c0 f i angularsegmentkinematicsdatagram.obj
 0001:00005830       ?select_on_container_copy_construction@?$_Default_allocator_traits@V?$allocator@M@std@@@std@@SA?AV?$allocator@M@2@AEBV32@@Z 0000000140006830 f i angularsegmentkinematicsdatagram.obj
 0001:00005840       ?select_on_container_copy_construction@?$_Default_allocator_traits@V?$allocator@UKinematics@AngularSegmentKinematicsDatagram@@@std@@@std@@SA?AV?$allocator@UKinematics@AngularSegmentKinematicsDatagram@@@2@AEBV32@@Z 0000000140006840 f i angularsegmentkinematicsdatagram.obj
 0001:00005850       ?size@?$vector@MV?$allocator@M@std@@@std@@QEBA_KXZ 0000000140006850 f i angularsegmentkinematicsdatagram.obj
 0001:00005890       ?size@?$vector@UKinematics@AngularSegmentKinematicsDatagram@@V?$allocator@UKinematics@AngularSegmentKinematicsDatagram@@@std@@@std@@QEBA_KXZ 0000000140006890 f i angularsegmentkinematicsdatagram.obj
 0001:000058e0       ?what@exception@std@@UEBAPEBDXZ 00000001400068e0 f i angularsegmentkinematicsdatagram.obj
 0001:00005920       ??0CenterOfMassDatagram@@QEAA@XZ 0000000140006920 f   centerofmassdatagram.obj
 0001:00005970       ??1CenterOfMassDatagram@@UEAA@XZ 0000000140006970 f   centerofmassdatagram.obj
 0001:000059a0       ?printData@CenterOfMassDatagram@@UEBAXXZ 00000001400069a0 f   centerofmassdatagram.obj
 0001:00005a20       ?push_sample@CenterOfMassDatagram@@SAXQEAM@Z 0000000140006a20 f   centerofmassdatagram.obj
 0001:00005ad0       ?deserializeData@CenterOfMassDatagram@@MEAAXAEAVStreamer@@@Z 0000000140006ad0 f   centerofmassdatagram.obj
 0001:00005cd0       ??_ECenterOfMassDatagram@@UEAAPEAXI@Z 0000000140006cd0 f i centerofmassdatagram.obj
 0001:00005cd0       ??_GCenterOfMassDatagram@@UEAAPEAXI@Z 0000000140006cd0 f i centerofmassdatagram.obj
 0001:00005d10       ??0Datagram@@QEAA@XZ       0000000140006d10 f   datagram.obj
 0001:00005dd0       ??1Datagram@@QEAA@XZ       0000000140006dd0 f   datagram.obj
 0001:00005e20       ?deserialize@Datagram@@QEAA_NAEBUXsByteArray@@@Z 0000000140006e20 f   datagram.obj
 0001:00005f90       ?setDataCount@Datagram@@QEAAXE@Z 0000000140006f90 f   datagram.obj
 0001:00005fb0       ?setType@Datagram@@QEAAXW4StreamingProtocol@@@Z 0000000140006fb0 f   datagram.obj
 0001:000060f0       ?messageType@Datagram@@QEBAHXZ 00000001400070f0 f   datagram.obj
 0001:000061b0       ?sampleCounter@Datagram@@QEBAHXZ 00000001400071b0 f   datagram.obj
 0001:000061d0       ?frameTime@Datagram@@QEBAHXZ 00000001400071d0 f   datagram.obj
 0001:000061f0       ?avatarId@Datagram@@QEBAEXZ 00000001400071f0 f   datagram.obj
 0001:00006210       ?dataCount@Datagram@@QEBAEXZ 0000000140007210 f   datagram.obj
 0001:00006230       ?datagramCounter@Datagram@@QEBAEXZ 0000000140007230 f   datagram.obj
 0001:00006250       ?messageType@Datagram@@SAHAEBUXsByteArray@@@Z 0000000140007250 f   datagram.obj
 0001:00006350       ?decode@Datagram@@QEBA?AV?$basic_string@DU?$char_traits@D@std@@V?$allocator@D@2@@std@@W4StreamingProtocol@@@Z 0000000140007350 f   datagram.obj
 0001:000064c0       ?convertFromYupToZup@Datagram@@QEBAXPEAM@Z 00000001400074c0 f   datagram.obj
 0001:00006570       ?printHeader@Datagram@@QEBAXXZ 0000000140007570 f   datagram.obj
 0001:00006580       ?getDataSize@Datagram@@AEBAHXZ 0000000140007580 f   datagram.obj
 0001:000065a0       ?initMap@Datagram@@AEAAXAEAV?$map@HV?$basic_string@DU?$char_traits@D@std@@V?$allocator@D@2@@std@@U?$less@H@2@V?$allocator@U?$pair@$$CBHV?$basic_string@DU?$char_traits@D@std@@V?$allocator@D@2@@std@@@std@@@2@@std@@@Z 00000001400075a0 f   datagram.obj
 0001:000067b0       ??$?0$$QEAH$$Z$$V@?$pair@$$CBHV?$basic_string@DU?$char_traits@D@std@@V?$allocator@D@2@@std@@@std@@QEAA@Upiecewise_construct_t@1@V?$tuple@$$QEAH@1@V?$tuple@$$V@1@@Z 00000001400077b0 f i datagram.obj
 0001:00006800       ??$?0$$V@?$_Compressed_pair@V?$allocator@U?$_Tree_node@U?$pair@$$CBHV?$basic_string@DU?$char_traits@D@std@@V?$allocator@D@2@@std@@@std@@PEAX@std@@@std@@V?$_Tree_val@U?$_Tree_simple_types@U?$pair@$$CBHV?$basic_string@DU?$char_traits@D@std@@V?$allocator@D@2@@std@@@std@@@std@@@2@$00@std@@QEAA@U_Zero_then_variadic_args_t@1@@Z 0000000140007800 f i datagram.obj
 0001:00006830       ??$?0AEAPEAV_Facet_base@std@@@?$_Compressed_pair@U?$default_delete@V_Facet_base@std@@@std@@PEAV_Facet_base@2@$00@std@@QEAA@U_Zero_then_variadic_args_t@1@AEAPEAV_Facet_base@1@@Z 0000000140007830 f i datagram.obj
 0001:00006870       ??$?0AEAV?$_Tree_iterator@V?$_Tree_val@U?$_Tree_simple_types@U?$pair@$$CBHV?$basic_string@DU?$char_traits@D@std@@V?$allocator@D@2@@std@@@std@@@std@@@std@@@std@@_N$0A@@?$pair@V?$_Tree_iterator@V?$_Tree_val@U?$_Tree_simple_types@U?$pair@$$CBHV?$basic_string@DU?$char_traits@D@std@@V?$allocator@D@2@@std@@@std@@@std@@@std@@@std@@_N@std@@QEAA@AEAV?$_Tree_iterator@V?$_Tree_val@U?$_Tree_simple_types@U?$pair@$$CBHV?$basic_string@DU?$char_traits@D@std@@V?$allocator@D@2@@std@@@std@@@std@@@std@@@1@$$QEA_N@Z 0000000140007870 f i datagram.obj
 0001:000068c0       ??$?0AEBU?$less@H@std@@U_Zero_then_variadic_args_t@1@@?$_Compressed_pair@U?$less@H@std@@V?$_Compressed_pair@V?$allocator@U?$_Tree_node@U?$pair@$$CBHV?$basic_string@DU?$char_traits@D@std@@V?$allocator@D@2@@std@@@std@@PEAX@std@@@std@@V?$_Tree_val@U?$_Tree_simple_types@U?$pair@$$CBHV?$basic_string@DU?$char_traits@D@std@@V?$allocator@D@2@@std@@@std@@@std@@@2@$00@2@$00@std@@QEAA@U_One_then_variadic_args_t@1@AEBU?$less@H@1@$$QEAU_Zero_then_variadic_args_t@1@@Z 00000001400078c0 f i datagram.obj
 0001:00006910       ??$?0AEBV?$allocator@D@std@@$$V@?$_Compressed_pair@V?$allocator@D@std@@V?$_String_val@U?$_Simple_types@D@std@@@2@$00@std@@QEAA@U_One_then_variadic_args_t@1@AEBV?$allocator@D@1@@Z 0000000140007910 f i datagram.obj
 0001:00006950       ??$?0AEBV?$allocator@D@std@@X@?$_String_alloc@U?$_String_base_types@DV?$allocator@D@std@@@std@@@std@@QEAA@AEBV?$allocator@D@1@@Z 0000000140007950 f i datagram.obj
 0001:000069a0       ??$?0H$$V$0A@@?$tuple@$$QEAH@std@@QEAA@$$QEAH@Z 00000001400079a0 f i datagram.obj
 0001:000069f0       ??$?0H@?$_Tuple_val@$$QEAH@std@@QEAA@$$QEAH@Z 00000001400079f0 f i datagram.obj
 0001:00006a20       ??$?0PEAV_Facet_base@std@@@?$_Unique_ptr_base@V_Facet_base@std@@U?$default_delete@V_Facet_base@std@@@2@@std@@QEAA@PEAV_Facet_base@1@@Z 0000000140007a20 f i datagram.obj
 0001:00006a50       ??$?0U?$_Tree_node@U?$pair@$$CBHV?$basic_string@DU?$char_traits@D@std@@V?$allocator@D@2@@std@@@std@@PEAX@std@@@?$allocator@U_Container_proxy@std@@@std@@QEAA@AEBV?$allocator@U?$_Tree_node@U?$pair@$$CBHV?$basic_string@DU?$char_traits@D@std@@V?$allocator@D@2@@std@@@std@@PEAX@std@@@1@@Z 0000000140007a50 f i datagram.obj
 0001:00006a60       ??$?0U?$default_delete@V_Facet_base@std@@@std@@$0A@@?$unique_ptr@V_Facet_base@std@@U?$default_delete@V_Facet_base@std@@@2@@std@@QEAA@PEAV_Facet_base@1@@Z 0000000140007a60 f i datagram.obj
 0001:00006aa0       ??$?0U_Exact_args_t@std@@$0A@@?$tuple@$$V@std@@QEAA@U_Exact_args_t@1@@Z 0000000140007aa0 f i datagram.obj
 0001:00006ab0       ??$?0U_Exact_args_t@std@@H$$V$0A@@?$tuple@$$QEAH@std@@QEAA@U_Exact_args_t@1@$$QEAH@Z 0000000140007ab0 f i datagram.obj
 0001:00006b10       ??$?0V?$_Tree_iterator@V?$_Tree_val@U?$_Tree_simple_types@U?$pair@$$CBHV?$basic_string@DU?$char_traits@D@std@@V?$allocator@D@2@@std@@@std@@@std@@@std@@@std@@_N$0A@@?$pair@V?$_Tree_iterator@V?$_Tree_val@U?$_Tree_simple_types@U?$pair@$$CBHV?$basic_string@DU?$char_traits@D@std@@V?$allocator@D@2@@std@@@std@@@std@@@std@@@std@@_N@std@@QEAA@$$QEAV?$_Tree_iterator@V?$_Tree_val@U?$_Tree_simple_types@U?$pair@$$CBHV?$basic_string@DU?$char_traits@D@std@@V?$allocator@D@2@@std@@@std@@@std@@@std@@@1@$$QEA_N@Z 0000000140007b10 f i datagram.obj
 0001:00006b60       ??$?0V?$allocator@D@std@@$$V@?$_Compressed_pair@V?$allocator@D@std@@V?$_String_val@U?$_Simple_types@D@std@@@2@$00@std@@QEAA@U_One_then_variadic_args_t@1@$$QEAV?$allocator@D@1@@Z 0000000140007b60 f i datagram.obj
 0001:00006ba0       ??$?0V?$allocator@D@std@@X@?$_String_alloc@U?$_String_base_types@DV?$allocator@D@std@@@std@@@std@@QEAA@$$QEAV?$allocator@D@1@@Z 0000000140007ba0 f i datagram.obj
 0001:00006bf0       ??$?0V?$tuple@$$QEAH@std@@V?$tuple@$$V@1@$0A@$$Z$S@?$pair@$$CBHV?$basic_string@DU?$char_traits@D@std@@V?$allocator@D@2@@std@@@std@@QEAA@AEAV?$tuple@$$QEAH@1@AEAV?$tuple@$$V@1@U?$integer_sequence@_K$0A@@1@U?$integer_sequence@_K$S@1@@Z 0000000140007bf0 f i datagram.obj
 0001:00006c40       ??$?5DU?$char_traits@D@std@@V?$allocator@D@1@@std@@YAAEAV?$basic_istream@DU?$char_traits@D@std@@@0@$$QEAV10@AEAV?$basic_string@DU?$char_traits@D@std@@V?$allocator@D@2@@0@@Z 0000000140007c40 f i datagram.obj
 0001:00006f90       ??$?5DU?$char_traits@D@std@@V?$allocator@D@1@@std@@YAAEAV?$basic_istream@DU?$char_traits@D@std@@@0@AEAV10@AEAV?$basic_string@DU?$char_traits@D@std@@V?$allocator@D@2@@0@@Z 0000000140007f90 f i datagram.obj
 0001:00006fc0       ??$?6U?$char_traits@D@std@@@std@@YAAEAV?$basic_ostream@DU?$char_traits@D@std@@@0@AEAV10@D@Z 0000000140007fc0 f i datagram.obj
 0001:00007350       ??$?6U?$char_traits@D@std@@@std@@YAAEAV?$basic_ostream@DU?$char_traits@D@std@@@0@AEAV10@E@Z 0000000140008350 f i datagram.obj
 0001:00007380       ??$?9DD@std@@YA_NAEBV?$allocator@D@0@0@Z 0000000140008380 f i datagram.obj
 0001:00007390       ??$?HDU?$char_traits@D@std@@V?$allocator@D@1@@std@@YA?AV?$basic_string@DU?$char_traits@D@std@@V?$allocator@D@2@@0@QEBD$$QEAV10@@Z 0000000140008390 f i datagram.obj
 0001:000073f0       ??$_Buy_if_not_node@AEAU?$pair@$$CBHV?$basic_string@DU?$char_traits@D@std@@V?$allocator@D@2@@std@@@std@@@?$_Tree@V?$_Tmap_traits@HV?$basic_string@DU?$char_traits@D@std@@V?$allocator@D@2@@std@@U?$less@H@2@V?$allocator@U?$pair@$$CBHV?$basic_string@DU?$char_traits@D@std@@V?$allocator@D@2@@std@@@std@@@2@$0A@@std@@@std@@IEAAPEAU?$_Tree_node@U?$pair@$$CBHV?$basic_string@DU?$char_traits@D@std@@V?$allocator@D@2@@std@@@std@@PEAX@1@PEAU21@AEAU?$pair@$$CBHV?$basic_string@DU?$char_traits@D@std@@V?$allocator@D@2@@std@@@1@@Z 00000001400083f0 f i datagram.obj
 0001:00007410       ??$_Buynode@AEBUpiecewise_construct_t@std@@V?$tuple@$$QEAH@2@V?$tuple@$$V@2@@?$_Tree_comp_alloc@V?$_Tmap_traits@HV?$basic_string@DU?$char_traits@D@std@@V?$allocator@D@2@@std@@U?$less@H@2@V?$allocator@U?$pair@$$CBHV?$basic_string@DU?$char_traits@D@std@@V?$allocator@D@2@@std@@@std@@@2@$0A@@std@@@std@@QEAAPEAU?$_Tree_node@U?$pair@$$CBHV?$basic_string@DU?$char_traits@D@std@@V?$allocator@D@2@@std@@@std@@PEAX@1@AEBUpiecewise_construct_t@1@$$QEAV?$tuple@$$QEAH@1@$$QEAV?$tuple@$$V@1@@Z 0000000140008410 f i datagram.obj
 0001:000074e0       ??$_Debug_lt_pred@AEAU?$less@H@std@@AEAHAEBH@std@@YA_NAEAU?$less@H@0@AEAHAEBHPEB_WI@Z 00000001400084e0 f i datagram.obj
 0001:000075a0       ??$_Debug_lt_pred@AEAU?$less@H@std@@AEBHAEBH@std@@YA_NAEAU?$less@H@0@AEBH1PEB_WI@Z 00000001400085a0 f i datagram.obj
 0001:00007660       ??$_Debug_lt_pred@AEBU?$less@H@std@@AEBHAEBH@std@@YA_NAEBU?$less@H@0@AEBH1PEB_WI@Z 0000000140008660 f i datagram.obj
 0001:00007720       ??$_Freenode0@V?$allocator@U?$_Tree_node@U?$pair@$$CBHV?$basic_string@DU?$char_traits@D@std@@V?$allocator@D@2@@std@@@std@@PEAX@std@@@std@@@?$_Tree_node@U?$pair@$$CBHV?$basic_string@DU?$char_traits@D@std@@V?$allocator@D@2@@std@@@std@@PEAX@std@@SAXAEAV?$allocator@U?$_Tree_node@U?$pair@$$CBHV?$basic_string@DU?$char_traits@D@std@@V?$allocator@D@2@@std@@@std@@PEAX@std@@@1@PEAU01@@Z 0000000140008720 f i datagram.obj
 0001:000077b0       ??$_Get_size_of_n@$0FA@@std@@YA_K_K@Z 00000001400087b0 f i datagram.obj
 0001:00007800       ??$_Insert_at@AEAU?$pair@$$CBHV?$basic_string@DU?$char_traits@D@std@@V?$allocator@D@2@@std@@@std@@PEAU?$_Tree_node@U?$pair@$$CBHV?$basic_string@DU?$char_traits@D@std@@V?$allocator@D@2@@std@@@std@@PEAX@2@@?$_Tree@V?$_Tmap_traits@HV?$basic_string@DU?$char_traits@D@std@@V?$allocator@D@2@@std@@U?$less@H@2@V?$allocator@U?$pair@$$CBHV?$basic_string@DU?$char_traits@D@std@@V?$allocator@D@2@@std@@@std@@@2@$0A@@std@@@std@@IEAA?AV?$_Tree_iterator@V?$_Tree_val@U?$_Tree_simple_types@U?$pair@$$CBHV?$basic_string@DU?$char_traits@D@std@@V?$allocator@D@2@@std@@@std@@@std@@@std@@@1@_NPEAU?$_Tree_node@U?$pair@$$CBHV?$basic_string@DU?$char_traits@D@std@@V?$allocator@D@2@@std@@@std@@PEAX@1@AEAU?$pair@$$CBHV?$basic_string@DU?$char_traits@D@std@@V?$allocator@D@2@@std@@@1@1@Z 0000000140008800 f i datagram.obj
 0001:00007b70       ??$_Insert_hint@AEAU?$pair@$$CBHV?$basic_string@DU?$char_traits@D@std@@V?$allocator@D@2@@std@@@std@@PEAU?$_Tree_node@U?$pair@$$CBHV?$basic_string@DU?$char_traits@D@std@@V?$allocator@D@2@@std@@@std@@PEAX@2@@?$_Tree@V?$_Tmap_traits@HV?$basic_string@DU?$char_traits@D@std@@V?$allocator@D@2@@std@@U?$less@H@2@V?$allocator@U?$pair@$$CBHV?$basic_string@DU?$char_traits@D@std@@V?$allocator@D@2@@std@@@std@@@2@$0A@@std@@@std@@IEAA?AV?$_Tree_iterator@V?$_Tree_val@U?$_Tree_simple_types@U?$pair@$$CBHV?$basic_string@DU?$char_traits@D@std@@V?$allocator@D@2@@std@@@std@@@std@@@std@@@1@V?$_Tree_const_iterator@V?$_Tree_val@U?$_Tree_simple_types@U?$pair@$$CBHV?$basic_string@DU?$char_traits@D@std@@V?$allocator@D@2@@std@@@std@@@std@@@std@@@1@AEAU?$pair@$$CBHV?$basic_string@DU?$char_traits@D@std@@V?$allocator@D@2@@std@@@1@PEAU?$_Tree_node@U?$pair@$$CBHV?$basic_string@DU?$char_traits@D@std@@V?$allocator@D@2@@std@@@std@@PEAX@1@@Z 0000000140008b70 f i datagram.obj
 0001:00008ce0       ??$_Insert_nohint@AEAU?$pair@$$CBHV?$basic_string@DU?$char_traits@D@std@@V?$allocator@D@2@@std@@@std@@PEAU?$_Tree_node@U?$pair@$$CBHV?$basic_string@DU?$char_traits@D@std@@V?$allocator@D@2@@std@@@std@@PEAX@2@@?$_Tree@V?$_Tmap_traits@HV?$basic_string@DU?$char_traits@D@std@@V?$allocator@D@2@@std@@U?$less@H@2@V?$allocator@U?$pair@$$CBHV?$basic_string@DU?$char_traits@D@std@@V?$allocator@D@2@@std@@@std@@@2@$0A@@std@@@std@@IEAA?AU?$pair@V?$_Tree_iterator@V?$_Tree_val@U?$_Tree_simple_types@U?$pair@$$CBHV?$basic_string@DU?$char_traits@D@std@@V?$allocator@D@2@@std@@@std@@@std@@@std@@@std@@_N@1@_NAEAU?$pair@$$CBHV?$basic_string@DU?$char_traits@D@std@@V?$allocator@D@2@@std@@@1@PEAU?$_Tree_node@U?$pair@$$CBHV?$basic_string@DU?$char_traits@D@std@@V?$allocator@D@2@@std@@@std@@PEAX@1@@Z 0000000140009ce0 f i datagram.obj
 0001:00009200       ??$_Kfn@$$CBHV?$basic_string@DU?$char_traits@D@std@@V?$allocator@D@2@@std@@@?$_Tmap_traits@HV?$basic_string@DU?$char_traits@D@std@@V?$allocator@D@2@@std@@U?$less@H@2@V?$allocator@U?$pair@$$CBHV?$basic_string@DU?$char_traits@D@std@@V?$allocator@D@2@@std@@@std@@@2@$0A@@std@@SAAEBHAEBU?$pair@$$CBHV?$basic_string@DU?$char_traits@D@std@@V?$allocator@D@2@@std@@@1@@Z 000000014000a200 f i datagram.obj
 0001:00009210       ??$_Lbound@H@?$_Tree@V?$_Tmap_traits@HV?$basic_string@DU?$char_traits@D@std@@V?$allocator@D@2@@std@@U?$less@H@2@V?$allocator@U?$pair@$$CBHV?$basic_string@DU?$char_traits@D@std@@V?$allocator@D@2@@std@@@std@@@2@$0A@@std@@@std@@IEBAPEAU?$_Tree_node@U?$pair@$$CBHV?$basic_string@DU?$char_traits@D@std@@V?$allocator@D@2@@std@@@std@@PEAX@1@AEBH@Z 000000014000a210 f i datagram.obj
 0001:000092b0       ??$_Pocma@V?$allocator@D@std@@@std@@YAXAEAV?$allocator@D@0@0@Z 000000014000a2b0 f i datagram.obj
 0001:000092e0       ??$_Pocma@V?$allocator@D@std@@@std@@YAXAEAV?$allocator@D@0@0U?$integral_constant@_N$00@0@@Z 000000014000a2e0 f i datagram.obj
 0001:00009850       ??$_Try_emplace@H$$V@?$map@HV?$basic_string@DU?$char_traits@D@std@@V?$allocator@D@2@@std@@U?$less@H@2@V?$allocator@U?$pair@$$CBHV?$basic_string@DU?$char_traits@D@std@@V?$allocator@D@2@@std@@@std@@@2@@std@@QEAA?AU?$pair@V?$_Tree_iterator@V?$_Tree_val@U?$_Tree_simple_types@U?$pair@$$CBHV?$basic_string@DU?$char_traits@D@std@@V?$allocator@D@2@@std@@@std@@@std@@@std@@@std@@_N@1@$$QEAH@Z 000000014000a850 f i datagram.obj
 0001:00009ab0       ??$addressof@$$CBU?$pair@$$CBHV?$basic_string@DU?$char_traits@D@std@@V?$allocator@D@2@@std@@@std@@@std@@YAPEBU?$pair@$$CBHV?$basic_string@DU?$char_traits@D@std@@V?$allocator@D@2@@std@@@0@AEBU10@@Z 000000014000aab0 f i datagram.obj
 0001:00009ac0       ??$addressof@$$CBV?$_Tree_val@U?$_Tree_simple_types@U?$pair@$$CBHV?$basic_string@DU?$char_traits@D@std@@V?$allocator@D@2@@std@@@std@@@std@@@std@@@std@@YAPEBV?$_Tree_val@U?$_Tree_simple_types@U?$pair@$$CBHV?$basic_string@DU?$char_traits@D@std@@V?$allocator@D@2@@std@@@std@@@std@@@0@AEBV10@@Z 000000014000aac0 f i datagram.obj
 0001:00009ad0       ??$addressof@D@std@@YAPEADAEAD@Z 000000014000aad0 f i datagram.obj
 0001:00009ae0       ??$addressof@PEAU?$_Tree_node@U?$pair@$$CBHV?$basic_string@DU?$char_traits@D@std@@V?$allocator@D@2@@std@@@std@@PEAX@std@@@std@@YAPEAPEAU?$_Tree_node@U?$pair@$$CBHV?$basic_string@DU?$char_traits@D@std@@V?$allocator@D@2@@std@@@std@@PEAX@0@AEAPEAU10@@Z 000000014000aae0 f i datagram.obj
 0001:00009af0       ??$addressof@U?$pair@$$CBHV?$basic_string@DU?$char_traits@D@std@@V?$allocator@D@2@@std@@@std@@@std@@YAPEAU?$pair@$$CBHV?$basic_string@DU?$char_traits@D@std@@V?$allocator@D@2@@std@@@0@AEAU10@@Z 000000014000aaf0 f i datagram.obj
 0001:00009b00       ??$addressof@V?$_Tree_val@U?$_Tree_simple_types@U?$pair@$$CBHV?$basic_string@DU?$char_traits@D@std@@V?$allocator@D@2@@std@@@std@@@std@@@std@@@std@@YAPEAV?$_Tree_val@U?$_Tree_simple_types@U?$pair@$$CBHV?$basic_string@DU?$char_traits@D@std@@V?$allocator@D@2@@std@@@std@@@std@@@0@AEAV10@@Z 000000014000ab00 f i datagram.obj
 0001:00009b10       ??$addressof@V?$basic_string@DU?$char_traits@D@std@@V?$allocator@D@2@@std@@@std@@YAPEAV?$basic_string@DU?$char_traits@D@std@@V?$allocator@D@2@@0@AEAV10@@Z 000000014000ab10 f i datagram.obj
 0001:00009b20       ??$construct@PEAU?$_Tree_node@U?$pair@$$CBHV?$basic_string@DU?$char_traits@D@std@@V?$allocator@D@2@@std@@@std@@PEAX@std@@AEAPEAU12@@?$_Default_allocator_traits@V?$allocator@U?$_Tree_node@U?$pair@$$CBHV?$basic_string@DU?$char_traits@D@std@@V?$allocator@D@2@@std@@@std@@PEAX@std@@@std@@@std@@SAXAEAV?$allocator@U?$_Tree_node@U?$pair@$$CBHV?$basic_string@DU?$char_traits@D@std@@V?$allocator@D@2@@std@@@std@@PEAX@std@@@1@QEAPEAU?$_Tree_node@U?$pair@$$CBHV?$basic_string@DU?$char_traits@D@std@@V?$allocator@D@2@@std@@@std@@PEAX@1@AEAPEAU31@@Z 000000014000ab20 f i datagram.obj
 0001:00009b70       ??$construct@U?$pair@$$CBHV?$basic_string@DU?$char_traits@D@std@@V?$allocator@D@2@@std@@@std@@AEBUpiecewise_construct_t@2@V?$tuple@$$QEAH@2@V?$tuple@$$V@2@@?$_Default_allocator_traits@V?$allocator@U?$_Tree_node@U?$pair@$$CBHV?$basic_string@DU?$char_traits@D@std@@V?$allocator@D@2@@std@@@std@@PEAX@std@@@std@@@std@@SAXAEAV?$allocator@U?$_Tree_node@U?$pair@$$CBHV?$basic_string@DU?$char_traits@D@std@@V?$allocator@D@2@@std@@@std@@PEAX@std@@@1@QEAU?$pair@$$CBHV?$basic_string@DU?$char_traits@D@std@@V?$allocator@D@2@@std@@@1@AEBUpiecewise_construct_t@1@$$QEAV?$tuple@$$QEAH@1@$$QEAV?$tuple@$$V@1@@Z 000000014000ab70 f i datagram.obj
 0001:00009c20       ??$destroy@PEAU?$_Tree_node@U?$pair@$$CBHV?$basic_string@DU?$char_traits@D@std@@V?$allocator@D@2@@std@@@std@@PEAX@std@@@?$_Default_allocator_traits@V?$allocator@U?$_Tree_node@U?$pair@$$CBHV?$basic_string@DU?$char_traits@D@std@@V?$allocator@D@2@@std@@@std@@PEAX@std@@@std@@@std@@SAXAEAV?$allocator@U?$_Tree_node@U?$pair@$$CBHV?$basic_string@DU?$char_traits@D@std@@V?$allocator@D@2@@std@@@std@@PEAX@std@@@1@QEAPEAU?$_Tree_node@U?$pair@$$CBHV?$basic_string@DU?$char_traits@D@std@@V?$allocator@D@2@@std@@@std@@PEAX@1@@Z 000000014000ac20 f i datagram.obj
 0001:00009c30       ??$destroy@U?$pair@$$CBHV?$basic_string@DU?$char_traits@D@std@@V?$allocator@D@2@@std@@@std@@@?$_Default_allocator_traits@V?$allocator@U?$_Tree_node@U?$pair@$$CBHV?$basic_string@DU?$char_traits@D@std@@V?$allocator@D@2@@std@@@std@@PEAX@std@@@std@@@std@@SAXAEAV?$allocator@U?$_Tree_node@U?$pair@$$CBHV?$basic_string@DU?$char_traits@D@std@@V?$allocator@D@2@@std@@@std@@PEAX@std@@@1@QEAU?$pair@$$CBHV?$basic_string@DU?$char_traits@D@std@@V?$allocator@D@2@@std@@@1@@Z 000000014000ac30 f i datagram.obj
 0001:00009c50       ??$emplace_hint@AEBUpiecewise_construct_t@std@@V?$tuple@$$QEAH@2@V?$tuple@$$V@2@@?$_Tree@V?$_Tmap_traits@HV?$basic_string@DU?$char_traits@D@std@@V?$allocator@D@2@@std@@U?$less@H@2@V?$allocator@U?$pair@$$CBHV?$basic_string@DU?$char_traits@D@std@@V?$allocator@D@2@@std@@@std@@@2@$0A@@std@@@std@@QEAA?AV?$_Tree_iterator@V?$_Tree_val@U?$_Tree_simple_types@U?$pair@$$CBHV?$basic_string@DU?$char_traits@D@std@@V?$allocator@D@2@@std@@@std@@@std@@@std@@@1@V?$_Tree_const_iterator@V?$_Tree_val@U?$_Tree_simple_types@U?$pair@$$CBHV?$basic_string@DU?$char_traits@D@std@@V?$allocator@D@2@@std@@@std@@@std@@@std@@@1@AEBUpiecewise_construct_t@1@$$QEAV?$tuple@$$QEAH@1@$$QEAV?$tuple@$$V@1@@Z 000000014000ac50 f i datagram.obj
 0001:00009d60       ??$forward@$$QEAH@std@@YA$$QEAHAEAH@Z 000000014000ad60 f i datagram.obj
 0001:00009d70       ??$forward@AEAPEAU?$_Tree_node@U?$pair@$$CBHV?$basic_string@DU?$char_traits@D@std@@V?$allocator@D@2@@std@@@std@@PEAX@std@@@std@@YAAEAPEAU?$_Tree_node@U?$pair@$$CBHV?$basic_string@DU?$char_traits@D@std@@V?$allocator@D@2@@std@@@std@@PEAX@0@AEAPEAU10@@Z 000000014000ad70 f i datagram.obj
 0001:00009d80       ??$forward@AEAPEAV_Facet_base@std@@@std@@YAAEAPEAV_Facet_base@0@AEAPEAV10@@Z 000000014000ad80 f i datagram.obj
 0001:00009d90       ??$forward@AEAU?$pair@$$CBHV?$basic_string@DU?$char_traits@D@std@@V?$allocator@D@2@@std@@@std@@@std@@YAAEAU?$pair@$$CBHV?$basic_string@DU?$char_traits@D@std@@V?$allocator@D@2@@std@@@0@AEAU10@@Z 000000014000ad90 f i datagram.obj
 0001:00009da0       ??$forward@AEAV?$_Tree_iterator@V?$_Tree_val@U?$_Tree_simple_types@U?$pair@$$CBHV?$basic_string@DU?$char_traits@D@std@@V?$allocator@D@2@@std@@@std@@@std@@@std@@@std@@@std@@YAAEAV?$_Tree_iterator@V?$_Tree_val@U?$_Tree_simple_types@U?$pair@$$CBHV?$basic_string@DU?$char_traits@D@std@@V?$allocator@D@2@@std@@@std@@@std@@@std@@@0@AEAV10@@Z 000000014000ada0 f i datagram.obj
 0001:00009db0       ??$forward@AEBU?$less@H@std@@@std@@YAAEBU?$less@H@0@AEBU10@@Z 000000014000adb0 f i datagram.obj
 0001:00009dc0       ??$forward@AEBUpiecewise_construct_t@std@@@std@@YAAEBUpiecewise_construct_t@0@AEBU10@@Z 000000014000adc0 f i datagram.obj
 0001:00009dd0       ??$forward@AEBV?$allocator@D@std@@@std@@YAAEBV?$allocator@D@0@AEBV10@@Z 000000014000add0 f i datagram.obj
 0001:00009de0       ??$forward@H@std@@YA$$QEAHAEAH@Z 000000014000ade0 f i datagram.obj
 0001:00009df0       ??$forward@U_Zero_then_variadic_args_t@std@@@std@@YA$$QEAU_Zero_then_variadic_args_t@0@AEAU10@@Z 000000014000adf0 f i datagram.obj
 0001:00009e00       ??$forward@V?$_Tree_iterator@V?$_Tree_val@U?$_Tree_simple_types@U?$pair@$$CBHV?$basic_string@DU?$char_traits@D@std@@V?$allocator@D@2@@std@@@std@@@std@@@std@@@std@@@std@@YA$$QEAV?$_Tree_iterator@V?$_Tree_val@U?$_Tree_simple_types@U?$pair@$$CBHV?$basic_string@DU?$char_traits@D@std@@V?$allocator@D@2@@std@@@std@@@std@@@std@@@0@AEAV10@@Z 000000014000ae00 f i datagram.obj
 0001:00009e10       ??$forward@V?$allocator@D@std@@@std@@YA$$QEAV?$allocator@D@0@AEAV10@@Z 000000014000ae10 f i datagram.obj
 0001:00009e20       ??$forward@V?$tuple@$$QEAH@std@@@std@@YA$$QEAV?$tuple@$$QEAH@0@AEAV10@@Z 000000014000ae20 f i datagram.obj
 0001:00009e30       ??$forward@V?$tuple@$$V@std@@@std@@YA$$QEAV?$tuple@$$V@0@AEAV10@@Z 000000014000ae30 f i datagram.obj
 0001:00009e40       ??$forward@_N@std@@YA$$QEA_NAEA_N@Z 000000014000ae40 f i datagram.obj
 0001:00009e50       ??$forward_as_tuple@$$V@std@@YA?AV?$tuple@$$V@0@XZ 000000014000ae50 f i datagram.obj
 0001:00009e70       ??$forward_as_tuple@H@std@@YA?AV?$tuple@$$QEAH@0@$$QEAH@Z 000000014000ae70 f i datagram.obj
 0001:00009eb0       ??$get@$0A@$$QEAH@std@@YA$$QEAH$$QEAV?$tuple@$$QEAH@0@@Z 000000014000aeb0 f i datagram.obj
 0001:00009ed0       ??$move@AEAD@std@@YA$$QEADAEAD@Z 000000014000aed0 f i datagram.obj
 0001:00009ee0       ??$move@AEAH@std@@YA$$QEAHAEAH@Z 000000014000aee0 f i datagram.obj
 0001:00009ef0       ??$move@AEAV?$allocator@D@std@@@std@@YA$$QEAV?$allocator@D@0@AEAV10@@Z 000000014000aef0 f i datagram.obj
 0001:00009f00       ??$move@AEAV?$basic_istream@DU?$char_traits@D@std@@@std@@@std@@YA$$QEAV?$basic_istream@DU?$char_traits@D@std@@@0@AEAV10@@Z 000000014000af00 f i datagram.obj
 0001:00009f10       ??$move@AEAV?$basic_string@DU?$char_traits@D@std@@V?$allocator@D@2@@std@@@std@@YA$$QEAV?$basic_string@DU?$char_traits@D@std@@V?$allocator@D@2@@0@AEAV10@@Z 000000014000af10 f i datagram.obj
 0001:00009f20       ??$move@AEAV?$tuple@$$QEAH@std@@@std@@YA$$QEAV?$tuple@$$QEAH@0@AEAV10@@Z 000000014000af20 f i datagram.obj
 0001:00009f30       ??$swap@DX@std@@YAXAEAD0@Z 000000014000af30 f i datagram.obj
 0001:00009f80       ??$try_emplace@$$V@?$map@HV?$basic_string@DU?$char_traits@D@std@@V?$allocator@D@2@@std@@U?$less@H@2@V?$allocator@U?$pair@$$CBHV?$basic_string@DU?$char_traits@D@std@@V?$allocator@D@2@@std@@@std@@@2@@std@@QEAA?AU?$pair@V?$_Tree_iterator@V?$_Tree_val@U?$_Tree_simple_types@U?$pair@$$CBHV?$basic_string@DU?$char_traits@D@std@@V?$allocator@D@2@@std@@@std@@@std@@@std@@@std@@_N@1@$$QEAH@Z 000000014000af80 f i datagram.obj
 0001:00009fd0       ??$use_facet@V?$ctype@D@std@@@std@@YAAEBV?$ctype@D@0@AEBVlocale@0@@Z 000000014000afd0 f i datagram.obj
 0001:0000a110       ??0?$_Tree@V?$_Tmap_traits@HV?$basic_string@DU?$char_traits@D@std@@V?$allocator@D@2@@std@@U?$less@H@2@V?$allocator@U?$pair@$$CBHV?$basic_string@DU?$char_traits@D@std@@V?$allocator@D@2@@std@@@std@@@2@$0A@@std@@@std@@QEAA@AEBU?$less@H@1@@Z 000000014000b110 f i datagram.obj
 0001:0000a140       ??0?$_Tree_comp_alloc@V?$_Tmap_traits@HV?$basic_string@DU?$char_traits@D@std@@V?$allocator@D@2@@std@@U?$less@H@2@V?$allocator@U?$pair@$$CBHV?$basic_string@DU?$char_traits@D@std@@V?$allocator@D@2@@std@@@std@@@2@$0A@@std@@@std@@QEAA@AEBU?$less@H@1@@Z 000000014000b140 f i datagram.obj
 0001:0000a180       ??0?$_Tree_const_iterator@V?$_Tree_val@U?$_Tree_simple_types@U?$pair@$$CBHV?$basic_string@DU?$char_traits@D@std@@V?$allocator@D@2@@std@@@std@@@std@@@std@@@std@@QEAA@$$QEAV01@@Z 000000014000b180 f i datagram.obj
 0001:0000a1b0       ??0?$_Tree_const_iterator@V?$_Tree_val@U?$_Tree_simple_types@U?$pair@$$CBHV?$basic_string@DU?$char_traits@D@std@@V?$allocator@D@2@@std@@@std@@@std@@@std@@@std@@QEAA@AEBV01@@Z 000000014000b1b0 f i datagram.obj
 0001:0000a1e0       ??0?$_Tree_const_iterator@V?$_Tree_val@U?$_Tree_simple_types@U?$pair@$$CBHV?$basic_string@DU?$char_traits@D@std@@V?$allocator@D@2@@std@@@std@@@std@@@std@@@std@@QEAA@PEAU?$_Tree_node@U?$pair@$$CBHV?$basic_string@DU?$char_traits@D@std@@V?$allocator@D@2@@std@@@std@@PEAX@1@PEBV?$_Tree_val@U?$_Tree_simple_types@U?$pair@$$CBHV?$basic_string@DU?$char_traits@D@std@@V?$allocator@D@2@@std@@@std@@@std@@@1@@Z 000000014000b1e0 f i datagram.obj
 0001:0000a220       ??0?$_Tree_const_iterator@V?$_Tree_val@U?$_Tree_simple_types@U?$pair@$$CBHV?$basic_string@DU?$char_traits@D@std@@V?$allocator@D@2@@std@@@std@@@std@@@std@@@std@@QEAA@XZ 000000014000b220 f i datagram.obj
 0001:0000a240       ??0?$_Tree_iterator@V?$_Tree_val@U?$_Tree_simple_types@U?$pair@$$CBHV?$basic_string@DU?$char_traits@D@std@@V?$allocator@D@2@@std@@@std@@@std@@@std@@@std@@QEAA@$$QEAV01@@Z 000000014000b240 f i datagram.obj
 0001:0000a270       ??0?$_Tree_iterator@V?$_Tree_val@U?$_Tree_simple_types@U?$pair@$$CBHV?$basic_string@DU?$char_traits@D@std@@V?$allocator@D@2@@std@@@std@@@std@@@std@@@std@@QEAA@AEBV01@@Z 000000014000b270 f i datagram.obj
 0001:0000a2a0       ??0?$_Tree_iterator@V?$_Tree_val@U?$_Tree_simple_types@U?$pair@$$CBHV?$basic_string@DU?$char_traits@D@std@@V?$allocator@D@2@@std@@@std@@@std@@@std@@@std@@QEAA@PEAU?$_Tree_node@U?$pair@$$CBHV?$basic_string@DU?$char_traits@D@std@@V?$allocator@D@2@@std@@@std@@PEAX@1@PEBV?$_Tree_val@U?$_Tree_simple_types@U?$pair@$$CBHV?$basic_string@DU?$char_traits@D@std@@V?$allocator@D@2@@std@@@std@@@std@@@1@@Z 000000014000b2a0 f i datagram.obj
 0001:0000a2e0       ??0?$_Tree_unchecked_const_iterator@V?$_Tree_val@U?$_Tree_simple_types@U?$pair@$$CBHV?$basic_string@DU?$char_traits@D@std@@V?$allocator@D@2@@std@@@std@@@std@@@std@@U_Iterator_base12@2@@std@@QEAA@$$QEAV01@@Z 000000014000b2e0 f i datagram.obj
 0001:0000a320       ??0?$_Tree_unchecked_const_iterator@V?$_Tree_val@U?$_Tree_simple_types@U?$pair@$$CBHV?$basic_string@DU?$char_traits@D@std@@V?$allocator@D@2@@std@@@std@@@std@@@std@@U_Iterator_base12@2@@std@@QEAA@AEBV01@@Z 000000014000b320 f i datagram.obj
 0001:0000a360       ??0?$_Tree_unchecked_const_iterator@V?$_Tree_val@U?$_Tree_simple_types@U?$pair@$$CBHV?$basic_string@DU?$char_traits@D@std@@V?$allocator@D@2@@std@@@std@@@std@@@std@@U_Iterator_base12@2@@std@@QEAA@PEAU?$_Tree_node@U?$pair@$$CBHV?$basic_string@DU?$char_traits@D@std@@V?$allocator@D@2@@std@@@std@@PEAX@1@PEBV?$_Tree_val@U?$_Tree_simple_types@U?$pair@$$CBHV?$basic_string@DU?$char_traits@D@std@@V?$allocator@D@2@@std@@@std@@@std@@@1@@Z 000000014000b360 f i datagram.obj
 0001:0000a3b0       ??0?$_Tree_unchecked_const_iterator@V?$_Tree_val@U?$_Tree_simple_types@U?$pair@$$CBHV?$basic_string@DU?$char_traits@D@std@@V?$allocator@D@2@@std@@@std@@@std@@@std@@U_Iterator_base12@2@@std@@QEAA@XZ 000000014000b3b0 f i datagram.obj
 0001:0000a3e0       ??0?$_Tree_val@U?$_Tree_simple_types@U?$pair@$$CBHV?$basic_string@DU?$char_traits@D@std@@V?$allocator@D@2@@std@@@std@@@std@@@std@@QEAA@XZ 000000014000b3e0 f i datagram.obj
 0001:0000a420       ??0?$allocator@U?$_Tree_node@U?$pair@$$CBHV?$basic_string@DU?$char_traits@D@std@@V?$allocator@D@2@@std@@@std@@PEAX@std@@@std@@QEAA@XZ 000000014000b420 f i datagram.obj
 0001:0000a430       ??0?$basic_string@DU?$char_traits@D@std@@V?$allocator@D@2@@std@@QEAA@$$QEAV01@@Z 000000014000b430 f i datagram.obj
 0001:0000a4b0       ??0?$basic_string@DU?$char_traits@D@std@@V?$allocator@D@2@@std@@QEAA@AEBV01@@Z 000000014000b4b0 f i datagram.obj
 0001:0000a510       ??0?$basic_string@DU?$char_traits@D@std@@V?$allocator@D@2@@std@@QEAA@AEBV01@_K1AEBV?$allocator@D@1@@Z 000000014000b510 f i datagram.obj
 0001:0000a570       ??0?$basic_string@DU?$char_traits@D@std@@V?$allocator@D@2@@std@@QEAA@QEBD_K@Z 000000014000b570 f i datagram.obj
 0001:0000a5c0       ??0?$basic_stringbuf@DU?$char_traits@D@std@@V?$allocator@D@2@@std@@QEAA@H@Z 000000014000b5c0 f i datagram.obj
 0001:0000a630       ??0?$basic_stringstream@DU?$char_traits@D@std@@V?$allocator@D@2@@std@@QEAA@H@Z 000000014000b630 f i datagram.obj
 0001:0000a720       ??0?$fpos@U_Mbstatet@@@std@@QEAA@_J@Z 000000014000b720 f i datagram.obj
 0001:0000a770       ??0?$map@HV?$basic_string@DU?$char_traits@D@std@@V?$allocator@D@2@@std@@U?$less@H@2@V?$allocator@U?$pair@$$CBHV?$basic_string@DU?$char_traits@D@std@@V?$allocator@D@2@@std@@@std@@@2@@std@@QEAA@XZ 000000014000b770 f i datagram.obj
 0001:0000a7a0       ??0?$tuple@$$QEAH@std@@QEAA@$$QEAV01@@Z 000000014000b7a0 f i datagram.obj
 0001:0000a7e0       ??0?$tuple@$$V@std@@QEAA@AEBV01@@Z 000000014000b7e0 f i datagram.obj
 0001:0000a7f0       ??0?$tuple@$$V@std@@QEAA@XZ 000000014000b7f0 f i datagram.obj
 0001:0000a800       ??0_Iterator_base12@std@@QEAA@AEBU01@@Z 000000014000b800 f i datagram.obj
 0001:0000a840       ??0_Iterator_base12@std@@QEAA@XZ 000000014000b840 f i datagram.obj
 0001:0000a870       ??0_Sentry_base@?$basic_istream@DU?$char_traits@D@std@@@std@@QEAA@AEAV12@@Z 000000014000b870 f i datagram.obj
 0001:0000a910       ??0_Sentry_base@?$basic_ostream@DU?$char_traits@D@std@@@std@@QEAA@AEAV12@@Z 000000014000b910 f i datagram.obj
 0001:0000a9b0       ??0bad_cast@std@@QEAA@AEBV01@@Z 000000014000b9b0 f i datagram.obj
 0001:0000a9f0       ??0bad_cast@std@@QEAA@XZ   000000014000b9f0 f i datagram.obj
 0001:0000aa30       ??0exception@std@@QEAA@QEBDH@Z 000000014000ba30 f i datagram.obj
 0001:0000aa80       ??0sentry@?$basic_istream@DU?$char_traits@D@std@@@std@@QEAA@AEAV12@_N@Z 000000014000ba80 f i datagram.obj
 0001:0000aae0       ??0sentry@?$basic_ostream@DU?$char_traits@D@std@@@std@@QEAA@AEAV12@@Z 000000014000bae0 f i datagram.obj
 0001:0000abe0       ??1?$_Tree@V?$_Tmap_traits@HV?$basic_string@DU?$char_traits@D@std@@V?$allocator@D@2@@std@@U?$less@H@2@V?$allocator@U?$pair@$$CBHV?$basic_string@DU?$char_traits@D@std@@V?$allocator@D@2@@std@@@std@@@2@$0A@@std@@@std@@QEAA@XZ 000000014000bbe0 f i datagram.obj
 0001:0000ac10       ??1?$_Tree_comp_alloc@V?$_Tmap_traits@HV?$basic_string@DU?$char_traits@D@std@@V?$allocator@D@2@@std@@U?$less@H@2@V?$allocator@U?$pair@$$CBHV?$basic_string@DU?$char_traits@D@std@@V?$allocator@D@2@@std@@@std@@@2@$0A@@std@@@std@@QEAA@XZ 000000014000bc10 f i datagram.obj
 0001:0000ac50       ??1?$_Tree_const_iterator@V?$_Tree_val@U?$_Tree_simple_types@U?$pair@$$CBHV?$basic_string@DU?$char_traits@D@std@@V?$allocator@D@2@@std@@@std@@@std@@@std@@@std@@QEAA@XZ 000000014000bc50 f i datagram.obj
 0001:0000ac70       ??1?$_Tree_iterator@V?$_Tree_val@U?$_Tree_simple_types@U?$pair@$$CBHV?$basic_string@DU?$char_traits@D@std@@V?$allocator@D@2@@std@@@std@@@std@@@std@@@std@@QEAA@XZ 000000014000bc70 f i datagram.obj
 0001:0000ac90       ??1?$_Tree_unchecked_const_iterator@V?$_Tree_val@U?$_Tree_simple_types@U?$pair@$$CBHV?$basic_string@DU?$char_traits@D@std@@V?$allocator@D@2@@std@@@std@@@std@@@std@@U_Iterator_base12@2@@std@@QEAA@XZ 000000014000bc90 f i datagram.obj
 0001:0000acb0       ??1?$basic_stringbuf@DU?$char_traits@D@std@@V?$allocator@D@2@@std@@UEAA@XZ 000000014000bcb0 f i datagram.obj
 0001:0000acf0       ??1?$basic_stringstream@DU?$char_traits@D@std@@V?$allocator@D@2@@std@@UEAA@XZ 000000014000bcf0 f i datagram.obj
 0001:0000ad80       ??1?$map@HV?$basic_string@DU?$char_traits@D@std@@V?$allocator@D@2@@std@@U?$less@H@2@V?$allocator@U?$pair@$$CBHV?$basic_string@DU?$char_traits@D@std@@V?$allocator@D@2@@std@@@std@@@2@@std@@QEAA@XZ 000000014000bd80 f i datagram.obj
 0001:0000ada0       ??1?$pair@$$CBHV?$basic_string@DU?$char_traits@D@std@@V?$allocator@D@2@@std@@@std@@QEAA@XZ 000000014000bda0 f i datagram.obj
 0001:0000adc0       ??1?$pair@V?$_Tree_iterator@V?$_Tree_val@U?$_Tree_simple_types@U?$pair@$$CBHV?$basic_string@DU?$char_traits@D@std@@V?$allocator@D@2@@std@@@std@@@std@@@std@@@std@@_N@std@@QEAA@XZ 000000014000bdc0 f i datagram.obj
 0001:0000ade0       ??1?$unique_ptr@V_Facet_base@std@@U?$default_delete@V_Facet_base@std@@@2@@std@@QEAA@XZ 000000014000bde0 f i datagram.obj
 0001:0000ae30       ??1_Iterator_base12@std@@QEAA@XZ 000000014000be30 f i datagram.obj
 0001:0000ae70       ??1_Sentry_base@?$basic_istream@DU?$char_traits@D@std@@@std@@QEAA@XZ 000000014000be70 f i datagram.obj
 0001:0000af00       ??1_Sentry_base@?$basic_ostream@DU?$char_traits@D@std@@@std@@QEAA@XZ 000000014000bf00 f i datagram.obj
 0001:0000af90       ??1bad_cast@std@@UEAA@XZ   000000014000bf90 f i datagram.obj
 0001:0000afb0       ??1locale@std@@QEAA@XZ     000000014000bfb0 f i datagram.obj
 0001:0000b030       ??1sentry@?$basic_istream@DU?$char_traits@D@std@@@std@@QEAA@XZ 000000014000c030 f i datagram.obj
 0001:0000b050       ??1sentry@?$basic_ostream@DU?$char_traits@D@std@@@std@@QEAA@XZ 000000014000c050 f i datagram.obj
 0001:0000b090       ??4?$_Tree_const_iterator@V?$_Tree_val@U?$_Tree_simple_types@U?$pair@$$CBHV?$basic_string@DU?$char_traits@D@std@@V?$allocator@D@2@@std@@@std@@@std@@@std@@@std@@QEAAAEAV01@AEBV01@@Z 000000014000c090 f i datagram.obj
 0001:0000b0c0       ??4?$_Tree_unchecked_const_iterator@V?$_Tree_val@U?$_Tree_simple_types@U?$pair@$$CBHV?$basic_string@DU?$char_traits@D@std@@V?$allocator@D@2@@std@@@std@@@std@@@std@@U_Iterator_base12@2@@std@@QEAAAEAV01@AEBV01@@Z 000000014000c0c0 f i datagram.obj
 0001:0000b100       ??4?$basic_string@DU?$char_traits@D@std@@V?$allocator@D@2@@std@@QEAAAEAV01@$$QEAV01@@Z 000000014000c100 f i datagram.obj
 0001:0000b190       ??4?$basic_string@DU?$char_traits@D@std@@V?$allocator@D@2@@std@@QEAAAEAV01@QEBD@Z 000000014000c190 f i datagram.obj
 0001:0000b1c0       ??4_Iterator_base12@std@@QEAAAEAU01@AEBU01@@Z 000000014000c1c0 f i datagram.obj
 0001:0000b240       ??8?$_Tree_const_iterator@V?$_Tree_val@U?$_Tree_simple_types@U?$pair@$$CBHV?$basic_string@DU?$char_traits@D@std@@V?$allocator@D@2@@std@@@std@@@std@@@std@@@std@@QEBA_NAEBV01@@Z 000000014000c240 f i datagram.obj
 0001:0000b2f0       ??9?$_Tree_const_iterator@V?$_Tree_val@U?$_Tree_simple_types@U?$pair@$$CBHV?$basic_string@DU?$char_traits@D@std@@V?$allocator@D@2@@std@@@std@@@std@@@std@@@std@@QEBA_NAEBV01@@Z 000000014000c2f0 f i datagram.obj
 0001:0000b330       ??A?$XsArrayImpl@E$1?g_xsByteArrayDescriptor@@3UXsArrayDescriptor@@BUXsByteArray@@@@QEBAAEAE_K@Z 000000014000c330 f i datagram.obj
 0001:0000b360       ??A?$map@HV?$basic_string@DU?$char_traits@D@std@@V?$allocator@D@2@@std@@U?$less@H@2@V?$allocator@U?$pair@$$CBHV?$basic_string@DU?$char_traits@D@std@@V?$allocator@D@2@@std@@@std@@@2@@std@@QEAAAEAV?$basic_string@DU?$char_traits@D@std@@V?$allocator@D@2@@1@$$QEAH@Z 000000014000c360 f i datagram.obj
 0001:0000b3d0       ??B?$fpos@U_Mbstatet@@@std@@QEBA_JXZ 000000014000c3d0 f i datagram.obj
 0001:0000b3f0       ??Bsentry@?$basic_istream@DU?$char_traits@D@std@@@std@@QEBA_NXZ 000000014000c3f0 f i datagram.obj
 0001:0000b400       ??Bsentry@?$basic_ostream@DU?$char_traits@D@std@@@std@@QEBA_NXZ 000000014000c400 f i datagram.obj
 0001:0000b410       ??C?$_Tree_const_iterator@V?$_Tree_val@U?$_Tree_simple_types@U?$pair@$$CBHV?$basic_string@DU?$char_traits@D@std@@V?$allocator@D@2@@std@@@std@@@std@@@std@@@std@@QEBAPEBU?$pair@$$CBHV?$basic_string@DU?$char_traits@D@std@@V?$allocator@D@2@@std@@@1@XZ 000000014000c410 f i datagram.obj
 0001:0000b430       ??C?$_Tree_iterator@V?$_Tree_val@U?$_Tree_simple_types@U?$pair@$$CBHV?$basic_string@DU?$char_traits@D@std@@V?$allocator@D@2@@std@@@std@@@std@@@std@@@std@@QEBAPEAU?$pair@$$CBHV?$basic_string@DU?$char_traits@D@std@@V?$allocator@D@2@@std@@@1@XZ 000000014000c430 f i datagram.obj
 0001:0000b450       ??D?$_Tree_const_iterator@V?$_Tree_val@U?$_Tree_simple_types@U?$pair@$$CBHV?$basic_string@DU?$char_traits@D@std@@V?$allocator@D@2@@std@@@std@@@std@@@std@@@std@@QEBAAEBU?$pair@$$CBHV?$basic_string@DU?$char_traits@D@std@@V?$allocator@D@2@@std@@@1@XZ 000000014000c450 f i datagram.obj
 0001:0000b4f0       ??D?$_Tree_iterator@V?$_Tree_val@U?$_Tree_simple_types@U?$pair@$$CBHV?$basic_string@DU?$char_traits@D@std@@V?$allocator@D@2@@std@@@std@@@std@@@std@@@std@@QEBAAEAU?$pair@$$CBHV?$basic_string@DU?$char_traits@D@std@@V?$allocator@D@2@@std@@@1@XZ 000000014000c4f0 f i datagram.obj
 0001:0000b510       ??E?$_Tree_const_iterator@V?$_Tree_val@U?$_Tree_simple_types@U?$pair@$$CBHV?$basic_string@DU?$char_traits@D@std@@V?$allocator@D@2@@std@@@std@@@std@@@std@@@std@@QEAA?AV01@H@Z 000000014000c510 f i datagram.obj
 0001:0000b580       ??E?$_Tree_const_iterator@V?$_Tree_val@U?$_Tree_simple_types@U?$pair@$$CBHV?$basic_string@DU?$char_traits@D@std@@V?$allocator@D@2@@std@@@std@@@std@@@std@@@std@@QEAAAEAV01@XZ 000000014000c580 f i datagram.obj
 0001:0000b610       ??E?$_Tree_unchecked_const_iterator@V?$_Tree_val@U?$_Tree_simple_types@U?$pair@$$CBHV?$basic_string@DU?$char_traits@D@std@@V?$allocator@D@2@@std@@@std@@@std@@@std@@U_Iterator_base12@2@@std@@QEAAAEAV01@XZ 000000014000c610 f i datagram.obj
 0001:0000b6c0       ??F?$_Tree_const_iterator@V?$_Tree_val@U?$_Tree_simple_types@U?$pair@$$CBHV?$basic_string@DU?$char_traits@D@std@@V?$allocator@D@2@@std@@@std@@@std@@@std@@@std@@QEAAAEAV01@XZ 000000014000c6c0 f i datagram.obj
 0001:0000b7a0       ??F?$_Tree_iterator@V?$_Tree_val@U?$_Tree_simple_types@U?$pair@$$CBHV?$basic_string@DU?$char_traits@D@std@@V?$allocator@D@2@@std@@@std@@@std@@@std@@@std@@QEAAAEAV01@XZ 000000014000c7a0 f i datagram.obj
 0001:0000b7c0       ??F?$_Tree_unchecked_const_iterator@V?$_Tree_val@U?$_Tree_simple_types@U?$pair@$$CBHV?$basic_string@DU?$char_traits@D@std@@V?$allocator@D@2@@std@@@std@@@std@@@std@@U_Iterator_base12@2@@std@@QEAAAEAV01@XZ 000000014000c7c0 f i datagram.obj
 0001:0000ba40       ??R?$default_delete@V_Facet_base@std@@@std@@QEBAXPEAV_Facet_base@1@@Z 000000014000ca40 f i datagram.obj
 0001:0000baa0       ??R?$less@H@std@@QEBA_NAEBH0@Z 000000014000caa0 f i datagram.obj
 0001:0000bae0       ??_D?$basic_stringstream@DU?$char_traits@D@std@@V?$allocator@D@2@@std@@QEAAXXZ 000000014000cae0 f i datagram.obj
 0001:0000bb18       ??_E?$basic_stringstream@DU?$char_traits@D@std@@V?$allocator@D@2@@std@@$4PPPPPPPM@A@EAAPEAXI@Z 000000014000cb18 f i datagram.obj
 0001:0000bb30       ??_G?$basic_stringbuf@DU?$char_traits@D@std@@V?$allocator@D@2@@std@@UEAAPEAXI@Z 000000014000cb30 f i datagram.obj
 0001:0000bb30       ??_E?$basic_stringbuf@DU?$char_traits@D@std@@V?$allocator@D@2@@std@@UEAAPEAXI@Z 000000014000cb30 f i datagram.obj
 0001:0000bb70       ??_G?$basic_stringstream@DU?$char_traits@D@std@@V?$allocator@D@2@@std@@UEAAPEAXI@Z 000000014000cb70 f i datagram.obj
 0001:0000bb70       ??_E?$basic_stringstream@DU?$char_traits@D@std@@V?$allocator@D@2@@std@@UEAAPEAXI@Z 000000014000cb70 f i datagram.obj
 0001:0000bbd0       ??_G?$pair@$$CBHV?$basic_string@DU?$char_traits@D@std@@V?$allocator@D@2@@std@@@std@@QEAAPEAXI@Z 000000014000cbd0 f i datagram.obj
 0001:0000bc10       ??_Ebad_cast@std@@UEAAPEAXI@Z 000000014000cc10 f i datagram.obj
 0001:0000bc10       ??_Gbad_cast@std@@UEAAPEAXI@Z 000000014000cc10 f i datagram.obj
 0001:0000bc50       ?_Adopt@_Iterator_base12@std@@QEAAXPEBU_Container_base12@2@@Z 000000014000cc50 f i datagram.obj
 0001:0000bd10       ?_Alloc_proxy@?$_Tree_comp_alloc@V?$_Tmap_traits@HV?$basic_string@DU?$char_traits@D@std@@V?$allocator@D@2@@std@@U?$less@H@2@V?$allocator@U?$pair@$$CBHV?$basic_string@DU?$char_traits@D@std@@V?$allocator@D@2@@std@@@std@@@2@$0A@@std@@@std@@QEAAXXZ 000000014000cd10 f i datagram.obj
 0001:0000bdc0       ?_Assign_rv_contents@?$basic_string@DU?$char_traits@D@std@@V?$allocator@D@2@@std@@QEAAX$$QEAV12@U?$integral_constant@_N$00@2@@Z 000000014000cdc0 f i datagram.obj
 0001:0000be10       ?_Assign_rv_contents_with_alloc_always_equal@?$basic_string@DU?$char_traits@D@std@@V?$allocator@D@2@@std@@QEAAX$$QEAV12@U?$integral_constant@_N$00@2@@Z 000000014000ce10 f i datagram.obj
 0001:0000bed0       ?_Buyheadnode@?$_Tree_comp_alloc@V?$_Tmap_traits@HV?$basic_string@DU?$char_traits@D@std@@V?$allocator@D@2@@std@@U?$less@H@2@V?$allocator@U?$pair@$$CBHV?$basic_string@DU?$char_traits@D@std@@V?$allocator@D@2@@std@@@std@@@2@$0A@@std@@@std@@QEAAPEAU?$_Tree_node@U?$pair@$$CBHV?$basic_string@DU?$char_traits@D@std@@V?$allocator@D@2@@std@@@std@@PEAX@2@XZ 000000014000ced0 f i datagram.obj
 0001:0000bf90       ?_Buynode0@?$_Tree_comp_alloc@V?$_Tmap_traits@HV?$basic_string@DU?$char_traits@D@std@@V?$allocator@D@2@@std@@U?$less@H@2@V?$allocator@U?$pair@$$CBHV?$basic_string@DU?$char_traits@D@std@@V?$allocator@D@2@@std@@@std@@@2@$0A@@std@@@std@@QEAAPEAU?$_Tree_node@U?$pair@$$CBHV?$basic_string@DU?$char_traits@D@std@@V?$allocator@D@2@@std@@@std@@PEAX@2@XZ 000000014000cf90 f i datagram.obj
 0001:0000c070       ?_Check_offset@?$_String_val@U?$_Simple_types@D@std@@@std@@QEBAX_K@Z 000000014000d070 f i datagram.obj
 0001:0000c0a0       ?_Clamp_suffix_size@?$_String_val@U?$_Simple_types@D@std@@@std@@QEBA_K_K0@Z 000000014000d0a0 f i datagram.obj
 0001:0000c0e0       ?_Compare@?$_Tree@V?$_Tmap_traits@HV?$basic_string@DU?$char_traits@D@std@@V?$allocator@D@2@@std@@U?$less@H@2@V?$allocator@U?$pair@$$CBHV?$basic_string@DU?$char_traits@D@std@@V?$allocator@D@2@@std@@@std@@@2@$0A@@std@@@std@@IEBA_NAEBH0@Z 000000014000d0e0 f i datagram.obj
 0001:0000c130       ?_Construct@?$_Tree_comp_alloc@V?$_Tmap_traits@HV?$basic_string@DU?$char_traits@D@std@@V?$allocator@D@2@@std@@U?$less@H@2@V?$allocator@U?$pair@$$CBHV?$basic_string@DU?$char_traits@D@std@@V?$allocator@D@2@@std@@@std@@@2@$0A@@std@@@std@@QEAAXXZ 000000014000d130 f i datagram.obj
 0001:0000c180       ?_Construct_lv_contents@?$basic_string@DU?$char_traits@D@std@@V?$allocator@D@2@@std@@QEAAXAEBV12@@Z 000000014000d180 f i datagram.obj
 0001:0000c2f0       ?_Destroy_if_node@?$_Tree@V?$_Tmap_traits@HV?$basic_string@DU?$char_traits@D@std@@V?$allocator@D@2@@std@@U?$less@H@2@V?$allocator@U?$pair@$$CBHV?$basic_string@DU?$char_traits@D@std@@V?$allocator@D@2@@std@@@std@@@2@$0A@@std@@@std@@IEAAXPEAU?$_Tree_node@U?$pair@$$CBHV?$basic_string@DU?$char_traits@D@std@@V?$allocator@D@2@@std@@@std@@PEAX@2@@Z 000000014000d2f0 f i datagram.obj
 0001:0000c340       ?_Eos@?$basic_string@DU?$char_traits@D@std@@V?$allocator@D@2@@std@@QEAAX_K@Z 000000014000d340 f i datagram.obj
 0001:0000c3a0       ?_Erase@?$_Tree@V?$_Tmap_traits@HV?$basic_string@DU?$char_traits@D@std@@V?$allocator@D@2@@std@@U?$less@H@2@V?$allocator@U?$pair@$$CBHV?$basic_string@DU?$char_traits@D@std@@V?$allocator@D@2@@std@@@std@@@2@$0A@@std@@@std@@IEAAXPEAU?$_Tree_node@U?$pair@$$CBHV?$basic_string@DU?$char_traits@D@std@@V?$allocator@D@2@@std@@@std@@PEAX@2@@Z 000000014000d3a0 f i datagram.obj
 0001:0000c440       ?_Extract@?$_Tree_val@U?$_Tree_simple_types@U?$pair@$$CBHV?$basic_string@DU?$char_traits@D@std@@V?$allocator@D@2@@std@@@std@@@std@@@std@@QEAAPEAU?$_Tree_node@U?$pair@$$CBHV?$basic_string@DU?$char_traits@D@std@@V?$allocator@D@2@@std@@@std@@PEAX@2@V?$_Tree_const_iterator@V?$_Tree_val@U?$_Tree_simple_types@U?$pair@$$CBHV?$basic_string@DU?$char_traits@D@std@@V?$allocator@D@2@@std@@@std@@@std@@@std@@@2@@Z 000000014000d440 f i datagram.obj
 0001:0000cac0       ?_Free_proxy@?$_Tree_comp_alloc@V?$_Tmap_traits@HV?$basic_string@DU?$char_traits@D@std@@V?$allocator@D@2@@std@@U?$less@H@2@V?$allocator@U?$pair@$$CBHV?$basic_string@DU?$char_traits@D@std@@V?$allocator@D@2@@std@@@std@@@2@$0A@@std@@@std@@QEAAXXZ 000000014000dac0 f i datagram.obj
 0001:0000cb30       ?_Freeheadnode@?$_Tree_comp_alloc@V?$_Tmap_traits@HV?$basic_string@DU?$char_traits@D@std@@V?$allocator@D@2@@std@@U?$less@H@2@V?$allocator@U?$pair@$$CBHV?$basic_string@DU?$char_traits@D@std@@V?$allocator@D@2@@std@@@std@@@2@$0A@@std@@@std@@QEAAXPEAU?$_Tree_node@U?$pair@$$CBHV?$basic_string@DU?$char_traits@D@std@@V?$allocator@D@2@@std@@@std@@PEAX@2@@Z 000000014000db30 f i datagram.obj
 0001:0000cb60       ?_Freenode0@?$_Tree_comp_alloc@V?$_Tmap_traits@HV?$basic_string@DU?$char_traits@D@std@@V?$allocator@D@2@@std@@U?$less@H@2@V?$allocator@U?$pair@$$CBHV?$basic_string@DU?$char_traits@D@std@@V?$allocator@D@2@@std@@@std@@@2@$0A@@std@@@std@@QEAAXPEAU?$_Tree_node@U?$pair@$$CBHV?$basic_string@DU?$char_traits@D@std@@V?$allocator@D@2@@std@@@std@@PEAX@2@@Z 000000014000db60 f i datagram.obj
 0001:0000cb90       ?_Get_data@?$_Tree_comp_alloc@V?$_Tmap_traits@HV?$basic_string@DU?$char_traits@D@std@@V?$allocator@D@2@@std@@U?$less@H@2@V?$allocator@U?$pair@$$CBHV?$basic_string@DU?$char_traits@D@std@@V?$allocator@D@2@@std@@@std@@@2@$0A@@std@@@std@@QEAAAEAV?$_Tree_val@U?$_Tree_simple_types@U?$pair@$$CBHV?$basic_string@DU?$char_traits@D@std@@V?$allocator@D@2@@std@@@std@@@std@@@2@XZ 000000014000db90 f i datagram.obj
 0001:0000cbc0       ?_Get_data@?$_Tree_comp_alloc@V?$_Tmap_traits@HV?$basic_string@DU?$char_traits@D@std@@V?$allocator@D@2@@std@@U?$less@H@2@V?$allocator@U?$pair@$$CBHV?$basic_string@DU?$char_traits@D@std@@V?$allocator@D@2@@std@@@std@@@2@$0A@@std@@@std@@QEBAAEBV?$_Tree_val@U?$_Tree_simple_types@U?$pair@$$CBHV?$basic_string@DU?$char_traits@D@std@@V?$allocator@D@2@@std@@@std@@@std@@@2@XZ 000000014000dbc0 f i datagram.obj
 0001:0000cbf0       ?_Get_first@?$_Compressed_pair@U?$default_delete@V_Facet_base@std@@@std@@PEAV_Facet_base@2@$00@std@@QEAAAEAU?$default_delete@V_Facet_base@std@@@2@XZ 000000014000dbf0 f i datagram.obj
 0001:0000cc00       ?_Get_first@?$_Compressed_pair@U?$less@H@std@@V?$_Compressed_pair@V?$allocator@U?$_Tree_node@U?$pair@$$CBHV?$basic_string@DU?$char_traits@D@std@@V?$allocator@D@2@@std@@@std@@PEAX@std@@@std@@V?$_Tree_val@U?$_Tree_simple_types@U?$pair@$$CBHV?$basic_string@DU?$char_traits@D@std@@V?$allocator@D@2@@std@@@std@@@std@@@2@$00@2@$00@std@@QEAAAEAU?$less@H@2@XZ 000000014000dc00 f i datagram.obj
 0001:0000cc10       ?_Get_first@?$_Compressed_pair@U?$less@H@std@@V?$_Compressed_pair@V?$allocator@U?$_Tree_node@U?$pair@$$CBHV?$basic_string@DU?$char_traits@D@std@@V?$allocator@D@2@@std@@@std@@PEAX@std@@@std@@V?$_Tree_val@U?$_Tree_simple_types@U?$pair@$$CBHV?$basic_string@DU?$char_traits@D@std@@V?$allocator@D@2@@std@@@std@@@std@@@2@$00@2@$00@std@@QEBAAEBU?$less@H@2@XZ 000000014000dc10 f i datagram.obj
 0001:0000cc20       ?_Get_first@?$_Compressed_pair@V?$allocator@U?$_Tree_node@U?$pair@$$CBHV?$basic_string@DU?$char_traits@D@std@@V?$allocator@D@2@@std@@@std@@PEAX@std@@@std@@V?$_Tree_val@U?$_Tree_simple_types@U?$pair@$$CBHV?$basic_string@DU?$char_traits@D@std@@V?$allocator@D@2@@std@@@std@@@std@@@2@$00@std@@QEAAAEAV?$allocator@U?$_Tree_node@U?$pair@$$CBHV?$basic_string@DU?$char_traits@D@std@@V?$allocator@D@2@@std@@@std@@PEAX@std@@@2@XZ 000000014000dc20 f i datagram.obj
 0001:0000cc30       ?_Get_first@?$_Compressed_pair@V?$allocator@U?$_Tree_node@U?$pair@$$CBHV?$basic_string@DU?$char_traits@D@std@@V?$allocator@D@2@@std@@@std@@PEAX@std@@@std@@V?$_Tree_val@U?$_Tree_simple_types@U?$pair@$$CBHV?$basic_string@DU?$char_traits@D@std@@V?$allocator@D@2@@std@@@std@@@std@@@2@$00@std@@QEBAAEBV?$allocator@U?$_Tree_node@U?$pair@$$CBHV?$basic_string@DU?$char_traits@D@std@@V?$allocator@D@2@@std@@@std@@PEAX@std@@@2@XZ 000000014000dc30 f i datagram.obj
 0001:0000cc40       ?_Get_second@?$_Compressed_pair@U?$default_delete@V_Facet_base@std@@@std@@PEAV_Facet_base@2@$00@std@@QEAAAEAPEAV_Facet_base@2@XZ 000000014000dc40 f i datagram.obj
 0001:0000cc50       ?_Get_second@?$_Compressed_pair@U?$default_delete@V_Facet_base@std@@@std@@PEAV_Facet_base@2@$00@std@@QEBAAEBQEAV_Facet_base@2@XZ 000000014000dc50 f i datagram.obj
 0001:0000cc60       ?_Get_second@?$_Compressed_pair@U?$less@H@std@@V?$_Compressed_pair@V?$allocator@U?$_Tree_node@U?$pair@$$CBHV?$basic_string@DU?$char_traits@D@std@@V?$allocator@D@2@@std@@@std@@PEAX@std@@@std@@V?$_Tree_val@U?$_Tree_simple_types@U?$pair@$$CBHV?$basic_string@DU?$char_traits@D@std@@V?$allocator@D@2@@std@@@std@@@std@@@2@$00@2@$00@std@@QEAAAEAV?$_Compressed_pair@V?$allocator@U?$_Tree_node@U?$pair@$$CBHV?$basic_string@DU?$char_traits@D@std@@V?$allocator@D@2@@std@@@std@@PEAX@std@@@std@@V?$_Tree_val@U?$_Tree_simple_types@U?$pair@$$CBHV?$basic_string@DU?$char_traits@D@std@@V?$allocator@D@2@@std@@@std@@@std@@@2@$00@2@XZ 000000014000dc60 f i datagram.obj
 0001:0000cc70       ?_Get_second@?$_Compressed_pair@U?$less@H@std@@V?$_Compressed_pair@V?$allocator@U?$_Tree_node@U?$pair@$$CBHV?$basic_string@DU?$char_traits@D@std@@V?$allocator@D@2@@std@@@std@@PEAX@std@@@std@@V?$_Tree_val@U?$_Tree_simple_types@U?$pair@$$CBHV?$basic_string@DU?$char_traits@D@std@@V?$allocator@D@2@@std@@@std@@@std@@@2@$00@2@$00@std@@QEBAAEBV?$_Compressed_pair@V?$allocator@U?$_Tree_node@U?$pair@$$CBHV?$basic_string@DU?$char_traits@D@std@@V?$allocator@D@2@@std@@@std@@PEAX@std@@@std@@V?$_Tree_val@U?$_Tree_simple_types@U?$pair@$$CBHV?$basic_string@DU?$char_traits@D@std@@V?$allocator@D@2@@std@@@std@@@std@@@2@$00@2@XZ 000000014000dc70 f i datagram.obj
 0001:0000cc80       ?_Get_second@?$_Compressed_pair@V?$allocator@U?$_Tree_node@U?$pair@$$CBHV?$basic_string@DU?$char_traits@D@std@@V?$allocator@D@2@@std@@@std@@PEAX@std@@@std@@V?$_Tree_val@U?$_Tree_simple_types@U?$pair@$$CBHV?$basic_string@DU?$char_traits@D@std@@V?$allocator@D@2@@std@@@std@@@std@@@2@$00@std@@QEAAAEAV?$_Tree_val@U?$_Tree_simple_types@U?$pair@$$CBHV?$basic_string@DU?$char_traits@D@std@@V?$allocator@D@2@@std@@@std@@@std@@@2@XZ 000000014000dc80 f i datagram.obj
 0001:0000cc90       ?_Get_second@?$_Compressed_pair@V?$allocator@U?$_Tree_node@U?$pair@$$CBHV?$basic_string@DU?$char_traits@D@std@@V?$allocator@D@2@@std@@@std@@PEAX@std@@@std@@V?$_Tree_val@U?$_Tree_simple_types@U?$pair@$$CBHV?$basic_string@DU?$char_traits@D@std@@V?$allocator@D@2@@std@@@std@@@std@@@2@$00@std@@QEBAAEBV?$_Tree_val@U?$_Tree_simple_types@U?$pair@$$CBHV?$basic_string@DU?$char_traits@D@std@@V?$allocator@D@2@@std@@@std@@@std@@@2@XZ 000000014000dc90 f i datagram.obj
 0001:0000cca0       ?_Getal@?$_Tree_comp_alloc@V?$_Tmap_traits@HV?$basic_string@DU?$char_traits@D@std@@V?$allocator@D@2@@std@@U?$less@H@2@V?$allocator@U?$pair@$$CBHV?$basic_string@DU?$char_traits@D@std@@V?$allocator@D@2@@std@@@std@@@2@$0A@@std@@@std@@QEAAAEAV?$allocator@U?$_Tree_node@U?$pair@$$CBHV?$basic_string@DU?$char_traits@D@std@@V?$allocator@D@2@@std@@@std@@PEAX@std@@@2@XZ 000000014000dca0 f i datagram.obj
 0001:0000ccd0       ?_Getal@?$_Tree_comp_alloc@V?$_Tmap_traits@HV?$basic_string@DU?$char_traits@D@std@@V?$allocator@D@2@@std@@U?$less@H@2@V?$allocator@U?$pair@$$CBHV?$basic_string@DU?$char_traits@D@std@@V?$allocator@D@2@@std@@@std@@@2@$0A@@std@@@std@@QEBAAEBV?$allocator@U?$_Tree_node@U?$pair@$$CBHV?$basic_string@DU?$char_traits@D@std@@V?$allocator@D@2@@std@@@std@@PEAX@std@@@2@XZ 000000014000dcd0 f i datagram.obj
 0001:0000cd00       ?_Getcomp@?$_Tree_comp_alloc@V?$_Tmap_traits@HV?$basic_string@DU?$char_traits@D@std@@V?$allocator@D@2@@std@@U?$less@H@2@V?$allocator@U?$pair@$$CBHV?$basic_string@DU?$char_traits@D@std@@V?$allocator@D@2@@std@@@std@@@2@$0A@@std@@@std@@QEAAAEAU?$less@H@2@XZ 000000014000dd00 f i datagram.obj
 0001:0000cd20       ?_Getcomp@?$_Tree_comp_alloc@V?$_Tmap_traits@HV?$basic_string@DU?$char_traits@D@std@@V?$allocator@D@2@@std@@U?$less@H@2@V?$allocator@U?$pair@$$CBHV?$basic_string@DU?$char_traits@D@std@@V?$allocator@D@2@@std@@@std@@@2@$0A@@std@@@std@@QEBAAEBU?$less@H@2@XZ 000000014000dd20 f i datagram.obj
 0001:0000cd40       ?_Getcont@_Iterator_base12@std@@QEBAPEBU_Container_base12@2@XZ 000000014000dd40 f i datagram.obj
 0001:0000cd80       ?_Getfacet@locale@std@@QEBAPEBVfacet@12@_K@Z 000000014000dd80 f i datagram.obj
 0001:0000ce40       ?_Getpfirst@?$_Tree_comp_alloc@V?$_Tmap_traits@HV?$basic_string@DU?$char_traits@D@std@@V?$allocator@D@2@@std@@U?$less@H@2@V?$allocator@U?$pair@$$CBHV?$basic_string@DU?$char_traits@D@std@@V?$allocator@D@2@@std@@@std@@@2@$0A@@std@@@std@@QEBAPEAPEAU_Iterator_base12@2@XZ 000000014000de40 f i datagram.obj
 0001:0000ce60       ?_Getstate@?$basic_stringbuf@DU?$char_traits@D@std@@V?$allocator@D@2@@std@@AEAAHH@Z 000000014000de60 f i datagram.obj
 0001:0000ced0       ?_Init@?$basic_stringbuf@DU?$char_traits@D@std@@V?$allocator@D@2@@std@@IEAAXPEBD_KH@Z 000000014000ded0 f i datagram.obj
 0001:0000d060       ?_Key@?$_Tree@V?$_Tmap_traits@HV?$basic_string@DU?$char_traits@D@std@@V?$allocator@D@2@@std@@U?$less@H@2@V?$allocator@U?$pair@$$CBHV?$basic_string@DU?$char_traits@D@std@@V?$allocator@D@2@@std@@@std@@@2@$0A@@std@@@std@@IEBAAEBHPEAU?$_Tree_node@U?$pair@$$CBHV?$basic_string@DU?$char_traits@D@std@@V?$allocator@D@2@@std@@@std@@PEAX@2@@Z 000000014000e060 f i datagram.obj
 0001:0000d090       ?_Kfn@?$_Tree@V?$_Tmap_traits@HV?$basic_string@DU?$char_traits@D@std@@V?$allocator@D@2@@std@@U?$less@H@2@V?$allocator@U?$pair@$$CBHV?$basic_string@DU?$char_traits@D@std@@V?$allocator@D@2@@std@@@std@@@2@$0A@@std@@@std@@IEBAAEBHAEBU?$pair@$$CBHV?$basic_string@DU?$char_traits@D@std@@V?$allocator@D@2@@std@@@2@@Z 000000014000e090 f i datagram.obj
 0001:0000d0b0       ?_Lmost@?$_Tree_val@U?$_Tree_simple_types@U?$pair@$$CBHV?$basic_string@DU?$char_traits@D@std@@V?$allocator@D@2@@std@@@std@@@std@@@std@@QEBAAEAPEAU?$_Tree_node@U?$pair@$$CBHV?$basic_string@DU?$char_traits@D@std@@V?$allocator@D@2@@std@@@std@@PEAX@2@XZ 000000014000e0b0 f i datagram.obj
 0001:0000d0c0       ?_Lrotate@?$_Tree_val@U?$_Tree_simple_types@U?$pair@$$CBHV?$basic_string@DU?$char_traits@D@std@@V?$allocator@D@2@@std@@@std@@@std@@@std@@QEAAXPEAU?$_Tree_node@U?$pair@$$CBHV?$basic_string@DU?$char_traits@D@std@@V?$allocator@D@2@@std@@@std@@PEAX@2@@Z 000000014000e0c0 f i datagram.obj
 0001:0000d1a0       ?_Max@?$_Tree_val@U?$_Tree_simple_types@U?$pair@$$CBHV?$basic_string@DU?$char_traits@D@std@@V?$allocator@D@2@@std@@@std@@@std@@@std@@SAPEAU?$_Tree_node@U?$pair@$$CBHV?$basic_string@DU?$char_traits@D@std@@V?$allocator@D@2@@std@@@std@@PEAX@2@PEAU32@@Z 000000014000e1a0 f i datagram.obj
 0001:0000d1d0       ?_Min@?$_Tree_val@U?$_Tree_simple_types@U?$pair@$$CBHV?$basic_string@DU?$char_traits@D@std@@V?$allocator@D@2@@std@@@std@@@std@@@std@@SAPEAU?$_Tree_node@U?$pair@$$CBHV?$basic_string@DU?$char_traits@D@std@@V?$allocator@D@2@@std@@@std@@PEAX@2@PEAU32@@Z 000000014000e1d0 f i datagram.obj
 0001:0000d200       ?_Move_alloc@?$_String_alloc@U?$_String_base_types@DV?$allocator@D@std@@@std@@@std@@QEAAXAEAV?$allocator@D@2@@Z 000000014000e200 f i datagram.obj
 0001:0000d290       ?_Myproxy@?$_Tree_comp_alloc@V?$_Tmap_traits@HV?$basic_string@DU?$char_traits@D@std@@V?$allocator@D@2@@std@@U?$less@H@2@V?$allocator@U?$pair@$$CBHV?$basic_string@DU?$char_traits@D@std@@V?$allocator@D@2@@std@@@std@@@2@$0A@@std@@@std@@QEAAAEAPEAU_Container_proxy@2@XZ 000000014000e290 f i datagram.obj
 0001:0000d2b0       ?_Myptr@?$_Unique_ptr_base@V_Facet_base@std@@U?$default_delete@V_Facet_base@std@@@2@@std@@QEAAAEAPEAV_Facet_base@2@XZ 000000014000e2b0 f i datagram.obj
 0001:0000d2d0       ?_Myptr@?$_Unique_ptr_base@V_Facet_base@std@@U?$default_delete@V_Facet_base@std@@@2@@std@@QEBAAEBQEAV_Facet_base@2@XZ 000000014000e2d0 f i datagram.obj
 0001:0000d2f0       ?_Orphan_all@?$_Tree_comp_alloc@V?$_Tmap_traits@HV?$basic_string@DU?$char_traits@D@std@@V?$allocator@D@2@@std@@U?$less@H@2@V?$allocator@U?$pair@$$CBHV?$basic_string@DU?$char_traits@D@std@@V?$allocator@D@2@@std@@@std@@@2@$0A@@std@@@std@@QEAAXXZ 000000014000e2f0 f i datagram.obj
 0001:0000d310       ?_Orphan_me@_Iterator_base12@std@@QEAAXXZ 000000014000e310 f i datagram.obj
 0001:0000d3f0       ?_Orphan_ptr@?$_Tree@V?$_Tmap_traits@HV?$basic_string@DU?$char_traits@D@std@@V?$allocator@D@2@@std@@U?$less@H@2@V?$allocator@U?$pair@$$CBHV?$basic_string@DU?$char_traits@D@std@@V?$allocator@D@2@@std@@@std@@@2@$0A@@std@@@std@@IEAAXPEAU?$_Tree_node@U?$pair@$$CBHV?$basic_string@DU?$char_traits@D@std@@V?$allocator@D@2@@std@@@std@@PEAX@2@@Z 000000014000e3f0 f i datagram.obj
 0001:0000d4d0       ?_Rmost@?$_Tree_val@U?$_Tree_simple_types@U?$pair@$$CBHV?$basic_string@DU?$char_traits@D@std@@V?$allocator@D@2@@std@@@std@@@std@@@std@@QEBAAEAPEAU?$_Tree_node@U?$pair@$$CBHV?$basic_string@DU?$char_traits@D@std@@V?$allocator@D@2@@std@@@std@@PEAX@2@XZ 000000014000e4d0 f i datagram.obj
 0001:0000d4f0       ?_Root@?$_Tree_val@U?$_Tree_simple_types@U?$pair@$$CBHV?$basic_string@DU?$char_traits@D@std@@V?$allocator@D@2@@std@@@std@@@std@@@std@@QEBAAEAPEAU?$_Tree_node@U?$pair@$$CBHV?$basic_string@DU?$char_traits@D@std@@V?$allocator@D@2@@std@@@std@@PEAX@2@XZ 000000014000e4f0 f i datagram.obj
 0001:0000d510       ?_Rrotate@?$_Tree_val@U?$_Tree_simple_types@U?$pair@$$CBHV?$basic_string@DU?$char_traits@D@std@@V?$allocator@D@2@@std@@@std@@@std@@@std@@QEAAXPEAU?$_Tree_node@U?$pair@$$CBHV?$basic_string@DU?$char_traits@D@std@@V?$allocator@D@2@@std@@@std@@PEAX@2@@Z 000000014000e510 f i datagram.obj
 0001:0000d5f0       ?_Swap_all@?$_String_alloc@U?$_String_base_types@DV?$allocator@D@std@@@std@@@std@@QEAAXAEAV12@@Z 000000014000e5f0 f i datagram.obj
 0001:0000d630       ?_Tidy@?$_Tree@V?$_Tmap_traits@HV?$basic_string@DU?$char_traits@D@std@@V?$allocator@D@2@@std@@U?$less@H@2@V?$allocator@U?$pair@$$CBHV?$basic_string@DU?$char_traits@D@std@@V?$allocator@D@2@@std@@@std@@@2@$0A@@std@@@std@@IEAAXXZ 000000014000e630 f i datagram.obj
 0001:0000d720       ?_Tidy@?$basic_stringbuf@DU?$char_traits@D@std@@V?$allocator@D@2@@std@@IEAAXXZ 000000014000e720 f i datagram.obj
 0001:0000d800       ?_Xran@?$_String_val@U?$_Simple_types@D@std@@@std@@SAXXZ 000000014000e800 f i datagram.obj
 0001:0000d820       ?allocate@?$allocator@U?$_Tree_node@U?$pair@$$CBHV?$basic_string@DU?$char_traits@D@std@@V?$allocator@D@2@@std@@@std@@PEAX@std@@@std@@QEAAPEAU?$_Tree_node@U?$pair@$$CBHV?$basic_string@DU?$char_traits@D@std@@V?$allocator@D@2@@std@@@std@@PEAX@2@_K@Z 000000014000e820 f i datagram.obj
 0001:0000d850       ?append@?$basic_string@DU?$char_traits@D@std@@V?$allocator@D@2@@std@@QEAAAEAV12@_KD@Z 000000014000e850 f i datagram.obj
 0001:0000d960       ?assign@?$basic_string@DU?$char_traits@D@std@@V?$allocator@D@2@@std@@QEAAAEAV12@AEBV12@_K_K@Z 000000014000e960 f i datagram.obj
 0001:0000d9e0       ?assign@?$char_traits@D@std@@SAPEADQEAD_KD@Z 000000014000e9e0 f i datagram.obj
 0001:0000da10       ?begin@?$_Tree@V?$_Tmap_traits@HV?$basic_string@DU?$char_traits@D@std@@V?$allocator@D@2@@std@@U?$less@H@2@V?$allocator@U?$pair@$$CBHV?$basic_string@DU?$char_traits@D@std@@V?$allocator@D@2@@std@@@std@@@2@$0A@@std@@@std@@QEAA?AV?$_Tree_iterator@V?$_Tree_val@U?$_Tree_simple_types@U?$pair@$$CBHV?$basic_string@DU?$char_traits@D@std@@V?$allocator@D@2@@std@@@std@@@std@@@std@@@2@XZ 000000014000ea10 f i datagram.obj
 0001:0000da80       ?clear@?$_Tree@V?$_Tmap_traits@HV?$basic_string@DU?$char_traits@D@std@@V?$allocator@D@2@@std@@U?$less@H@2@V?$allocator@U?$pair@$$CBHV?$basic_string@DU?$char_traits@D@std@@V?$allocator@D@2@@std@@@std@@@2@$0A@@std@@@std@@QEAAXXZ 000000014000ea80 f i datagram.obj
 0001:0000db30       ?deallocate@?$_Default_allocator_traits@V?$allocator@U?$_Tree_node@U?$pair@$$CBHV?$basic_string@DU?$char_traits@D@std@@V?$allocator@D@2@@std@@@std@@PEAX@std@@@std@@@std@@SAXAEAV?$allocator@U?$_Tree_node@U?$pair@$$CBHV?$basic_string@DU?$char_traits@D@std@@V?$allocator@D@2@@std@@@std@@PEAX@std@@@2@QEAU?$_Tree_node@U?$pair@$$CBHV?$basic_string@DU?$char_traits@D@std@@V?$allocator@D@2@@std@@@std@@PEAX@2@_K@Z 000000014000eb30 f i datagram.obj
 0001:0000db60       ?deallocate@?$allocator@U?$_Tree_node@U?$pair@$$CBHV?$basic_string@DU?$char_traits@D@std@@V?$allocator@D@2@@std@@@std@@PEAX@std@@@std@@QEAAXQEAU?$_Tree_node@U?$pair@$$CBHV?$basic_string@DU?$char_traits@D@std@@V?$allocator@D@2@@std@@@std@@PEAX@2@_K@Z 000000014000eb60 f i datagram.obj
 0001:0000db90       ?end@?$_Tree@V?$_Tmap_traits@HV?$basic_string@DU?$char_traits@D@std@@V?$allocator@D@2@@std@@U?$less@H@2@V?$allocator@U?$pair@$$CBHV?$basic_string@DU?$char_traits@D@std@@V?$allocator@D@2@@std@@@std@@@2@$0A@@std@@@std@@QEAA?AV?$_Tree_iterator@V?$_Tree_val@U?$_Tree_simple_types@U?$pair@$$CBHV?$basic_string@DU?$char_traits@D@std@@V?$allocator@D@2@@std@@@std@@@std@@@std@@@2@XZ 000000014000eb90 f i datagram.obj
 0001:0000dbf0       ?end@?$_Tree@V?$_Tmap_traits@HV?$basic_string@DU?$char_traits@D@std@@V?$allocator@D@2@@std@@U?$less@H@2@V?$allocator@U?$pair@$$CBHV?$basic_string@DU?$char_traits@D@std@@V?$allocator@D@2@@std@@@std@@@2@$0A@@std@@@std@@QEBA?AV?$_Tree_const_iterator@V?$_Tree_val@U?$_Tree_simple_types@U?$pair@$$CBHV?$basic_string@DU?$char_traits@D@std@@V?$allocator@D@2@@std@@@std@@@std@@@std@@@2@XZ 000000014000ebf0 f i datagram.obj
 0001:0000dc50       ?eof@?$char_traits@D@std@@SAHXZ 000000014000ec50 f i datagram.obj
 0001:0000dc60       ?eq@?$char_traits@D@std@@SA_NAEBD0@Z 000000014000ec60 f i datagram.obj
 0001:0000dca0       ?eq_int_type@?$char_traits@D@std@@SA_NAEBH0@Z 000000014000eca0 f i datagram.obj
 0001:0000dce0       ?erase@?$_Tree@V?$_Tmap_traits@HV?$basic_string@DU?$char_traits@D@std@@V?$allocator@D@2@@std@@U?$less@H@2@V?$allocator@U?$pair@$$CBHV?$basic_string@DU?$char_traits@D@std@@V?$allocator@D@2@@std@@@std@@@2@$0A@@std@@@std@@QEAA?AV?$_Tree_iterator@V?$_Tree_val@U?$_Tree_simple_types@U?$pair@$$CBHV?$basic_string@DU?$char_traits@D@std@@V?$allocator@D@2@@std@@@std@@@std@@@std@@@2@V?$_Tree_const_iterator@V?$_Tree_val@U?$_Tree_simple_types@U?$pair@$$CBHV?$basic_string@DU?$char_traits@D@std@@V?$allocator@D@2@@std@@@std@@@std@@@std@@@2@0@Z 000000014000ece0 f i datagram.obj
 0001:0000df40       ?erase@?$_Tree@V?$_Tmap_traits@HV?$basic_string@DU?$char_traits@D@std@@V?$allocator@D@2@@std@@U?$less@H@2@V?$allocator@U?$pair@$$CBHV?$basic_string@DU?$char_traits@D@std@@V?$allocator@D@2@@std@@@std@@@2@$0A@@std@@@std@@QEAA?AV?$_Tree_iterator@V?$_Tree_val@U?$_Tree_simple_types@U?$pair@$$CBHV?$basic_string@DU?$char_traits@D@std@@V?$allocator@D@2@@std@@@std@@@std@@@std@@@2@V?$_Tree_const_iterator@V?$_Tree_val@U?$_Tree_simple_types@U?$pair@$$CBHV?$basic_string@DU?$char_traits@D@std@@V?$allocator@D@2@@std@@@std@@@std@@@std@@@2@@Z 000000014000ef40 f i datagram.obj
 0001:0000e100       ?erase@?$basic_string@DU?$char_traits@D@std@@V?$allocator@D@2@@std@@QEAAAEAV12@_K@Z 000000014000f100 f i datagram.obj
 0001:0000e150       ?find@?$_Tree@V?$_Tmap_traits@HV?$basic_string@DU?$char_traits@D@std@@V?$allocator@D@2@@std@@U?$less@H@2@V?$allocator@U?$pair@$$CBHV?$basic_string@DU?$char_traits@D@std@@V?$allocator@D@2@@std@@@std@@@2@$0A@@std@@@std@@QEBA?AV?$_Tree_const_iterator@V?$_Tree_val@U?$_Tree_simple_types@U?$pair@$$CBHV?$basic_string@DU?$char_traits@D@std@@V?$allocator@D@2@@std@@@std@@@std@@@std@@@2@AEBH@Z 000000014000f150 f i datagram.obj
 0001:0000e330       ?get@?$unique_ptr@V_Facet_base@std@@U?$default_delete@V_Facet_base@std@@@2@@std@@QEBAPEAV_Facet_base@2@XZ 000000014000f330 f i datagram.obj
 0001:0000e350       ?get_allocator@?$basic_string@DU?$char_traits@D@std@@V?$allocator@D@2@@std@@QEBA?AV?$allocator@D@2@XZ 000000014000f350 f i datagram.obj
 0001:0000e380       ?get_deleter@?$_Unique_ptr_base@V_Facet_base@std@@U?$default_delete@V_Facet_base@std@@@2@@std@@QEAAAEAU?$default_delete@V_Facet_base@std@@@2@XZ 000000014000f380 f i datagram.obj
 0001:0000e3a0       ?hex@std@@YAAEAVios_base@1@AEAV21@@Z 000000014000f3a0 f i datagram.obj
 0001:0000e3d0       ?insert@?$basic_string@DU?$char_traits@D@std@@V?$allocator@D@2@@std@@QEAAAEAV12@_KQEBD0@Z 000000014000f3d0 f i datagram.obj
 0001:0000e600       ?insert@?$basic_string@DU?$char_traits@D@std@@V?$allocator@D@2@@std@@QEAAAEAV12@_KQEBD@Z 000000014000f600 f i datagram.obj
 0001:0000e650       ?lower_bound@?$_Tree@V?$_Tmap_traits@HV?$basic_string@DU?$char_traits@D@std@@V?$allocator@D@2@@std@@U?$less@H@2@V?$allocator@U?$pair@$$CBHV?$basic_string@DU?$char_traits@D@std@@V?$allocator@D@2@@std@@@std@@@2@$0A@@std@@@std@@QEAA?AV?$_Tree_iterator@V?$_Tree_val@U?$_Tree_simple_types@U?$pair@$$CBHV?$basic_string@DU?$char_traits@D@std@@V?$allocator@D@2@@std@@@std@@@std@@@std@@@2@AEBH@Z 000000014000f650 f i datagram.obj
 0001:0000e6c0       ?lower_bound@?$_Tree@V?$_Tmap_traits@HV?$basic_string@DU?$char_traits@D@std@@V?$allocator@D@2@@std@@U?$less@H@2@V?$allocator@U?$pair@$$CBHV?$basic_string@DU?$char_traits@D@std@@V?$allocator@D@2@@std@@@std@@@2@$0A@@std@@@std@@QEBA?AV?$_Tree_const_iterator@V?$_Tree_val@U?$_Tree_simple_types@U?$pair@$$CBHV?$basic_string@DU?$char_traits@D@std@@V?$allocator@D@2@@std@@@std@@@std@@@std@@@2@AEBH@Z 000000014000f6c0 f i datagram.obj
 0001:0000e730       ?max_size@?$_Default_allocator_traits@V?$allocator@U?$_Tree_node@U?$pair@$$CBHV?$basic_string@DU?$char_traits@D@std@@V?$allocator@D@2@@std@@@std@@PEAX@std@@@std@@@std@@SA_KAEBV?$allocator@U?$_Tree_node@U?$pair@$$CBHV?$basic_string@DU?$char_traits@D@std@@V?$allocator@D@2@@std@@@std@@PEAX@std@@@2@@Z 000000014000f730 f i datagram.obj
 0001:0000e740       ?max_size@?$_Tree@V?$_Tmap_traits@HV?$basic_string@DU?$char_traits@D@std@@V?$allocator@D@2@@std@@U?$less@H@2@V?$allocator@U?$pair@$$CBHV?$basic_string@DU?$char_traits@D@std@@V?$allocator@D@2@@std@@@std@@@2@$0A@@std@@@std@@QEBA_KXZ 000000014000f740 f i datagram.obj
 0001:0000e760       ?not_eof@?$char_traits@D@std@@SAHAEBH@Z 000000014000f760 f i datagram.obj
 0001:0000e7b0       ?overflow@?$basic_stringbuf@DU?$char_traits@D@std@@V?$allocator@D@2@@std@@MEAAHH@Z 000000014000f7b0 f i datagram.obj
 0001:0000ecb0       ?pbackfail@?$basic_stringbuf@DU?$char_traits@D@std@@V?$allocator@D@2@@std@@MEAAHH@Z 000000014000fcb0 f i datagram.obj
 0001:0000edd0       ?pointer_to@?$pointer_traits@PEAD@std@@SAPEADAEAD@Z 000000014000fdd0 f i datagram.obj
 0001:0000edf0       ?pointer_to@?$pointer_traits@PEAU?$pair@$$CBHV?$basic_string@DU?$char_traits@D@std@@V?$allocator@D@2@@std@@@std@@@std@@SAPEAU?$pair@$$CBHV?$basic_string@DU?$char_traits@D@std@@V?$allocator@D@2@@std@@@2@AEAU32@@Z 000000014000fdf0 f i datagram.obj
 0001:0000ee10       ?pointer_to@?$pointer_traits@PEBU?$pair@$$CBHV?$basic_string@DU?$char_traits@D@std@@V?$allocator@D@2@@std@@@std@@@std@@SAPEBU?$pair@$$CBHV?$basic_string@DU?$char_traits@D@std@@V?$allocator@D@2@@std@@@2@AEBU32@@Z 000000014000fe10 f i datagram.obj
 0001:0000ee30       ?ptrAt@?$XsArrayImpl@E$1?g_xsByteArrayDescriptor@@3UXsArrayDescriptor@@BUXsByteArray@@@@CAPEAEPEBX_J@Z 000000014000fe30 f i datagram.obj
 0001:0000ee60       ?release@?$unique_ptr@V_Facet_base@std@@U?$default_delete@V_Facet_base@std@@@2@@std@@QEAAPEAV_Facet_base@2@XZ 000000014000fe60 f i datagram.obj
 0001:0000eea0       ?seekoff@?$basic_stringbuf@DU?$char_traits@D@std@@V?$allocator@D@2@@std@@MEAA?AV?$fpos@U_Mbstatet@@@2@_JHH@Z 000000014000fea0 f i datagram.obj
 0001:0000f1f0       ?seekpos@?$basic_stringbuf@DU?$char_traits@D@std@@V?$allocator@D@2@@std@@MEAA?AV?$fpos@U_Mbstatet@@@2@V32@H@Z 00000001400101f0 f i datagram.obj
 0001:0000f430       ?select_on_container_copy_construction@?$_Default_allocator_traits@V?$allocator@D@std@@@std@@SA?AV?$allocator@D@2@AEBV32@@Z 0000000140010430 f i datagram.obj
 0001:0000f440       ?size@?$_Tree@V?$_Tmap_traits@HV?$basic_string@DU?$char_traits@D@std@@V?$allocator@D@2@@std@@U?$less@H@2@V?$allocator@U?$pair@$$CBHV?$basic_string@DU?$char_traits@D@std@@V?$allocator@D@2@@std@@@std@@@2@$0A@@std@@@std@@QEBA_KXZ 0000000140010440 f i datagram.obj
 0001:0000f460       ?size@?$basic_string@DU?$char_traits@D@std@@V?$allocator@D@2@@std@@QEBA_KXZ 0000000140010460 f i datagram.obj
 0001:0000f480       ?stoi@std@@YAHAEBV?$basic_string@DU?$char_traits@D@std@@V?$allocator@D@2@@1@PEA_KH@Z 0000000140010480 f i datagram.obj
 0001:0000f540       ?str@?$basic_stringbuf@DU?$char_traits@D@std@@V?$allocator@D@2@@std@@QEBA?AV?$basic_string@DU?$char_traits@D@std@@V?$allocator@D@2@@2@XZ 0000000140010540 f i datagram.obj
 0001:0000f770       ?str@?$basic_stringstream@DU?$char_traits@D@std@@V?$allocator@D@2@@std@@QEBA?AV?$basic_string@DU?$char_traits@D@std@@V?$allocator@D@2@@2@XZ 0000000140010770 f i datagram.obj
 0001:0000f7c0       ?substr@?$basic_string@DU?$char_traits@D@std@@V?$allocator@D@2@@std@@QEBA?AV12@_K0@Z 00000001400107c0 f i datagram.obj
 0001:0000f830       ?to_char_type@?$char_traits@D@std@@SADAEBH@Z 0000000140010830 f i datagram.obj
 0001:0000f840       ?to_int_type@?$char_traits@D@std@@SAHAEBD@Z 0000000140010840 f i datagram.obj
 0001:0000f850       ?underflow@?$basic_stringbuf@DU?$char_traits@D@std@@V?$allocator@D@2@@std@@MEAAHXZ 0000000140010850 f i datagram.obj
 0001:0000f9a0       ??0EulerDatagram@@QEAA@XZ  00000001400109a0 f   eulerdatagram.obj
 0001:0000fa00       ??1EulerDatagram@@UEAA@XZ  0000000140010a00 f   eulerdatagram.obj
 0001:0000fa40       ?printData@EulerDatagram@@UEBAXXZ 0000000140010a40 f   eulerdatagram.obj
 0001:0000fa70       ?streamData@EulerDatagram@@UEBAXXZ 0000000140010a70 f   eulerdatagram.obj
 0001:0000fb10       ?align_data@EulerDatagram@@SA?AV?$vector@MV?$allocator@M@std@@@std@@V?$vector@UKinematics@EulerDatagram@@V?$allocator@UKinematics@EulerDatagram@@@std@@@3@@Z 0000000140010b10 f   eulerdatagram.obj
 0001:0000fcc0       ?push_sample@EulerDatagram@@SAXV?$vector@MV?$allocator@M@std@@@std@@@Z 0000000140010cc0 f   eulerdatagram.obj
 0001:0000fd00       ?deserializeData@EulerDatagram@@MEAAXAEAVStreamer@@@Z 0000000140010d00 f   eulerdatagram.obj
 0001:00010070       ??$?0$$V@?$_Compressed_pair@V?$allocator@UKinematics@EulerDatagram@@@std@@V?$_Vector_val@U?$_Simple_types@UKinematics@EulerDatagram@@@std@@@2@$00@std@@QEAA@U_Zero_then_variadic_args_t@1@@Z 0000000140011070 f i eulerdatagram.obj
 0001:000100a0       ??$?0UKinematics@EulerDatagram@@@?$allocator@U_Container_proxy@std@@@std@@QEAA@AEBV?$allocator@UKinematics@EulerDatagram@@@1@@Z 00000001400110a0 f i eulerdatagram.obj
 0001:000100b0       ??$?0V?$allocator@UKinematics@EulerDatagram@@@std@@$$V@?$_Compressed_pair@V?$allocator@UKinematics@EulerDatagram@@@std@@V?$_Vector_val@U?$_Simple_types@UKinematics@EulerDatagram@@@std@@@2@$00@std@@QEAA@U_One_then_variadic_args_t@1@$$QEAV?$allocator@UKinematics@EulerDatagram@@@1@@Z 00000001400110b0 f i eulerdatagram.obj
 0001:000100f0       ??$?0V?$allocator@UKinematics@EulerDatagram@@@std@@X@?$_Vector_alloc@U?$_Vec_base_types@UKinematics@EulerDatagram@@V?$allocator@UKinematics@EulerDatagram@@@std@@@std@@@std@@QEAA@$$QEAV?$allocator@UKinematics@EulerDatagram@@@1@@Z 00000001400110f0 f i eulerdatagram.obj
 0001:00010130       ??$_Copy_memmove@PEAUKinematics@EulerDatagram@@PEAU12@@std@@YAPEAUKinematics@EulerDatagram@@PEAU12@00@Z 0000000140011130 f i eulerdatagram.obj
 0001:000101a0       ??$_Destroy_range1@V?$allocator@UKinematics@EulerDatagram@@@std@@@std@@YAXPEAUKinematics@EulerDatagram@@0AEAV?$allocator@UKinematics@EulerDatagram@@@0@U?$integral_constant@_N$00@0@@Z 00000001400111a0 f i eulerdatagram.obj
 0001:000101c0       ??$_Destroy_range@V?$allocator@UKinematics@EulerDatagram@@@std@@@std@@YAXPEAUKinematics@EulerDatagram@@0AEAV?$allocator@UKinematics@EulerDatagram@@@0@@Z 00000001400111c0 f i eulerdatagram.obj
 0001:00010200       ??$_Emplace_back_with_unused_capacity@AEBUKinematics@EulerDatagram@@@?$vector@UKinematics@EulerDatagram@@V?$allocator@UKinematics@EulerDatagram@@@std@@@std@@AEAAXAEBUKinematics@EulerDatagram@@@Z 0000000140011200 f i eulerdatagram.obj
 0001:000102c0       ??$_Emplace_reallocate@AEBUKinematics@EulerDatagram@@@?$vector@UKinematics@EulerDatagram@@V?$allocator@UKinematics@EulerDatagram@@@std@@@std@@QEAAPEAUKinematics@EulerDatagram@@QEAU23@AEBU23@@Z 00000001400112c0 f i eulerdatagram.obj
 0001:00010510       ??$_Get_size_of_n@$0BM@@std@@YA_K_K@Z 0000000140011510 f i eulerdatagram.obj
 0001:00010560       ??$_Ptr_copy_cat@UKinematics@EulerDatagram@@U12@@std@@YA?AU_Really_trivial_ptr_iterator_tag@0@AEBQEAUKinematics@EulerDatagram@@0@Z 0000000140011560 f i eulerdatagram.obj
 0001:00010580       ??$_Ptr_move_cat@UKinematics@EulerDatagram@@U12@@std@@YA?AU_Really_trivial_ptr_iterator_tag@0@AEBQEAUKinematics@EulerDatagram@@0@Z 0000000140011580 f i eulerdatagram.obj
 0001:000106e0       ??$_Rechecked@PEAUKinematics@EulerDatagram@@PEAU12@@std@@YAAEAPEAUKinematics@EulerDatagram@@AEAPEAU12@QEAU12@@Z 00000001400116e0 f i eulerdatagram.obj
 0001:00010700       ??$_Ucopy@PEAUKinematics@EulerDatagram@@@?$vector@UKinematics@EulerDatagram@@V?$allocator@UKinematics@EulerDatagram@@@std@@@std@@AEAAPEAUKinematics@EulerDatagram@@PEAU23@00@Z 0000000140011700 f i eulerdatagram.obj
 0001:00010740       ??$_Unchecked@PEAUKinematics@EulerDatagram@@@std@@YAPEAUKinematics@EulerDatagram@@PEAU12@@Z 0000000140011740 f i eulerdatagram.obj
 0001:00010750       ??$_Unfancy@UKinematics@EulerDatagram@@@std@@YAPEAUKinematics@EulerDatagram@@PEAU12@@Z 0000000140011750 f i eulerdatagram.obj
 0001:00010760       ??$_Uninitialized_copy@PEAUKinematics@EulerDatagram@@PEAU12@V?$allocator@UKinematics@EulerDatagram@@@std@@@std@@YAPEAUKinematics@EulerDatagram@@QEAU12@0PEAU12@AEAV?$allocator@UKinematics@EulerDatagram@@@0@@Z 0000000140011760 f i eulerdatagram.obj
 0001:00010800       ??$_Uninitialized_copy_al_unchecked@UKinematics@EulerDatagram@@U12@V?$allocator@UKinematics@EulerDatagram@@@std@@@std@@YAPEAUKinematics@EulerDatagram@@QEAU12@00AEAV?$allocator@UKinematics@EulerDatagram@@@0@U_Really_trivial_ptr_iterator_tag@0@U?$integral_constant@_N$00@0@@Z 0000000140011800 f i eulerdatagram.obj
 0001:00010840       ??$_Uninitialized_move@PEAUKinematics@EulerDatagram@@PEAU12@V?$allocator@UKinematics@EulerDatagram@@@std@@@std@@YAPEAUKinematics@EulerDatagram@@QEAU12@0PEAU12@AEAV?$allocator@UKinematics@EulerDatagram@@@0@@Z 0000000140011840 f i eulerdatagram.obj
 0001:000108e0       ??$_Uninitialized_move_al_unchecked@UKinematics@EulerDatagram@@U12@V?$allocator@UKinematics@EulerDatagram@@@std@@@std@@YAPEAUKinematics@EulerDatagram@@QEAU12@00AEAV?$allocator@UKinematics@EulerDatagram@@@0@U_Really_trivial_ptr_iterator_tag@0@U?$integral_constant@_N$00@0@@Z 00000001400118e0 f i eulerdatagram.obj
 0001:00010920       ??$addressof@V?$_Vector_val@U?$_Simple_types@UKinematics@EulerDatagram@@@std@@@std@@@std@@YAPEAV?$_Vector_val@U?$_Simple_types@UKinematics@EulerDatagram@@@std@@@0@AEAV10@@Z 0000000140011920 f i eulerdatagram.obj
 0001:00010930       ??$construct@UKinematics@EulerDatagram@@AEBU12@@?$_Default_allocator_traits@V?$allocator@UKinematics@EulerDatagram@@@std@@@std@@SAXAEAV?$allocator@UKinematics@EulerDatagram@@@1@QEAUKinematics@EulerDatagram@@AEBU34@@Z 0000000140011930 f i eulerdatagram.obj
 0001:00010980       ??$emplace_back@AEBUKinematics@EulerDatagram@@@?$vector@UKinematics@EulerDatagram@@V?$allocator@UKinematics@EulerDatagram@@@std@@@std@@QEAAXAEBUKinematics@EulerDatagram@@@Z 0000000140011980 f i eulerdatagram.obj
 0001:000109f0       ??$forward@AEBUKinematics@EulerDatagram@@@std@@YAAEBUKinematics@EulerDatagram@@AEBU12@@Z 00000001400119f0 f i eulerdatagram.obj
 0001:00010a00       ??$forward@V?$allocator@UKinematics@EulerDatagram@@@std@@@std@@YA$$QEAV?$allocator@UKinematics@EulerDatagram@@@0@AEAV10@@Z 0000000140011a00 f i eulerdatagram.obj
 0001:00010a10       ??0?$_Vector_alloc@U?$_Vec_base_types@UKinematics@EulerDatagram@@V?$allocator@UKinematics@EulerDatagram@@@std@@@std@@@std@@QEAA@XZ 0000000140011a10 f i eulerdatagram.obj
 0001:00010a40       ??0?$_Vector_val@U?$_Simple_types@UKinematics@EulerDatagram@@@std@@@std@@QEAA@XZ 0000000140011a40 f i eulerdatagram.obj
 0001:00010a90       ??0?$allocator@UKinematics@EulerDatagram@@@std@@QEAA@XZ 0000000140011a90 f i eulerdatagram.obj
 0001:00010aa0       ??0?$vector@UKinematics@EulerDatagram@@V?$allocator@UKinematics@EulerDatagram@@@std@@@std@@QEAA@AEBV01@@Z 0000000140011aa0 f i eulerdatagram.obj
 0001:00010b70       ??0?$vector@UKinematics@EulerDatagram@@V?$allocator@UKinematics@EulerDatagram@@@std@@@std@@QEAA@XZ 0000000140011b70 f i eulerdatagram.obj
 0001:00010ba0       ??0XsEuler@@QEAA@NNN@Z     0000000140011ba0 f i eulerdatagram.obj
 0001:00010bf0       ??0XsQuaternion@@QEAA@NNNN@Z 0000000140011bf0 f i eulerdatagram.obj
 0001:00010c50       ??1?$_Vector_alloc@U?$_Vec_base_types@UKinematics@EulerDatagram@@V?$allocator@UKinematics@EulerDatagram@@@std@@@std@@@std@@QEAA@XZ 0000000140011c50 f i eulerdatagram.obj
 0001:00010c80       ??1?$vector@UKinematics@EulerDatagram@@V?$allocator@UKinematics@EulerDatagram@@@std@@@std@@QEAA@XZ 0000000140011c80 f i eulerdatagram.obj
 0001:00010cb0       ??4XsQuaternion@@QEAAAEAU0@AEBU0@@Z 0000000140011cb0 f i eulerdatagram.obj
 0001:00010d20       ??AXsEuler@@QEAAAEAN_K@Z   0000000140011d20 f i eulerdatagram.obj
 0001:00010d40       ??AXsQuaternion@@QEAAAEAN_K@Z 0000000140011d40 f i eulerdatagram.obj
 0001:00010dc0       ??_GEulerDatagram@@UEAAPEAXI@Z 0000000140011dc0 f i eulerdatagram.obj
 0001:00010dc0       ??_EEulerDatagram@@UEAAPEAXI@Z 0000000140011dc0 f i eulerdatagram.obj
 0001:00010e00       ?_Alloc_proxy@?$_Vector_alloc@U?$_Vec_base_types@UKinematics@EulerDatagram@@V?$allocator@UKinematics@EulerDatagram@@@std@@@std@@@std@@QEAAXXZ 0000000140011e00 f i eulerdatagram.obj
 0001:00010eb0       ?_Buy@?$vector@UKinematics@EulerDatagram@@V?$allocator@UKinematics@EulerDatagram@@@std@@@std@@AEAA_N_K@Z 0000000140011eb0 f i eulerdatagram.obj
 0001:00010fa0       ?_Calculate_growth@?$vector@UKinematics@EulerDatagram@@V?$allocator@UKinematics@EulerDatagram@@@std@@@std@@AEBA_K_K@Z 0000000140011fa0 f i eulerdatagram.obj
 0001:00011030       ?_Change_array@?$vector@UKinematics@EulerDatagram@@V?$allocator@UKinematics@EulerDatagram@@@std@@@std@@AEAAXQEAUKinematics@EulerDatagram@@_K1@Z 0000000140012030 f i eulerdatagram.obj
 0001:00011140       ?_Destroy@?$vector@UKinematics@EulerDatagram@@V?$allocator@UKinematics@EulerDatagram@@@std@@@std@@AEAAXPEAUKinematics@EulerDatagram@@0@Z 0000000140012140 f i eulerdatagram.obj
 0001:00011180       ?_Free_proxy@?$_Vector_alloc@U?$_Vec_base_types@UKinematics@EulerDatagram@@V?$allocator@UKinematics@EulerDatagram@@@std@@@std@@@std@@QEAAXXZ 0000000140012180 f i eulerdatagram.obj
 0001:000111f0       ?_Get_data@?$_Vector_alloc@U?$_Vec_base_types@UKinematics@EulerDatagram@@V?$allocator@UKinematics@EulerDatagram@@@std@@@std@@@std@@QEAAAEAV?$_Vector_val@U?$_Simple_types@UKinematics@EulerDatagram@@@std@@@2@XZ 00000001400121f0 f i eulerdatagram.obj
 0001:00011210       ?_Get_data@?$_Vector_alloc@U?$_Vec_base_types@UKinematics@EulerDatagram@@V?$allocator@UKinematics@EulerDatagram@@@std@@@std@@@std@@QEBAAEBV?$_Vector_val@U?$_Simple_types@UKinematics@EulerDatagram@@@std@@@2@XZ 0000000140012210 f i eulerdatagram.obj
 0001:00011230       ?_Get_first@?$_Compressed_pair@V?$allocator@UKinematics@EulerDatagram@@@std@@V?$_Vector_val@U?$_Simple_types@UKinematics@EulerDatagram@@@std@@@2@$00@std@@QEAAAEAV?$allocator@UKinematics@EulerDatagram@@@2@XZ 0000000140012230 f i eulerdatagram.obj
 0001:00011240       ?_Get_first@?$_Compressed_pair@V?$allocator@UKinematics@EulerDatagram@@@std@@V?$_Vector_val@U?$_Simple_types@UKinematics@EulerDatagram@@@std@@@2@$00@std@@QEBAAEBV?$allocator@UKinematics@EulerDatagram@@@2@XZ 0000000140012240 f i eulerdatagram.obj
 0001:00011250       ?_Get_second@?$_Compressed_pair@V?$allocator@UKinematics@EulerDatagram@@@std@@V?$_Vector_val@U?$_Simple_types@UKinematics@EulerDatagram@@@std@@@2@$00@std@@QEAAAEAV?$_Vector_val@U?$_Simple_types@UKinematics@EulerDatagram@@@std@@@2@XZ 0000000140012250 f i eulerdatagram.obj
 0001:00011260       ?_Get_second@?$_Compressed_pair@V?$allocator@UKinematics@EulerDatagram@@@std@@V?$_Vector_val@U?$_Simple_types@UKinematics@EulerDatagram@@@std@@@2@$00@std@@QEBAAEBV?$_Vector_val@U?$_Simple_types@UKinematics@EulerDatagram@@@std@@@2@XZ 0000000140012260 f i eulerdatagram.obj
 0001:00011270       ?_Getal@?$_Vector_alloc@U?$_Vec_base_types@UKinematics@EulerDatagram@@V?$allocator@UKinematics@EulerDatagram@@@std@@@std@@@std@@QEAAAEAV?$allocator@UKinematics@EulerDatagram@@@2@XZ 0000000140012270 f i eulerdatagram.obj
 0001:00011290       ?_Getal@?$_Vector_alloc@U?$_Vec_base_types@UKinematics@EulerDatagram@@V?$allocator@UKinematics@EulerDatagram@@@std@@@std@@@std@@QEBAAEBV?$allocator@UKinematics@EulerDatagram@@@2@XZ 0000000140012290 f i eulerdatagram.obj
 0001:000112b0       ?_Getpfirst@?$_Vector_alloc@U?$_Vec_base_types@UKinematics@EulerDatagram@@V?$allocator@UKinematics@EulerDatagram@@@std@@@std@@@std@@QEBAPEAPEAU_Iterator_base12@2@XZ 00000001400122b0 f i eulerdatagram.obj
 0001:000112d0       ?_Has_unused_capacity@?$vector@UKinematics@EulerDatagram@@V?$allocator@UKinematics@EulerDatagram@@@std@@@std@@AEBA_NXZ 00000001400122d0 f i eulerdatagram.obj
 0001:00011320       ?_Myend@?$_Vector_alloc@U?$_Vec_base_types@UKinematics@EulerDatagram@@V?$allocator@UKinematics@EulerDatagram@@@std@@@std@@@std@@QEAAAEAPEAUKinematics@EulerDatagram@@XZ 0000000140012320 f i eulerdatagram.obj
 0001:00011340       ?_Myend@?$_Vector_alloc@U?$_Vec_base_types@UKinematics@EulerDatagram@@V?$allocator@UKinematics@EulerDatagram@@@std@@@std@@@std@@QEBAAEBQEAUKinematics@EulerDatagram@@XZ 0000000140012340 f i eulerdatagram.obj
 0001:00011360       ?_Myfirst@?$_Vector_alloc@U?$_Vec_base_types@UKinematics@EulerDatagram@@V?$allocator@UKinematics@EulerDatagram@@@std@@@std@@@std@@QEAAAEAPEAUKinematics@EulerDatagram@@XZ 0000000140012360 f i eulerdatagram.obj
 0001:00011380       ?_Myfirst@?$_Vector_alloc@U?$_Vec_base_types@UKinematics@EulerDatagram@@V?$allocator@UKinematics@EulerDatagram@@@std@@@std@@@std@@QEBAAEBQEAUKinematics@EulerDatagram@@XZ 0000000140012380 f i eulerdatagram.obj
 0001:000113a0       ?_Mylast@?$_Vector_alloc@U?$_Vec_base_types@UKinematics@EulerDatagram@@V?$allocator@UKinematics@EulerDatagram@@@std@@@std@@@std@@QEAAAEAPEAUKinematics@EulerDatagram@@XZ 00000001400123a0 f i eulerdatagram.obj
 0001:000113c0       ?_Mylast@?$_Vector_alloc@U?$_Vec_base_types@UKinematics@EulerDatagram@@V?$allocator@UKinematics@EulerDatagram@@@std@@@std@@@std@@QEBAAEBQEAUKinematics@EulerDatagram@@XZ 00000001400123c0 f i eulerdatagram.obj
 0001:000113e0       ?_Myproxy@?$_Vector_alloc@U?$_Vec_base_types@UKinematics@EulerDatagram@@V?$allocator@UKinematics@EulerDatagram@@@std@@@std@@@std@@QEAAAEAPEAU_Container_proxy@2@XZ 00000001400123e0 f i eulerdatagram.obj
 0001:00011400       ?_Orphan_all@?$_Vector_alloc@U?$_Vec_base_types@UKinematics@EulerDatagram@@V?$allocator@UKinematics@EulerDatagram@@@std@@@std@@@std@@QEAAXXZ 0000000140012400 f i eulerdatagram.obj
 0001:00011420       ?_Orphan_range@?$vector@UKinematics@EulerDatagram@@V?$allocator@UKinematics@EulerDatagram@@@std@@@std@@AEBAXPEAUKinematics@EulerDatagram@@0@Z 0000000140012420 f i eulerdatagram.obj
 0001:000114e0       ?_Tidy@?$vector@UKinematics@EulerDatagram@@V?$allocator@UKinematics@EulerDatagram@@@std@@@std@@AEAAXXZ 00000001400124e0 f i eulerdatagram.obj
 0001:000115b0       ?_Umove@?$vector@UKinematics@EulerDatagram@@V?$allocator@UKinematics@EulerDatagram@@@std@@@std@@AEAAPEAUKinematics@EulerDatagram@@PEAU34@00@Z 00000001400125b0 f i eulerdatagram.obj
 0001:000115f0       ?_Umove_if_noexcept1@?$vector@UKinematics@EulerDatagram@@V?$allocator@UKinematics@EulerDatagram@@@std@@@std@@AEAAXPEAUKinematics@EulerDatagram@@00U?$integral_constant@_N$00@2@@Z 00000001400125f0 f i eulerdatagram.obj
 0001:00011630       ?_Umove_if_noexcept@?$vector@UKinematics@EulerDatagram@@V?$allocator@UKinematics@EulerDatagram@@@std@@@std@@AEAAXPEAUKinematics@EulerDatagram@@00@Z 0000000140012630 f i eulerdatagram.obj
 0001:00011690       ?_Unchecked_begin@?$vector@UKinematics@EulerDatagram@@V?$allocator@UKinematics@EulerDatagram@@@std@@@std@@QEAAPEAUKinematics@EulerDatagram@@XZ 0000000140012690 f i eulerdatagram.obj
 0001:000116b0       ?_Unchecked_end@?$vector@UKinematics@EulerDatagram@@V?$allocator@UKinematics@EulerDatagram@@@std@@@std@@QEAAPEAUKinematics@EulerDatagram@@XZ 00000001400126b0 f i eulerdatagram.obj
 0001:000116d0       ?_Xlength@?$vector@UKinematics@EulerDatagram@@V?$allocator@UKinematics@EulerDatagram@@@std@@@std@@CAXXZ 00000001400126d0 f i eulerdatagram.obj
 0001:000116f0       ?allocate@?$allocator@UKinematics@EulerDatagram@@@std@@QEAAPEAUKinematics@EulerDatagram@@_K@Z 00000001400126f0 f i eulerdatagram.obj
 0001:00011720       ?capacity@?$vector@UKinematics@EulerDatagram@@V?$allocator@UKinematics@EulerDatagram@@@std@@@std@@QEBA_KXZ 0000000140012720 f i eulerdatagram.obj
 0001:00011770       ?deallocate@?$allocator@UKinematics@EulerDatagram@@@std@@QEAAXQEAUKinematics@EulerDatagram@@_K@Z 0000000140012770 f i eulerdatagram.obj
 0001:000117a0       ?fromEulerAngles@XsQuaternion@@QEAAAEAU1@AEBUXsEuler@@@Z 00000001400127a0 f i eulerdatagram.obj
 0001:000117d0       ?fromQuaternion@XsEuler@@QEAAAEAU1@AEBUXsQuaternion@@@Z 00000001400127d0 f i eulerdatagram.obj
 0001:00011800       ?max_size@?$_Default_allocator_traits@V?$allocator@UKinematics@EulerDatagram@@@std@@@std@@SA_KAEBV?$allocator@UKinematics@EulerDatagram@@@2@@Z 0000000140012800 f i eulerdatagram.obj
 0001:00011810       ?max_size@?$vector@UKinematics@EulerDatagram@@V?$allocator@UKinematics@EulerDatagram@@@std@@@std@@QEBA_KXZ 0000000140012810 f i eulerdatagram.obj
 0001:00011860       ?push_back@?$vector@UKinematics@EulerDatagram@@V?$allocator@UKinematics@EulerDatagram@@@std@@@std@@QEAAXAEBUKinematics@EulerDatagram@@@Z 0000000140012860 f i eulerdatagram.obj
 0001:00011890       ?select_on_container_copy_construction@?$_Default_allocator_traits@V?$allocator@UKinematics@EulerDatagram@@@std@@@std@@SA?AV?$allocator@UKinematics@EulerDatagram@@@2@AEBV32@@Z 0000000140012890 f i eulerdatagram.obj
 0001:000118a0       ?size@?$vector@UKinematics@EulerDatagram@@V?$allocator@UKinematics@EulerDatagram@@@std@@@std@@QEBA_KXZ 00000001400128a0 f i eulerdatagram.obj
 0001:000118f0       ??0JointAnglesDatagram@@QEAA@XZ 00000001400128f0 f   jointanglesdatagram.obj
 0001:00011950       ??1JointAnglesDatagram@@UEAA@XZ 0000000140012950 f   jointanglesdatagram.obj
 0001:00011990       ?printData@JointAnglesDatagram@@UEBAXXZ 0000000140012990 f   jointanglesdatagram.obj
 0001:000119c0       ?streamData@JointAnglesDatagram@@UEBAXXZ 00000001400129c0 f   jointanglesdatagram.obj
 0001:00011a60       ?align_data@JointAnglesDatagram@@SA?AV?$vector@MV?$allocator@M@std@@@std@@V?$vector@UJoint@JointAnglesDatagram@@V?$allocator@UJoint@JointAnglesDatagram@@@std@@@3@@Z 0000000140012a60 f   jointanglesdatagram.obj
 0001:00011b90       ?push_sample@JointAnglesDatagram@@SAXV?$vector@MV?$allocator@M@std@@@std@@@Z 0000000140012b90 f   jointanglesdatagram.obj
 0001:00011bd0       ?deserializeData@JointAnglesDatagram@@MEAAXAEAVStreamer@@@Z 0000000140012bd0 f   jointanglesdatagram.obj
 0001:00011ca0       ??$?0$$V@?$_Compressed_pair@V?$allocator@UJoint@JointAnglesDatagram@@@std@@V?$_Vector_val@U?$_Simple_types@UJoint@JointAnglesDatagram@@@std@@@2@$00@std@@QEAA@U_Zero_then_variadic_args_t@1@@Z 0000000140012ca0 f i jointanglesdatagram.obj
 0001:00011cd0       ??$?0UJoint@JointAnglesDatagram@@@?$allocator@U_Container_proxy@std@@@std@@QEAA@AEBV?$allocator@UJoint@JointAnglesDatagram@@@1@@Z 0000000140012cd0 f i jointanglesdatagram.obj
 0001:00011ce0       ??$?0V?$allocator@UJoint@JointAnglesDatagram@@@std@@$$V@?$_Compressed_pair@V?$allocator@UJoint@JointAnglesDatagram@@@std@@V?$_Vector_val@U?$_Simple_types@UJoint@JointAnglesDatagram@@@std@@@2@$00@std@@QEAA@U_One_then_variadic_args_t@1@$$QEAV?$allocator@UJoint@JointAnglesDatagram@@@1@@Z 0000000140012ce0 f i jointanglesdatagram.obj
 0001:00011d20       ??$?0V?$allocator@UJoint@JointAnglesDatagram@@@std@@X@?$_Vector_alloc@U?$_Vec_base_types@UJoint@JointAnglesDatagram@@V?$allocator@UJoint@JointAnglesDatagram@@@std@@@std@@@std@@QEAA@$$QEAV?$allocator@UJoint@JointAnglesDatagram@@@1@@Z 0000000140012d20 f i jointanglesdatagram.obj
 0001:00011d60       ??$_Copy_memmove@PEAUJoint@JointAnglesDatagram@@PEAU12@@std@@YAPEAUJoint@JointAnglesDatagram@@PEAU12@00@Z 0000000140012d60 f i jointanglesdatagram.obj
 0001:00011dd0       ??$_Destroy_range1@V?$allocator@UJoint@JointAnglesDatagram@@@std@@@std@@YAXPEAUJoint@JointAnglesDatagram@@0AEAV?$allocator@UJoint@JointAnglesDatagram@@@0@U?$integral_constant@_N$00@0@@Z 0000000140012dd0 f i jointanglesdatagram.obj
 0001:00011df0       ??$_Destroy_range@V?$allocator@UJoint@JointAnglesDatagram@@@std@@@std@@YAXPEAUJoint@JointAnglesDatagram@@0AEAV?$allocator@UJoint@JointAnglesDatagram@@@0@@Z 0000000140012df0 f i jointanglesdatagram.obj
 0001:00011e30       ??$_Emplace_back_with_unused_capacity@AEBUJoint@JointAnglesDatagram@@@?$vector@UJoint@JointAnglesDatagram@@V?$allocator@UJoint@JointAnglesDatagram@@@std@@@std@@AEAAXAEBUJoint@JointAnglesDatagram@@@Z 0000000140012e30 f i jointanglesdatagram.obj
 0001:00011ef0       ??$_Emplace_reallocate@AEBUJoint@JointAnglesDatagram@@@?$vector@UJoint@JointAnglesDatagram@@V?$allocator@UJoint@JointAnglesDatagram@@@std@@@std@@QEAAPEAUJoint@JointAnglesDatagram@@QEAU23@AEBU23@@Z 0000000140012ef0 f i jointanglesdatagram.obj
 0001:00012140       ??$_Get_size_of_n@$0BE@@std@@YA_K_K@Z 0000000140013140 f i jointanglesdatagram.obj
 0001:00012190       ??$_Ptr_copy_cat@UJoint@JointAnglesDatagram@@U12@@std@@YA?AU_Really_trivial_ptr_iterator_tag@0@AEBQEAUJoint@JointAnglesDatagram@@0@Z 0000000140013190 f i jointanglesdatagram.obj
 0001:000121b0       ??$_Ptr_move_cat@UJoint@JointAnglesDatagram@@U12@@std@@YA?AU_Really_trivial_ptr_iterator_tag@0@AEBQEAUJoint@JointAnglesDatagram@@0@Z 00000001400131b0 f i jointanglesdatagram.obj
 0001:00012310       ??$_Rechecked@PEAUJoint@JointAnglesDatagram@@PEAU12@@std@@YAAEAPEAUJoint@JointAnglesDatagram@@AEAPEAU12@QEAU12@@Z 0000000140013310 f i jointanglesdatagram.obj
 0001:00012330       ??$_Ucopy@PEAUJoint@JointAnglesDatagram@@@?$vector@UJoint@JointAnglesDatagram@@V?$allocator@UJoint@JointAnglesDatagram@@@std@@@std@@AEAAPEAUJoint@JointAnglesDatagram@@PEAU23@00@Z 0000000140013330 f i jointanglesdatagram.obj
 0001:00012370       ??$_Unchecked@PEAUJoint@JointAnglesDatagram@@@std@@YAPEAUJoint@JointAnglesDatagram@@PEAU12@@Z 0000000140013370 f i jointanglesdatagram.obj
 0001:00012380       ??$_Unfancy@UJoint@JointAnglesDatagram@@@std@@YAPEAUJoint@JointAnglesDatagram@@PEAU12@@Z 0000000140013380 f i jointanglesdatagram.obj
 0001:00012390       ??$_Uninitialized_copy@PEAUJoint@JointAnglesDatagram@@PEAU12@V?$allocator@UJoint@JointAnglesDatagram@@@std@@@std@@YAPEAUJoint@JointAnglesDatagram@@QEAU12@0PEAU12@AEAV?$allocator@UJoint@JointAnglesDatagram@@@0@@Z 0000000140013390 f i jointanglesdatagram.obj
 0001:00012430       ??$_Uninitialized_copy_al_unchecked@UJoint@JointAnglesDatagram@@U12@V?$allocator@UJoint@JointAnglesDatagram@@@std@@@std@@YAPEAUJoint@JointAnglesDatagram@@QEAU12@00AEAV?$allocator@UJoint@JointAnglesDatagram@@@0@U_Really_trivial_ptr_iterator_tag@0@U?$integral_constant@_N$00@0@@Z 0000000140013430 f i jointanglesdatagram.obj
 0001:00012470       ??$_Uninitialized_move@PEAUJoint@JointAnglesDatagram@@PEAU12@V?$allocator@UJoint@JointAnglesDatagram@@@std@@@std@@YAPEAUJoint@JointAnglesDatagram@@QEAU12@0PEAU12@AEAV?$allocator@UJoint@JointAnglesDatagram@@@0@@Z 0000000140013470 f i jointanglesdatagram.obj
 0001:00012510       ??$_Uninitialized_move_al_unchecked@UJoint@JointAnglesDatagram@@U12@V?$allocator@UJoint@JointAnglesDatagram@@@std@@@std@@YAPEAUJoint@JointAnglesDatagram@@QEAU12@00AEAV?$allocator@UJoint@JointAnglesDatagram@@@0@U_Really_trivial_ptr_iterator_tag@0@U?$integral_constant@_N$00@0@@Z 0000000140013510 f i jointanglesdatagram.obj
 0001:00012550       ??$addressof@V?$_Vector_val@U?$_Simple_types@UJoint@JointAnglesDatagram@@@std@@@std@@@std@@YAPEAV?$_Vector_val@U?$_Simple_types@UJoint@JointAnglesDatagram@@@std@@@0@AEAV10@@Z 0000000140013550 f i jointanglesdatagram.obj
 0001:00012560       ??$construct@UJoint@JointAnglesDatagram@@AEBU12@@?$_Default_allocator_traits@V?$allocator@UJoint@JointAnglesDatagram@@@std@@@std@@SAXAEAV?$allocator@UJoint@JointAnglesDatagram@@@1@QEAUJoint@JointAnglesDatagram@@AEBU34@@Z 0000000140013560 f i jointanglesdatagram.obj
 0001:000125b0       ??$emplace_back@AEBUJoint@JointAnglesDatagram@@@?$vector@UJoint@JointAnglesDatagram@@V?$allocator@UJoint@JointAnglesDatagram@@@std@@@std@@QEAAXAEBUJoint@JointAnglesDatagram@@@Z 00000001400135b0 f i jointanglesdatagram.obj
 0001:00012620       ??$forward@AEBUJoint@JointAnglesDatagram@@@std@@YAAEBUJoint@JointAnglesDatagram@@AEBU12@@Z 0000000140013620 f i jointanglesdatagram.obj
 0001:00012630       ??$forward@V?$allocator@UJoint@JointAnglesDatagram@@@std@@@std@@YA$$QEAV?$allocator@UJoint@JointAnglesDatagram@@@0@AEAV10@@Z 0000000140013630 f i jointanglesdatagram.obj
 0001:00012640       ??0?$_Vector_alloc@U?$_Vec_base_types@UJoint@JointAnglesDatagram@@V?$allocator@UJoint@JointAnglesDatagram@@@std@@@std@@@std@@QEAA@XZ 0000000140013640 f i jointanglesdatagram.obj
 0001:00012670       ??0?$_Vector_val@U?$_Simple_types@UJoint@JointAnglesDatagram@@@std@@@std@@QEAA@XZ 0000000140013670 f i jointanglesdatagram.obj
 0001:000126c0       ??0?$allocator@UJoint@JointAnglesDatagram@@@std@@QEAA@XZ 00000001400136c0 f i jointanglesdatagram.obj
 0001:000126d0       ??0?$vector@UJoint@JointAnglesDatagram@@V?$allocator@UJoint@JointAnglesDatagram@@@std@@@std@@QEAA@AEBV01@@Z 00000001400136d0 f i jointanglesdatagram.obj
 0001:000127a0       ??0?$vector@UJoint@JointAnglesDatagram@@V?$allocator@UJoint@JointAnglesDatagram@@@std@@@std@@QEAA@XZ 00000001400137a0 f i jointanglesdatagram.obj
 0001:000127d0       ??1?$_Vector_alloc@U?$_Vec_base_types@UJoint@JointAnglesDatagram@@V?$allocator@UJoint@JointAnglesDatagram@@@std@@@std@@@std@@QEAA@XZ 00000001400137d0 f i jointanglesdatagram.obj
 0001:00012800       ??1?$vector@UJoint@JointAnglesDatagram@@V?$allocator@UJoint@JointAnglesDatagram@@@std@@@std@@QEAA@XZ 0000000140013800 f i jointanglesdatagram.obj
 0001:00012890       ??_EJointAnglesDatagram@@UEAAPEAXI@Z 0000000140013890 f i jointanglesdatagram.obj
 0001:00012890       ??_GJointAnglesDatagram@@UEAAPEAXI@Z 0000000140013890 f i jointanglesdatagram.obj
 0001:000128d0       ?_Alloc_proxy@?$_Vector_alloc@U?$_Vec_base_types@UJoint@JointAnglesDatagram@@V?$allocator@UJoint@JointAnglesDatagram@@@std@@@std@@@std@@QEAAXXZ 00000001400138d0 f i jointanglesdatagram.obj
 0001:00012980       ?_Buy@?$vector@UJoint@JointAnglesDatagram@@V?$allocator@UJoint@JointAnglesDatagram@@@std@@@std@@AEAA_N_K@Z 0000000140013980 f i jointanglesdatagram.obj
 0001:00012a70       ?_Calculate_growth@?$vector@UJoint@JointAnglesDatagram@@V?$allocator@UJoint@JointAnglesDatagram@@@std@@@std@@AEBA_K_K@Z 0000000140013a70 f i jointanglesdatagram.obj
 0001:00012b00       ?_Change_array@?$vector@UJoint@JointAnglesDatagram@@V?$allocator@UJoint@JointAnglesDatagram@@@std@@@std@@AEAAXQEAUJoint@JointAnglesDatagram@@_K1@Z 0000000140013b00 f i jointanglesdatagram.obj
 0001:00012c10       ?_Destroy@?$vector@UJoint@JointAnglesDatagram@@V?$allocator@UJoint@JointAnglesDatagram@@@std@@@std@@AEAAXPEAUJoint@JointAnglesDatagram@@0@Z 0000000140013c10 f i jointanglesdatagram.obj
 0001:00012c50       ?_Free_proxy@?$_Vector_alloc@U?$_Vec_base_types@UJoint@JointAnglesDatagram@@V?$allocator@UJoint@JointAnglesDatagram@@@std@@@std@@@std@@QEAAXXZ 0000000140013c50 f i jointanglesdatagram.obj
 0001:00012cc0       ?_Get_data@?$_Vector_alloc@U?$_Vec_base_types@UJoint@JointAnglesDatagram@@V?$allocator@UJoint@JointAnglesDatagram@@@std@@@std@@@std@@QEAAAEAV?$_Vector_val@U?$_Simple_types@UJoint@JointAnglesDatagram@@@std@@@2@XZ 0000000140013cc0 f i jointanglesdatagram.obj
 0001:00012ce0       ?_Get_data@?$_Vector_alloc@U?$_Vec_base_types@UJoint@JointAnglesDatagram@@V?$allocator@UJoint@JointAnglesDatagram@@@std@@@std@@@std@@QEBAAEBV?$_Vector_val@U?$_Simple_types@UJoint@JointAnglesDatagram@@@std@@@2@XZ 0000000140013ce0 f i jointanglesdatagram.obj
 0001:00012d00       ?_Get_first@?$_Compressed_pair@V?$allocator@UJoint@JointAnglesDatagram@@@std@@V?$_Vector_val@U?$_Simple_types@UJoint@JointAnglesDatagram@@@std@@@2@$00@std@@QEAAAEAV?$allocator@UJoint@JointAnglesDatagram@@@2@XZ 0000000140013d00 f i jointanglesdatagram.obj
 0001:00012d10       ?_Get_first@?$_Compressed_pair@V?$allocator@UJoint@JointAnglesDatagram@@@std@@V?$_Vector_val@U?$_Simple_types@UJoint@JointAnglesDatagram@@@std@@@2@$00@std@@QEBAAEBV?$allocator@UJoint@JointAnglesDatagram@@@2@XZ 0000000140013d10 f i jointanglesdatagram.obj
 0001:00012d20       ?_Get_second@?$_Compressed_pair@V?$allocator@UJoint@JointAnglesDatagram@@@std@@V?$_Vector_val@U?$_Simple_types@UJoint@JointAnglesDatagram@@@std@@@2@$00@std@@QEAAAEAV?$_Vector_val@U?$_Simple_types@UJoint@JointAnglesDatagram@@@std@@@2@XZ 0000000140013d20 f i jointanglesdatagram.obj
 0001:00012d30       ?_Get_second@?$_Compressed_pair@V?$allocator@UJoint@JointAnglesDatagram@@@std@@V?$_Vector_val@U?$_Simple_types@UJoint@JointAnglesDatagram@@@std@@@2@$00@std@@QEBAAEBV?$_Vector_val@U?$_Simple_types@UJoint@JointAnglesDatagram@@@std@@@2@XZ 0000000140013d30 f i jointanglesdatagram.obj
 0001:00012d40       ?_Getal@?$_Vector_alloc@U?$_Vec_base_types@UJoint@JointAnglesDatagram@@V?$allocator@UJoint@JointAnglesDatagram@@@std@@@std@@@std@@QEAAAEAV?$allocator@UJoint@JointAnglesDatagram@@@2@XZ 0000000140013d40 f i jointanglesdatagram.obj
 0001:00012d60       ?_Getal@?$_Vector_alloc@U?$_Vec_base_types@UJoint@JointAnglesDatagram@@V?$allocator@UJoint@JointAnglesDatagram@@@std@@@std@@@std@@QEBAAEBV?$allocator@UJoint@JointAnglesDatagram@@@2@XZ 0000000140013d60 f i jointanglesdatagram.obj
 0001:00012d80       ?_Getpfirst@?$_Vector_alloc@U?$_Vec_base_types@UJoint@JointAnglesDatagram@@V?$allocator@UJoint@JointAnglesDatagram@@@std@@@std@@@std@@QEBAPEAPEAU_Iterator_base12@2@XZ 0000000140013d80 f i jointanglesdatagram.obj
 0001:00012da0       ?_Has_unused_capacity@?$vector@UJoint@JointAnglesDatagram@@V?$allocator@UJoint@JointAnglesDatagram@@@std@@@std@@AEBA_NXZ 0000000140013da0 f i jointanglesdatagram.obj
 0001:00012df0       ?_Myend@?$_Vector_alloc@U?$_Vec_base_types@UJoint@JointAnglesDatagram@@V?$allocator@UJoint@JointAnglesDatagram@@@std@@@std@@@std@@QEAAAEAPEAUJoint@JointAnglesDatagram@@XZ 0000000140013df0 f i jointanglesdatagram.obj
 0001:00012e10       ?_Myend@?$_Vector_alloc@U?$_Vec_base_types@UJoint@JointAnglesDatagram@@V?$allocator@UJoint@JointAnglesDatagram@@@std@@@std@@@std@@QEBAAEBQEAUJoint@JointAnglesDatagram@@XZ 0000000140013e10 f i jointanglesdatagram.obj
 0001:00012e30       ?_Myfirst@?$_Vector_alloc@U?$_Vec_base_types@UJoint@JointAnglesDatagram@@V?$allocator@UJoint@JointAnglesDatagram@@@std@@@std@@@std@@QEAAAEAPEAUJoint@JointAnglesDatagram@@XZ 0000000140013e30 f i jointanglesdatagram.obj
 0001:00012e50       ?_Myfirst@?$_Vector_alloc@U?$_Vec_base_types@UJoint@JointAnglesDatagram@@V?$allocator@UJoint@JointAnglesDatagram@@@std@@@std@@@std@@QEBAAEBQEAUJoint@JointAnglesDatagram@@XZ 0000000140013e50 f i jointanglesdatagram.obj
 0001:00012e70       ?_Mylast@?$_Vector_alloc@U?$_Vec_base_types@UJoint@JointAnglesDatagram@@V?$allocator@UJoint@JointAnglesDatagram@@@std@@@std@@@std@@QEAAAEAPEAUJoint@JointAnglesDatagram@@XZ 0000000140013e70 f i jointanglesdatagram.obj
 0001:00012e90       ?_Mylast@?$_Vector_alloc@U?$_Vec_base_types@UJoint@JointAnglesDatagram@@V?$allocator@UJoint@JointAnglesDatagram@@@std@@@std@@@std@@QEBAAEBQEAUJoint@JointAnglesDatagram@@XZ 0000000140013e90 f i jointanglesdatagram.obj
 0001:00012eb0       ?_Myproxy@?$_Vector_alloc@U?$_Vec_base_types@UJoint@JointAnglesDatagram@@V?$allocator@UJoint@JointAnglesDatagram@@@std@@@std@@@std@@QEAAAEAPEAU_Container_proxy@2@XZ 0000000140013eb0 f i jointanglesdatagram.obj
 0001:00012ed0       ?_Orphan_all@?$_Vector_alloc@U?$_Vec_base_types@UJoint@JointAnglesDatagram@@V?$allocator@UJoint@JointAnglesDatagram@@@std@@@std@@@std@@QEAAXXZ 0000000140013ed0 f i jointanglesdatagram.obj
 0001:00012ef0       ?_Orphan_range@?$vector@UJoint@JointAnglesDatagram@@V?$allocator@UJoint@JointAnglesDatagram@@@std@@@std@@AEBAXPEAUJoint@JointAnglesDatagram@@0@Z 0000000140013ef0 f i jointanglesdatagram.obj
 0001:00012fb0       ?_Tidy@?$vector@UJoint@JointAnglesDatagram@@V?$allocator@UJoint@JointAnglesDatagram@@@std@@@std@@AEAAXXZ 0000000140013fb0 f i jointanglesdatagram.obj
 0001:00013080       ?_Umove@?$vector@UJoint@JointAnglesDatagram@@V?$allocator@UJoint@JointAnglesDatagram@@@std@@@std@@AEAAPEAUJoint@JointAnglesDatagram@@PEAU34@00@Z 0000000140014080 f i jointanglesdatagram.obj
 0001:000130c0       ?_Umove_if_noexcept1@?$vector@UJoint@JointAnglesDatagram@@V?$allocator@UJoint@JointAnglesDatagram@@@std@@@std@@AEAAXPEAUJoint@JointAnglesDatagram@@00U?$integral_constant@_N$00@2@@Z 00000001400140c0 f i jointanglesdatagram.obj
 0001:00013100       ?_Umove_if_noexcept@?$vector@UJoint@JointAnglesDatagram@@V?$allocator@UJoint@JointAnglesDatagram@@@std@@@std@@AEAAXPEAUJoint@JointAnglesDatagram@@00@Z 0000000140014100 f i jointanglesdatagram.obj
 0001:00013160       ?_Unchecked_begin@?$vector@UJoint@JointAnglesDatagram@@V?$allocator@UJoint@JointAnglesDatagram@@@std@@@std@@QEAAPEAUJoint@JointAnglesDatagram@@XZ 0000000140014160 f i jointanglesdatagram.obj
 0001:00013180       ?_Unchecked_end@?$vector@UJoint@JointAnglesDatagram@@V?$allocator@UJoint@JointAnglesDatagram@@@std@@@std@@QEAAPEAUJoint@JointAnglesDatagram@@XZ 0000000140014180 f i jointanglesdatagram.obj
 0001:000131a0       ?_Xlength@?$vector@UJoint@JointAnglesDatagram@@V?$allocator@UJoint@JointAnglesDatagram@@@std@@@std@@CAXXZ 00000001400141a0 f i jointanglesdatagram.obj
 0001:000131c0       ?allocate@?$allocator@UJoint@JointAnglesDatagram@@@std@@QEAAPEAUJoint@JointAnglesDatagram@@_K@Z 00000001400141c0 f i jointanglesdatagram.obj
 0001:000131f0       ?capacity@?$vector@UJoint@JointAnglesDatagram@@V?$allocator@UJoint@JointAnglesDatagram@@@std@@@std@@QEBA_KXZ 00000001400141f0 f i jointanglesdatagram.obj
 0001:00013240       ?deallocate@?$allocator@UJoint@JointAnglesDatagram@@@std@@QEAAXQEAUJoint@JointAnglesDatagram@@_K@Z 0000000140014240 f i jointanglesdatagram.obj
 0001:00013270       ?max_size@?$_Default_allocator_traits@V?$allocator@UJoint@JointAnglesDatagram@@@std@@@std@@SA_KAEBV?$allocator@UJoint@JointAnglesDatagram@@@2@@Z 0000000140014270 f i jointanglesdatagram.obj
 0001:00013280       ?max_size@?$vector@UJoint@JointAnglesDatagram@@V?$allocator@UJoint@JointAnglesDatagram@@@std@@@std@@QEBA_KXZ 0000000140014280 f i jointanglesdatagram.obj
 0001:000132d0       ?push_back@?$vector@UJoint@JointAnglesDatagram@@V?$allocator@UJoint@JointAnglesDatagram@@@std@@@std@@QEAAXAEBUJoint@JointAnglesDatagram@@@Z 00000001400142d0 f i jointanglesdatagram.obj
 0001:00013300       ?select_on_container_copy_construction@?$_Default_allocator_traits@V?$allocator@UJoint@JointAnglesDatagram@@@std@@@std@@SA?AV?$allocator@UJoint@JointAnglesDatagram@@@2@AEBV32@@Z 0000000140014300 f i jointanglesdatagram.obj
 0001:00013310       ?size@?$vector@UJoint@JointAnglesDatagram@@V?$allocator@UJoint@JointAnglesDatagram@@@std@@@std@@QEBA_KXZ 0000000140014310 f i jointanglesdatagram.obj
 0001:00013360       ??0LinearSegmentKinematicsDatagram@@QEAA@XZ 0000000140014360 f   linearsegmentkinematicsdatagram.obj
 0001:000133c0       ??1LinearSegmentKinematicsDatagram@@UEAA@XZ 00000001400143c0 f   linearsegmentkinematicsdatagram.obj
 0001:00013400       ?printData@LinearSegmentKinematicsDatagram@@UEBAXXZ 0000000140014400 f   linearsegmentkinematicsdatagram.obj
 0001:00013430       ?streamData@LinearSegmentKinematicsDatagram@@UEBAXXZ 0000000140014430 f   linearsegmentkinematicsdatagram.obj
 0001:000134d0       ?align_data@LinearSegmentKinematicsDatagram@@SA?AV?$vector@MV?$allocator@M@std@@@std@@V?$vector@UKinematics@LinearSegmentKinematicsDatagram@@V?$allocator@UKinematics@LinearSegmentKinematicsDatagram@@@std@@@3@@Z 00000001400144d0 f   linearsegmentkinematicsdatagram.obj
 0001:000136f0       ?push_sample@LinearSegmentKinematicsDatagram@@SAXV?$vector@MV?$allocator@M@std@@@std@@@Z 00000001400146f0 f   linearsegmentkinematicsdatagram.obj
 0001:00013730       ?deserializeData@LinearSegmentKinematicsDatagram@@MEAAXAEAVStreamer@@@Z 0000000140014730 f   linearsegmentkinematicsdatagram.obj
 0001:00013870       ??$?0$$V@?$_Compressed_pair@V?$allocator@UKinematics@LinearSegmentKinematicsDatagram@@@std@@V?$_Vector_val@U?$_Simple_types@UKinematics@LinearSegmentKinematicsDatagram@@@std@@@2@$00@std@@QEAA@U_Zero_then_variadic_args_t@1@@Z 0000000140014870 f i linearsegmentkinematicsdatagram.obj
 0001:000138a0       ??$?0UKinematics@LinearSegmentKinematicsDatagram@@@?$allocator@U_Container_proxy@std@@@std@@QEAA@AEBV?$allocator@UKinematics@LinearSegmentKinematicsDatagram@@@1@@Z 00000001400148a0 f i linearsegmentkinematicsdatagram.obj
 0001:000138b0       ??$?0V?$allocator@UKinematics@LinearSegmentKinematicsDatagram@@@std@@$$V@?$_Compressed_pair@V?$allocator@UKinematics@LinearSegmentKinematicsDatagram@@@std@@V?$_Vector_val@U?$_Simple_types@UKinematics@LinearSegmentKinematicsDatagram@@@std@@@2@$00@std@@QEAA@U_One_then_variadic_args_t@1@$$QEAV?$allocator@UKinematics@LinearSegmentKinematicsDatagram@@@1@@Z 00000001400148b0 f i linearsegmentkinematicsdatagram.obj
 0001:000138f0       ??$?0V?$allocator@UKinematics@LinearSegmentKinematicsDatagram@@@std@@X@?$_Vector_alloc@U?$_Vec_base_types@UKinematics@LinearSegmentKinematicsDatagram@@V?$allocator@UKinematics@LinearSegmentKinematicsDatagram@@@std@@@std@@@std@@QEAA@$$QEAV?$allocator@UKinematics@LinearSegmentKinematicsDatagram@@@1@@Z 00000001400148f0 f i linearsegmentkinematicsdatagram.obj
 0001:00013930       ??$_Copy_memmove@PEAUKinematics@LinearSegmentKinematicsDatagram@@PEAU12@@std@@YAPEAUKinematics@LinearSegmentKinematicsDatagram@@PEAU12@00@Z 0000000140014930 f i linearsegmentkinematicsdatagram.obj
 0001:000139a0       ??$_Destroy_range1@V?$allocator@UKinematics@LinearSegmentKinematicsDatagram@@@std@@@std@@YAXPEAUKinematics@LinearSegmentKinematicsDatagram@@0AEAV?$allocator@UKinematics@LinearSegmentKinematicsDatagram@@@0@U?$integral_constant@_N$00@0@@Z 00000001400149a0 f i linearsegmentkinematicsdatagram.obj
 0001:000139c0       ??$_Destroy_range@V?$allocator@UKinematics@LinearSegmentKinematicsDatagram@@@std@@@std@@YAXPEAUKinematics@LinearSegmentKinematicsDatagram@@0AEAV?$allocator@UKinematics@LinearSegmentKinematicsDatagram@@@0@@Z 00000001400149c0 f i linearsegmentkinematicsdatagram.obj
 0001:00013a00       ??$_Emplace_back_with_unused_capacity@AEBUKinematics@LinearSegmentKinematicsDatagram@@@?$vector@UKinematics@LinearSegmentKinematicsDatagram@@V?$allocator@UKinematics@LinearSegmentKinematicsDatagram@@@std@@@std@@AEAAXAEBUKinematics@LinearSegmentKinematicsDatagram@@@Z 0000000140014a00 f i linearsegmentkinematicsdatagram.obj
 0001:00013ac0       ??$_Emplace_reallocate@AEBUKinematics@LinearSegmentKinematicsDatagram@@@?$vector@UKinematics@LinearSegmentKinematicsDatagram@@V?$allocator@UKinematics@LinearSegmentKinematicsDatagram@@@std@@@std@@QEAAPEAUKinematics@LinearSegmentKinematicsDatagram@@QEAU23@AEBU23@@Z 0000000140014ac0 f i linearsegmentkinematicsdatagram.obj
 0001:00013d10       ??$_Get_size_of_n@$0CI@@std@@YA_K_K@Z 0000000140014d10 f i linearsegmentkinematicsdatagram.obj
 0001:00013d60       ??$_Ptr_copy_cat@UKinematics@LinearSegmentKinematicsDatagram@@U12@@std@@YA?AU_Really_trivial_ptr_iterator_tag@0@AEBQEAUKinematics@LinearSegmentKinematicsDatagram@@0@Z 0000000140014d60 f i linearsegmentkinematicsdatagram.obj
 0001:00013d80       ??$_Ptr_move_cat@UKinematics@LinearSegmentKinematicsDatagram@@U12@@std@@YA?AU_Really_trivial_ptr_iterator_tag@0@AEBQEAUKinematics@LinearSegmentKinematicsDatagram@@0@Z 0000000140014d80 f i linearsegmentkinematicsdatagram.obj
 0001:00013ee0       ??$_Rechecked@PEAUKinematics@LinearSegmentKinematicsDatagram@@PEAU12@@std@@YAAEAPEAUKinematics@LinearSegmentKinematicsDatagram@@AEAPEAU12@QEAU12@@Z 0000000140014ee0 f i linearsegmentkinematicsdatagram.obj
 0001:00013f00       ??$_Ucopy@PEAUKinematics@LinearSegmentKinematicsDatagram@@@?$vector@UKinematics@LinearSegmentKinematicsDatagram@@V?$allocator@UKinematics@LinearSegmentKinematicsDatagram@@@std@@@std@@AEAAPEAUKinematics@LinearSegmentKinematicsDatagram@@PEAU23@00@Z 0000000140014f00 f i linearsegmentkinematicsdatagram.obj
 0001:00013f40       ??$_Unchecked@PEAUKinematics@LinearSegmentKinematicsDatagram@@@std@@YAPEAUKinematics@LinearSegmentKinematicsDatagram@@PEAU12@@Z 0000000140014f40 f i linearsegmentkinematicsdatagram.obj
 0001:00013f50       ??$_Unfancy@UKinematics@LinearSegmentKinematicsDatagram@@@std@@YAPEAUKinematics@LinearSegmentKinematicsDatagram@@PEAU12@@Z 0000000140014f50 f i linearsegmentkinematicsdatagram.obj
 0001:00013f60       ??$_Uninitialized_copy@PEAUKinematics@LinearSegmentKinematicsDatagram@@PEAU12@V?$allocator@UKinematics@LinearSegmentKinematicsDatagram@@@std@@@std@@YAPEAUKinematics@LinearSegmentKinematicsDatagram@@QEAU12@0PEAU12@AEAV?$allocator@UKinematics@LinearSegmentKinematicsDatagram@@@0@@Z 0000000140014f60 f i linearsegmentkinematicsdatagram.obj
 0001:00014000       ??$_Uninitialized_copy_al_unchecked@UKinematics@LinearSegmentKinematicsDatagram@@U12@V?$allocator@UKinematics@LinearSegmentKinematicsDatagram@@@std@@@std@@YAPEAUKinematics@LinearSegmentKinematicsDatagram@@QEAU12@00AEAV?$allocator@UKinematics@LinearSegmentKinematicsDatagram@@@0@U_Really_trivial_ptr_iterator_tag@0@U?$integral_constant@_N$00@0@@Z 0000000140015000 f i linearsegmentkinematicsdatagram.obj
 0001:00014040       ??$_Uninitialized_move@PEAUKinematics@LinearSegmentKinematicsDatagram@@PEAU12@V?$allocator@UKinematics@LinearSegmentKinematicsDatagram@@@std@@@std@@YAPEAUKinematics@LinearSegmentKinematicsDatagram@@QEAU12@0PEAU12@AEAV?$allocator@UKinematics@LinearSegmentKinematicsDatagram@@@0@@Z 0000000140015040 f i linearsegmentkinematicsdatagram.obj
 0001:000140e0       ??$_Uninitialized_move_al_unchecked@UKinematics@LinearSegmentKinematicsDatagram@@U12@V?$allocator@UKinematics@LinearSegmentKinematicsDatagram@@@std@@@std@@YAPEAUKinematics@LinearSegmentKinematicsDatagram@@QEAU12@00AEAV?$allocator@UKinematics@LinearSegmentKinematicsDatagram@@@0@U_Really_trivial_ptr_iterator_tag@0@U?$integral_constant@_N$00@0@@Z 00000001400150e0 f i linearsegmentkinematicsdatagram.obj
 0001:00014120       ??$addressof@V?$_Vector_val@U?$_Simple_types@UKinematics@LinearSegmentKinematicsDatagram@@@std@@@std@@@std@@YAPEAV?$_Vector_val@U?$_Simple_types@UKinematics@LinearSegmentKinematicsDatagram@@@std@@@0@AEAV10@@Z 0000000140015120 f i linearsegmentkinematicsdatagram.obj
 0001:00014130       ??$construct@UKinematics@LinearSegmentKinematicsDatagram@@AEBU12@@?$_Default_allocator_traits@V?$allocator@UKinematics@LinearSegmentKinematicsDatagram@@@std@@@std@@SAXAEAV?$allocator@UKinematics@LinearSegmentKinematicsDatagram@@@1@QEAUKinematics@LinearSegmentKinematicsDatagram@@AEBU34@@Z 0000000140015130 f i linearsegmentkinematicsdatagram.obj
 0001:00014180       ??$emplace_back@AEBUKinematics@LinearSegmentKinematicsDatagram@@@?$vector@UKinematics@LinearSegmentKinematicsDatagram@@V?$allocator@UKinematics@LinearSegmentKinematicsDatagram@@@std@@@std@@QEAAXAEBUKinematics@LinearSegmentKinematicsDatagram@@@Z 0000000140015180 f i linearsegmentkinematicsdatagram.obj
 0001:000141f0       ??$forward@AEBUKinematics@LinearSegmentKinematicsDatagram@@@std@@YAAEBUKinematics@LinearSegmentKinematicsDatagram@@AEBU12@@Z 00000001400151f0 f i linearsegmentkinematicsdatagram.obj
 0001:00014200       ??$forward@V?$allocator@UKinematics@LinearSegmentKinematicsDatagram@@@std@@@std@@YA$$QEAV?$allocator@UKinematics@LinearSegmentKinematicsDatagram@@@0@AEAV10@@Z 0000000140015200 f i linearsegmentkinematicsdatagram.obj
 0001:00014210       ??0?$_Vector_alloc@U?$_Vec_base_types@UKinematics@LinearSegmentKinematicsDatagram@@V?$allocator@UKinematics@LinearSegmentKinematicsDatagram@@@std@@@std@@@std@@QEAA@XZ 0000000140015210 f i linearsegmentkinematicsdatagram.obj
 0001:00014240       ??0?$_Vector_val@U?$_Simple_types@UKinematics@LinearSegmentKinematicsDatagram@@@std@@@std@@QEAA@XZ 0000000140015240 f i linearsegmentkinematicsdatagram.obj
 0001:00014290       ??0?$allocator@UKinematics@LinearSegmentKinematicsDatagram@@@std@@QEAA@XZ 0000000140015290 f i linearsegmentkinematicsdatagram.obj
 0001:000142a0       ??0?$vector@UKinematics@LinearSegmentKinematicsDatagram@@V?$allocator@UKinematics@LinearSegmentKinematicsDatagram@@@std@@@std@@QEAA@AEBV01@@Z 00000001400152a0 f i linearsegmentkinematicsdatagram.obj
 0001:00014370       ??0?$vector@UKinematics@LinearSegmentKinematicsDatagram@@V?$allocator@UKinematics@LinearSegmentKinematicsDatagram@@@std@@@std@@QEAA@XZ 0000000140015370 f i linearsegmentkinematicsdatagram.obj
 0001:000143a0       ??1?$_Vector_alloc@U?$_Vec_base_types@UKinematics@LinearSegmentKinematicsDatagram@@V?$allocator@UKinematics@LinearSegmentKinematicsDatagram@@@std@@@std@@@std@@QEAA@XZ 00000001400153a0 f i linearsegmentkinematicsdatagram.obj
 0001:000143d0       ??1?$vector@UKinematics@LinearSegmentKinematicsDatagram@@V?$allocator@UKinematics@LinearSegmentKinematicsDatagram@@@std@@@std@@QEAA@XZ 00000001400153d0 f i linearsegmentkinematicsdatagram.obj
 0001:00014460       ??_GLinearSegmentKinematicsDatagram@@UEAAPEAXI@Z 0000000140015460 f i linearsegmentkinematicsdatagram.obj
 0001:00014460       ??_ELinearSegmentKinematicsDatagram@@UEAAPEAXI@Z 0000000140015460 f i linearsegmentkinematicsdatagram.obj
 0001:000144a0       ?_Alloc_proxy@?$_Vector_alloc@U?$_Vec_base_types@UKinematics@LinearSegmentKinematicsDatagram@@V?$allocator@UKinematics@LinearSegmentKinematicsDatagram@@@std@@@std@@@std@@QEAAXXZ 00000001400154a0 f i linearsegmentkinematicsdatagram.obj
 0001:00014550       ?_Buy@?$vector@UKinematics@LinearSegmentKinematicsDatagram@@V?$allocator@UKinematics@LinearSegmentKinematicsDatagram@@@std@@@std@@AEAA_N_K@Z 0000000140015550 f i linearsegmentkinematicsdatagram.obj
 0001:00014640       ?_Calculate_growth@?$vector@UKinematics@LinearSegmentKinematicsDatagram@@V?$allocator@UKinematics@LinearSegmentKinematicsDatagram@@@std@@@std@@AEBA_K_K@Z 0000000140015640 f i linearsegmentkinematicsdatagram.obj
 0001:000146d0       ?_Change_array@?$vector@UKinematics@LinearSegmentKinematicsDatagram@@V?$allocator@UKinematics@LinearSegmentKinematicsDatagram@@@std@@@std@@AEAAXQEAUKinematics@LinearSegmentKinematicsDatagram@@_K1@Z 00000001400156d0 f i linearsegmentkinematicsdatagram.obj
 0001:000147e0       ?_Destroy@?$vector@UKinematics@LinearSegmentKinematicsDatagram@@V?$allocator@UKinematics@LinearSegmentKinematicsDatagram@@@std@@@std@@AEAAXPEAUKinematics@LinearSegmentKinematicsDatagram@@0@Z 00000001400157e0 f i linearsegmentkinematicsdatagram.obj
 0001:00014820       ?_Free_proxy@?$_Vector_alloc@U?$_Vec_base_types@UKinematics@LinearSegmentKinematicsDatagram@@V?$allocator@UKinematics@LinearSegmentKinematicsDatagram@@@std@@@std@@@std@@QEAAXXZ 0000000140015820 f i linearsegmentkinematicsdatagram.obj
 0001:00014890       ?_Get_data@?$_Vector_alloc@U?$_Vec_base_types@UKinematics@LinearSegmentKinematicsDatagram@@V?$allocator@UKinematics@LinearSegmentKinematicsDatagram@@@std@@@std@@@std@@QEAAAEAV?$_Vector_val@U?$_Simple_types@UKinematics@LinearSegmentKinematicsDatagram@@@std@@@2@XZ 0000000140015890 f i linearsegmentkinematicsdatagram.obj
 0001:000148b0       ?_Get_data@?$_Vector_alloc@U?$_Vec_base_types@UKinematics@LinearSegmentKinematicsDatagram@@V?$allocator@UKinematics@LinearSegmentKinematicsDatagram@@@std@@@std@@@std@@QEBAAEBV?$_Vector_val@U?$_Simple_types@UKinematics@LinearSegmentKinematicsDatagram@@@std@@@2@XZ 00000001400158b0 f i linearsegmentkinematicsdatagram.obj
 0001:000148d0       ?_Get_first@?$_Compressed_pair@V?$allocator@UKinematics@LinearSegmentKinematicsDatagram@@@std@@V?$_Vector_val@U?$_Simple_types@UKinematics@LinearSegmentKinematicsDatagram@@@std@@@2@$00@std@@QEAAAEAV?$allocator@UKinematics@LinearSegmentKinematicsDatagram@@@2@XZ 00000001400158d0 f i linearsegmentkinematicsdatagram.obj
 0001:000148e0       ?_Get_first@?$_Compressed_pair@V?$allocator@UKinematics@LinearSegmentKinematicsDatagram@@@std@@V?$_Vector_val@U?$_Simple_types@UKinematics@LinearSegmentKinematicsDatagram@@@std@@@2@$00@std@@QEBAAEBV?$allocator@UKinematics@LinearSegmentKinematicsDatagram@@@2@XZ 00000001400158e0 f i linearsegmentkinematicsdatagram.obj
 0001:000148f0       ?_Get_second@?$_Compressed_pair@V?$allocator@UKinematics@LinearSegmentKinematicsDatagram@@@std@@V?$_Vector_val@U?$_Simple_types@UKinematics@LinearSegmentKinematicsDatagram@@@std@@@2@$00@std@@QEAAAEAV?$_Vector_val@U?$_Simple_types@UKinematics@LinearSegmentKinematicsDatagram@@@std@@@2@XZ 00000001400158f0 f i linearsegmentkinematicsdatagram.obj
 0001:00014900       ?_Get_second@?$_Compressed_pair@V?$allocator@UKinematics@LinearSegmentKinematicsDatagram@@@std@@V?$_Vector_val@U?$_Simple_types@UKinematics@LinearSegmentKinematicsDatagram@@@std@@@2@$00@std@@QEBAAEBV?$_Vector_val@U?$_Simple_types@UKinematics@LinearSegmentKinematicsDatagram@@@std@@@2@XZ 0000000140015900 f i linearsegmentkinematicsdatagram.obj
 0001:00014910       ?_Getal@?$_Vector_alloc@U?$_Vec_base_types@UKinematics@LinearSegmentKinematicsDatagram@@V?$allocator@UKinematics@LinearSegmentKinematicsDatagram@@@std@@@std@@@std@@QEAAAEAV?$allocator@UKinematics@LinearSegmentKinematicsDatagram@@@2@XZ 0000000140015910 f i linearsegmentkinematicsdatagram.obj
 0001:00014930       ?_Getal@?$_Vector_alloc@U?$_Vec_base_types@UKinematics@LinearSegmentKinematicsDatagram@@V?$allocator@UKinematics@LinearSegmentKinematicsDatagram@@@std@@@std@@@std@@QEBAAEBV?$allocator@UKinematics@LinearSegmentKinematicsDatagram@@@2@XZ 0000000140015930 f i linearsegmentkinematicsdatagram.obj
 0001:00014950       ?_Getpfirst@?$_Vector_alloc@U?$_Vec_base_types@UKinematics@LinearSegmentKinematicsDatagram@@V?$allocator@UKinematics@LinearSegmentKinematicsDatagram@@@std@@@std@@@std@@QEBAPEAPEAU_Iterator_base12@2@XZ 0000000140015950 f i linearsegmentkinematicsdatagram.obj
 0001:00014970       ?_Has_unused_capacity@?$vector@UKinematics@LinearSegmentKinematicsDatagram@@V?$allocator@UKinematics@LinearSegmentKinematicsDatagram@@@std@@@std@@AEBA_NXZ 0000000140015970 f i linearsegmentkinematicsdatagram.obj
 0001:000149c0       ?_Myend@?$_Vector_alloc@U?$_Vec_base_types@UKinematics@LinearSegmentKinematicsDatagram@@V?$allocator@UKinematics@LinearSegmentKinematicsDatagram@@@std@@@std@@@std@@QEAAAEAPEAUKinematics@LinearSegmentKinematicsDatagram@@XZ 00000001400159c0 f i linearsegmentkinematicsdatagram.obj
 0001:000149e0       ?_Myend@?$_Vector_alloc@U?$_Vec_base_types@UKinematics@LinearSegmentKinematicsDatagram@@V?$allocator@UKinematics@LinearSegmentKinematicsDatagram@@@std@@@std@@@std@@QEBAAEBQEAUKinematics@LinearSegmentKinematicsDatagram@@XZ 00000001400159e0 f i linearsegmentkinematicsdatagram.obj
 0001:00014a00       ?_Myfirst@?$_Vector_alloc@U?$_Vec_base_types@UKinematics@LinearSegmentKinematicsDatagram@@V?$allocator@UKinematics@LinearSegmentKinematicsDatagram@@@std@@@std@@@std@@QEAAAEAPEAUKinematics@LinearSegmentKinematicsDatagram@@XZ 0000000140015a00 f i linearsegmentkinematicsdatagram.obj
 0001:00014a20       ?_Myfirst@?$_Vector_alloc@U?$_Vec_base_types@UKinematics@LinearSegmentKinematicsDatagram@@V?$allocator@UKinematics@LinearSegmentKinematicsDatagram@@@std@@@std@@@std@@QEBAAEBQEAUKinematics@LinearSegmentKinematicsDatagram@@XZ 0000000140015a20 f i linearsegmentkinematicsdatagram.obj
 0001:00014a40       ?_Mylast@?$_Vector_alloc@U?$_Vec_base_types@UKinematics@LinearSegmentKinematicsDatagram@@V?$allocator@UKinematics@LinearSegmentKinematicsDatagram@@@std@@@std@@@std@@QEAAAEAPEAUKinematics@LinearSegmentKinematicsDatagram@@XZ 0000000140015a40 f i linearsegmentkinematicsdatagram.obj
 0001:00014a60       ?_Mylast@?$_Vector_alloc@U?$_Vec_base_types@UKinematics@LinearSegmentKinematicsDatagram@@V?$allocator@UKinematics@LinearSegmentKinematicsDatagram@@@std@@@std@@@std@@QEBAAEBQEAUKinematics@LinearSegmentKinematicsDatagram@@XZ 0000000140015a60 f i linearsegmentkinematicsdatagram.obj
 0001:00014a80       ?_Myproxy@?$_Vector_alloc@U?$_Vec_base_types@UKinematics@LinearSegmentKinematicsDatagram@@V?$allocator@UKinematics@LinearSegmentKinematicsDatagram@@@std@@@std@@@std@@QEAAAEAPEAU_Container_proxy@2@XZ 0000000140015a80 f i linearsegmentkinematicsdatagram.obj
 0001:00014aa0       ?_Orphan_all@?$_Vector_alloc@U?$_Vec_base_types@UKinematics@LinearSegmentKinematicsDatagram@@V?$allocator@UKinematics@LinearSegmentKinematicsDatagram@@@std@@@std@@@std@@QEAAXXZ 0000000140015aa0 f i linearsegmentkinematicsdatagram.obj
 0001:00014ac0       ?_Orphan_range@?$vector@UKinematics@LinearSegmentKinematicsDatagram@@V?$allocator@UKinematics@LinearSegmentKinematicsDatagram@@@std@@@std@@AEBAXPEAUKinematics@LinearSegmentKinematicsDatagram@@0@Z 0000000140015ac0 f i linearsegmentkinematicsdatagram.obj
 0001:00014b80       ?_Tidy@?$vector@UKinematics@LinearSegmentKinematicsDatagram@@V?$allocator@UKinematics@LinearSegmentKinematicsDatagram@@@std@@@std@@AEAAXXZ 0000000140015b80 f i linearsegmentkinematicsdatagram.obj
 0001:00014c50       ?_Umove@?$vector@UKinematics@LinearSegmentKinematicsDatagram@@V?$allocator@UKinematics@LinearSegmentKinematicsDatagram@@@std@@@std@@AEAAPEAUKinematics@LinearSegmentKinematicsDatagram@@PEAU34@00@Z 0000000140015c50 f i linearsegmentkinematicsdatagram.obj
 0001:00014c90       ?_Umove_if_noexcept1@?$vector@UKinematics@LinearSegmentKinematicsDatagram@@V?$allocator@UKinematics@LinearSegmentKinematicsDatagram@@@std@@@std@@AEAAXPEAUKinematics@LinearSegmentKinematicsDatagram@@00U?$integral_constant@_N$00@2@@Z 0000000140015c90 f i linearsegmentkinematicsdatagram.obj
 0001:00014cd0       ?_Umove_if_noexcept@?$vector@UKinematics@LinearSegmentKinematicsDatagram@@V?$allocator@UKinematics@LinearSegmentKinematicsDatagram@@@std@@@std@@AEAAXPEAUKinematics@LinearSegmentKinematicsDatagram@@00@Z 0000000140015cd0 f i linearsegmentkinematicsdatagram.obj
 0001:00014d30       ?_Unchecked_begin@?$vector@UKinematics@LinearSegmentKinematicsDatagram@@V?$allocator@UKinematics@LinearSegmentKinematicsDatagram@@@std@@@std@@QEAAPEAUKinematics@LinearSegmentKinematicsDatagram@@XZ 0000000140015d30 f i linearsegmentkinematicsdatagram.obj
 0001:00014d50       ?_Unchecked_end@?$vector@UKinematics@LinearSegmentKinematicsDatagram@@V?$allocator@UKinematics@LinearSegmentKinematicsDatagram@@@std@@@std@@QEAAPEAUKinematics@LinearSegmentKinematicsDatagram@@XZ 0000000140015d50 f i linearsegmentkinematicsdatagram.obj
 0001:00014d70       ?_Xlength@?$vector@UKinematics@LinearSegmentKinematicsDatagram@@V?$allocator@UKinematics@LinearSegmentKinematicsDatagram@@@std@@@std@@CAXXZ 0000000140015d70 f i linearsegmentkinematicsdatagram.obj
 0001:00014d90       ?allocate@?$allocator@UKinematics@LinearSegmentKinematicsDatagram@@@std@@QEAAPEAUKinematics@LinearSegmentKinematicsDatagram@@_K@Z 0000000140015d90 f i linearsegmentkinematicsdatagram.obj
 0001:00014dc0       ?capacity@?$vector@UKinematics@LinearSegmentKinematicsDatagram@@V?$allocator@UKinematics@LinearSegmentKinematicsDatagram@@@std@@@std@@QEBA_KXZ 0000000140015dc0 f i linearsegmentkinematicsdatagram.obj
 0001:00014e10       ?deallocate@?$allocator@UKinematics@LinearSegmentKinematicsDatagram@@@std@@QEAAXQEAUKinematics@LinearSegmentKinematicsDatagram@@_K@Z 0000000140015e10 f i linearsegmentkinematicsdatagram.obj
 0001:00014e40       ?max_size@?$_Default_allocator_traits@V?$allocator@UKinematics@LinearSegmentKinematicsDatagram@@@std@@@std@@SA_KAEBV?$allocator@UKinematics@LinearSegmentKinematicsDatagram@@@2@@Z 0000000140015e40 f i linearsegmentkinematicsdatagram.obj
 0001:00014e50       ?max_size@?$vector@UKinematics@LinearSegmentKinematicsDatagram@@V?$allocator@UKinematics@LinearSegmentKinematicsDatagram@@@std@@@std@@QEBA_KXZ 0000000140015e50 f i linearsegmentkinematicsdatagram.obj
 0001:00014ea0       ?push_back@?$vector@UKinematics@LinearSegmentKinematicsDatagram@@V?$allocator@UKinematics@LinearSegmentKinematicsDatagram@@@std@@@std@@QEAAXAEBUKinematics@LinearSegmentKinematicsDatagram@@@Z 0000000140015ea0 f i linearsegmentkinematicsdatagram.obj
 0001:00014ed0       ?select_on_container_copy_construction@?$_Default_allocator_traits@V?$allocator@UKinematics@LinearSegmentKinematicsDatagram@@@std@@@std@@SA?AV?$allocator@UKinematics@LinearSegmentKinematicsDatagram@@@2@AEBV32@@Z 0000000140015ed0 f i linearsegmentkinematicsdatagram.obj
 0001:00014ee0       ?size@?$vector@UKinematics@LinearSegmentKinematicsDatagram@@V?$allocator@UKinematics@LinearSegmentKinematicsDatagram@@@std@@@std@@QEBA_KXZ 0000000140015ee0 f i linearsegmentkinematicsdatagram.obj
 0001:00014f30       main                       0000000140015f30 f   main.obj
 0001:00015150       ??0?$XsArrayImpl@D$1?g_xsStringDescriptor@@3UXsArrayDescriptor@@BUXsString@@@@QEAA@_KPEBD@Z 0000000140016150 f i main.obj
 0001:00015190       ??0XsArray@@QEAA@PEBUXsArrayDescriptor@@_KPEBX@Z 0000000140016190 f i main.obj
 0001:00015210       ??0XsString@@QEAA@AEBV?$basic_string@DU?$char_traits@D@std@@V?$allocator@D@2@@std@@@Z 0000000140016210 f i main.obj
 0001:000152e0       ?empty@?$basic_string@DU?$char_traits@D@std@@V?$allocator@D@2@@std@@QEBA_NXZ 00000001400162e0 f i main.obj
 0001:00015320       ?msleep@XsTime@@YAXI@Z     0000000140016320 f i main.obj
 0001:00015340       ??0MetaDatagram@@QEAA@XZ   0000000140016340 f   metadatagram.obj
 0001:000153b0       ??1MetaDatagram@@UEAA@XZ   00000001400163b0 f   metadatagram.obj
 0001:000153f0       ?printData@MetaDatagram@@UEBAXXZ 00000001400163f0 f   metadatagram.obj
 0001:00015780       ?deserializeData@MetaDatagram@@MEAAXAEAVStreamer@@@Z 0000000140016780 f   metadatagram.obj
 0001:00015b30       ?split@MetaDatagram@@AEAA?AV?$vector@V?$basic_string@DU?$char_traits@D@std@@V?$allocator@D@2@@std@@V?$allocator@V?$basic_string@DU?$char_traits@D@std@@V?$allocator@D@2@@std@@@2@@std@@V?$basic_string@DU?$char_traits@D@std@@V?$allocator@D@2@@3@D@Z 0000000140016b30 f   metadatagram.obj
 0001:00015c80       ?join@MetaDatagram@@AEAA?AV?$basic_string@DU?$char_traits@D@std@@V?$allocator@D@2@@std@@V?$vector@V?$basic_string@DU?$char_traits@D@std@@V?$allocator@D@2@@std@@V?$allocator@V?$basic_string@DU?$char_traits@D@std@@V?$allocator@D@2@@std@@@2@@3@PEAD@Z 0000000140016c80 f   metadatagram.obj
 0001:00015d70       ?itemData@MetaDatagram@@AEBA?AV?$basic_string@DU?$char_traits@D@std@@V?$allocator@D@2@@std@@AEBV23@@Z 0000000140016d70 f   metadatagram.obj
 0001:00015e40       ?hasItem@MetaDatagram@@AEBA_NAEBV?$basic_string@DU?$char_traits@D@std@@V?$allocator@D@2@@std@@@Z 0000000140016e40 f   metadatagram.obj
 0001:00015f00       ?itemCount@MetaDatagram@@AEBAHXZ 0000000140016f00 f   metadatagram.obj
 0001:00015f20       ??$?0$$V@?$_Compressed_pair@V?$allocator@U?$_Tree_node@U?$pair@$$CBV?$basic_string@DU?$char_traits@D@std@@V?$allocator@D@2@@std@@V12@@std@@PEAX@std@@@std@@V?$_Tree_val@U?$_Tree_simple_types@U?$pair@$$CBV?$basic_string@DU?$char_traits@D@std@@V?$allocator@D@2@@std@@V12@@std@@@std@@@2@$00@std@@QEAA@U_Zero_then_variadic_args_t@1@@Z 0000000140016f20 f i metadatagram.obj
 0001:00015f50       ??$?0$$V@?$_Compressed_pair@V?$allocator@V?$basic_string@DU?$char_traits@D@std@@V?$allocator@D@2@@std@@@std@@V?$_Vector_val@U?$_Simple_types@V?$basic_string@DU?$char_traits@D@std@@V?$allocator@D@2@@std@@@std@@@2@$00@std@@QEAA@U_Zero_then_variadic_args_t@1@@Z 0000000140016f50 f i metadatagram.obj
 0001:00015f80       ??$?0AEAV?$_Tree_iterator@V?$_Tree_val@U?$_Tree_simple_types@U?$pair@$$CBV?$basic_string@DU?$char_traits@D@std@@V?$allocator@D@2@@std@@V12@@std@@@std@@@std@@@std@@_N$0A@@?$pair@V?$_Tree_iterator@V?$_Tree_val@U?$_Tree_simple_types@U?$pair@$$CBV?$basic_string@DU?$char_traits@D@std@@V?$allocator@D@2@@std@@V12@@std@@@std@@@std@@@std@@_N@std@@QEAA@AEAV?$_Tree_iterator@V?$_Tree_val@U?$_Tree_simple_types@U?$pair@$$CBV?$basic_string@DU?$char_traits@D@std@@V?$allocator@D@2@@std@@V12@@std@@@std@@@std@@@1@$$QEA_N@Z 0000000140016f80 f i metadatagram.obj
 0001:00015fd0       ??$?0AEAV?$basic_string@DU?$char_traits@D@std@@V?$allocator@D@2@@std@@AEAV01@$0A@@?$pair@V?$basic_string@DU?$char_traits@D@std@@V?$allocator@D@2@@std@@V12@@std@@QEAA@AEAV?$basic_string@DU?$char_traits@D@std@@V?$allocator@D@2@@1@0@Z 0000000140016fd0 f i metadatagram.obj
 0001:00016030       ??$?0AEBU?$less@V?$basic_string@DU?$char_traits@D@std@@V?$allocator@D@2@@std@@@std@@U_Zero_then_variadic_args_t@1@@?$_Compressed_pair@U?$less@V?$basic_string@DU?$char_traits@D@std@@V?$allocator@D@2@@std@@@std@@V?$_Compressed_pair@V?$allocator@U?$_Tree_node@U?$pair@$$CBV?$basic_string@DU?$char_traits@D@std@@V?$allocator@D@2@@std@@V12@@std@@PEAX@std@@@std@@V?$_Tree_val@U?$_Tree_simple_types@U?$pair@$$CBV?$basic_string@DU?$char_traits@D@std@@V?$allocator@D@2@@std@@V12@@std@@@std@@@2@$00@2@$00@std@@QEAA@U_One_then_variadic_args_t@1@AEBU?$less@V?$basic_string@DU?$char_traits@D@std@@V?$allocator@D@2@@std@@@1@$$QEAU_Zero_then_variadic_args_t@1@@Z 0000000140017030 f i metadatagram.obj
 0001:00016080       ??$?0PEADX@?$basic_string@DU?$char_traits@D@std@@V?$allocator@D@2@@std@@QEAA@PEAD0AEBV?$allocator@D@1@@Z 0000000140017080 f i metadatagram.obj
 0001:00016120       ??$?0U?$_Tree_node@U?$pair@$$CBV?$basic_string@DU?$char_traits@D@std@@V?$allocator@D@2@@std@@V12@@std@@PEAX@std@@@?$allocator@U_Container_proxy@std@@@std@@QEAA@AEBV?$allocator@U?$_Tree_node@U?$pair@$$CBV?$basic_string@DU?$char_traits@D@std@@V?$allocator@D@2@@std@@V12@@std@@PEAX@std@@@1@@Z 0000000140017120 f i metadatagram.obj
 0001:00016130       ??$?0U?$integral_constant@_N$00@std@@@_Unused_parameter@std@@QEAA@$$QEAU?$integral_constant@_N$00@1@@Z 0000000140017130 f i metadatagram.obj
 0001:00016140       ??$?0V?$_Tree_iterator@V?$_Tree_val@U?$_Tree_simple_types@U?$pair@$$CBV?$basic_string@DU?$char_traits@D@std@@V?$allocator@D@2@@std@@V12@@std@@@std@@@std@@@std@@_N$0A@@?$pair@V?$_Tree_iterator@V?$_Tree_val@U?$_Tree_simple_types@U?$pair@$$CBV?$basic_string@DU?$char_traits@D@std@@V?$allocator@D@2@@std@@V12@@std@@@std@@@std@@@std@@_N@std@@QEAA@$$QEAV?$_Tree_iterator@V?$_Tree_val@U?$_Tree_simple_types@U?$pair@$$CBV?$basic_string@DU?$char_traits@D@std@@V?$allocator@D@2@@std@@V12@@std@@@std@@@std@@@1@$$QEA_N@Z 0000000140017140 f i metadatagram.obj
 0001:00016190       ??$?0V?$allocator@V?$basic_string@DU?$char_traits@D@std@@V?$allocator@D@2@@std@@@std@@$$V@?$_Compressed_pair@V?$allocator@V?$basic_string@DU?$char_traits@D@std@@V?$allocator@D@2@@std@@@std@@V?$_Vector_val@U?$_Simple_types@V?$basic_string@DU?$char_traits@D@std@@V?$allocator@D@2@@std@@@std@@@2@$00@std@@QEAA@U_One_then_variadic_args_t@1@$$QEAV?$allocator@V?$basic_string@DU?$char_traits@D@std@@V?$allocator@D@2@@std@@@1@@Z 0000000140017190 f i metadatagram.obj
 0001:000161d0       ??$?0V?$allocator@V?$basic_string@DU?$char_traits@D@std@@V?$allocator@D@2@@std@@@std@@X@?$_Vector_alloc@U?$_Vec_base_types@V?$basic_string@DU?$char_traits@D@std@@V?$allocator@D@2@@std@@V?$allocator@V?$basic_string@DU?$char_traits@D@std@@V?$allocator@D@2@@std@@@2@@std@@@std@@QEAA@$$QEAV?$allocator@V?$basic_string@DU?$char_traits@D@std@@V?$allocator@D@2@@std@@@1@@Z 00000001400171d0 f i metadatagram.obj
 0001:00016210       ??$?0V?$basic_string@DU?$char_traits@D@std@@V?$allocator@D@2@@std@@@?$allocator@U_Container_proxy@std@@@std@@QEAA@AEBV?$allocator@V?$basic_string@DU?$char_traits@D@std@@V?$allocator@D@2@@std@@@1@@Z 0000000140017210 f i metadatagram.obj
 0001:00016220       ??$?0V?$basic_string@DU?$char_traits@D@std@@V?$allocator@D@2@@std@@V01@$0A@@?$pair@$$CBV?$basic_string@DU?$char_traits@D@std@@V?$allocator@D@2@@std@@V12@@std@@QEAA@$$QEAU?$pair@V?$basic_string@DU?$char_traits@D@std@@V?$allocator@D@2@@std@@V12@@1@@Z 0000000140017220 f i metadatagram.obj
 0001:00016280       ??$?6DU?$char_traits@D@std@@V?$allocator@D@1@@std@@YAAEAV?$basic_ostream@DU?$char_traits@D@std@@@0@AEAV10@AEBV?$basic_string@DU?$char_traits@D@std@@V?$allocator@D@2@@0@@Z 0000000140017280 f i metadatagram.obj
 0001:000162d0       ??$?6U?$char_traits@D@std@@@std@@YAAEAV?$basic_ostream@DU?$char_traits@D@std@@@0@AEAV10@PEBD@Z 00000001400172d0 f i metadatagram.obj
 0001:00016690       ??$?MDU?$char_traits@D@std@@V?$allocator@D@1@@std@@YA_NAEBV?$basic_string@DU?$char_traits@D@std@@V?$allocator@D@2@@0@0@Z 0000000140017690 f i metadatagram.obj
 0001:000166d0       ??$_Buy_if_not_node@AEAU?$pair@$$CBV?$basic_string@DU?$char_traits@D@std@@V?$allocator@D@2@@std@@V12@@std@@@?$_Tree@V?$_Tmap_traits@V?$basic_string@DU?$char_traits@D@std@@V?$allocator@D@2@@std@@V12@U?$less@V?$basic_string@DU?$char_traits@D@std@@V?$allocator@D@2@@std@@@2@V?$allocator@U?$pair@$$CBV?$basic_string@DU?$char_traits@D@std@@V?$allocator@D@2@@std@@V12@@std@@@2@$0A@@std@@@std@@IEAAPEAU?$_Tree_node@U?$pair@$$CBV?$basic_string@DU?$char_traits@D@std@@V?$allocator@D@2@@std@@V12@@std@@PEAX@1@PEAU21@AEAU?$pair@$$CBV?$basic_string@DU?$char_traits@D@std@@V?$allocator@D@2@@std@@V12@@1@@Z 00000001400176d0 f i metadatagram.obj
 0001:000166f0       ??$_Buynode@AEAU?$pair@$$CBV?$basic_string@DU?$char_traits@D@std@@V?$allocator@D@2@@std@@V12@@std@@@?$_Tree_comp_alloc@V?$_Tmap_traits@V?$basic_string@DU?$char_traits@D@std@@V?$allocator@D@2@@std@@V12@U?$less@V?$basic_string@DU?$char_traits@D@std@@V?$allocator@D@2@@std@@@2@V?$allocator@U?$pair@$$CBV?$basic_string@DU?$char_traits@D@std@@V?$allocator@D@2@@std@@V12@@std@@@2@$0A@@std@@@std@@QEAAPEAU?$_Tree_node@U?$pair@$$CBV?$basic_string@DU?$char_traits@D@std@@V?$allocator@D@2@@std@@V12@@std@@PEAX@1@AEAU?$pair@$$CBV?$basic_string@DU?$char_traits@D@std@@V?$allocator@D@2@@std@@V12@@1@@Z 00000001400176f0 f i metadatagram.obj
 0001:00016780       ??$_Buynode@U?$pair@V?$basic_string@DU?$char_traits@D@std@@V?$allocator@D@2@@std@@V12@@std@@@?$_Tree_comp_alloc@V?$_Tmap_traits@V?$basic_string@DU?$char_traits@D@std@@V?$allocator@D@2@@std@@V12@U?$less@V?$basic_string@DU?$char_traits@D@std@@V?$allocator@D@2@@std@@@2@V?$allocator@U?$pair@$$CBV?$basic_string@DU?$char_traits@D@std@@V?$allocator@D@2@@std@@V12@@std@@@2@$0A@@std@@@std@@QEAAPEAU?$_Tree_node@U?$pair@$$CBV?$basic_string@DU?$char_traits@D@std@@V?$allocator@D@2@@std@@V12@@std@@PEAX@1@$$QEAU?$pair@V?$basic_string@DU?$char_traits@D@std@@V?$allocator@D@2@@std@@V12@@1@@Z 0000000140017780 f i metadatagram.obj
 0001:00016810       ??$_Copy@U_Copy_tag@?$_Tree@V?$_Tmap_traits@V?$basic_string@DU?$char_traits@D@std@@V?$allocator@D@2@@std@@V12@U?$less@V?$basic_string@DU?$char_traits@D@std@@V?$allocator@D@2@@std@@@2@V?$allocator@U?$pair@$$CBV?$basic_string@DU?$char_traits@D@std@@V?$allocator@D@2@@std@@V12@@std@@@2@$0A@@std@@@std@@@?$_Tree@V?$_Tmap_traits@V?$basic_string@DU?$char_traits@D@std@@V?$allocator@D@2@@std@@V12@U?$less@V?$basic_string@DU?$char_traits@D@std@@V?$allocator@D@2@@std@@@2@V?$allocator@U?$pair@$$CBV?$basic_string@DU?$char_traits@D@std@@V?$allocator@D@2@@std@@V12@@std@@@2@$0A@@std@@@std@@IEAAXAEBV01@U_Copy_tag@01@@Z 0000000140017810 f i metadatagram.obj
 0001:00016930       ??$_Copy_nodes@U_Copy_tag@?$_Tree@V?$_Tmap_traits@V?$basic_string@DU?$char_traits@D@std@@V?$allocator@D@2@@std@@V12@U?$less@V?$basic_string@DU?$char_traits@D@std@@V?$allocator@D@2@@std@@@2@V?$allocator@U?$pair@$$CBV?$basic_string@DU?$char_traits@D@std@@V?$allocator@D@2@@std@@V12@@std@@@2@$0A@@std@@@std@@@?$_Tree@V?$_Tmap_traits@V?$basic_string@DU?$char_traits@D@std@@V?$allocator@D@2@@std@@V12@U?$less@V?$basic_string@DU?$char_traits@D@std@@V?$allocator@D@2@@std@@@2@V?$allocator@U?$pair@$$CBV?$basic_string@DU?$char_traits@D@std@@V?$allocator@D@2@@std@@V12@@std@@@2@$0A@@std@@@std@@IEAAPEAU?$_Tree_node@U?$pair@$$CBV?$basic_string@DU?$char_traits@D@std@@V?$allocator@D@2@@std@@V12@@std@@PEAX@1@PEAU21@0U_Copy_tag@01@@Z 0000000140017930 f i metadatagram.obj
 0001:00016a40       ??$_Copy_or_move@U?$pair@$$CBV?$basic_string@DU?$char_traits@D@std@@V?$allocator@D@2@@std@@V12@@std@@U?$integral_constant@_N$0A@@2@@?$_Tree@V?$_Tmap_traits@V?$basic_string@DU?$char_traits@D@std@@V?$allocator@D@2@@std@@V12@U?$less@V?$basic_string@DU?$char_traits@D@std@@V?$allocator@D@2@@std@@@2@V?$allocator@U?$pair@$$CBV?$basic_string@DU?$char_traits@D@std@@V?$allocator@D@2@@std@@V12@@std@@@2@$0A@@std@@@std@@IEAAPEAU?$_Tree_node@U?$pair@$$CBV?$basic_string@DU?$char_traits@D@std@@V?$allocator@D@2@@std@@V12@@std@@PEAX@1@AEAU?$pair@$$CBV?$basic_string@DU?$char_traits@D@std@@V?$allocator@D@2@@std@@V12@@1@U_Copy_tag@01@U?$integral_constant@_N$0A@@1@@Z 0000000140017a40 f i metadatagram.obj
 0001:00016a70       ??$_Debug_lt_pred@AEAU?$less@V?$basic_string@DU?$char_traits@D@std@@V?$allocator@D@2@@std@@@std@@AEBV?$basic_string@DU?$char_traits@D@std@@V?$allocator@D@2@@2@AEBV32@@std@@YA_NAEAU?$less@V?$basic_string@DU?$char_traits@D@std@@V?$allocator@D@2@@std@@@0@AEBV?$basic_string@DU?$char_traits@D@std@@V?$allocator@D@2@@0@1PEB_WI@Z 0000000140017a70 f i metadatagram.obj
 0001:00016b30       ??$_Debug_lt_pred@AEBU?$less@V?$basic_string@DU?$char_traits@D@std@@V?$allocator@D@2@@std@@@std@@AEBV?$basic_string@DU?$char_traits@D@std@@V?$allocator@D@2@@2@AEBV32@@std@@YA_NAEBU?$less@V?$basic_string@DU?$char_traits@D@std@@V?$allocator@D@2@@std@@@0@AEBV?$basic_string@DU?$char_traits@D@std@@V?$allocator@D@2@@0@1PEB_WI@Z 0000000140017b30 f i metadatagram.obj
 0001:00016bf0       ??$_Debug_range2@PEAD@std@@YAXPEAD0PEB_WIUrandom_access_iterator_tag@0@@Z 0000000140017bf0 f i metadatagram.obj
 0001:00016c60       ??$_Debug_range@PEAD@std@@YAXPEAD0PEB_WI@Z 0000000140017c60 f i metadatagram.obj
 0001:00016ca0       ??$_Destroy_range1@V?$allocator@V?$basic_string@DU?$char_traits@D@std@@V?$allocator@D@2@@std@@@std@@@std@@YAXPEAV?$basic_string@DU?$char_traits@D@std@@V?$allocator@D@2@@0@0AEAV?$allocator@V?$basic_string@DU?$char_traits@D@std@@V?$allocator@D@2@@std@@@0@U?$integral_constant@_N$0A@@0@@Z 0000000140017ca0 f i metadatagram.obj
 0001:00016d00       ??$_Destroy_range@V?$allocator@V?$basic_string@DU?$char_traits@D@std@@V?$allocator@D@2@@std@@@std@@@std@@YAXPEAV?$basic_string@DU?$char_traits@D@std@@V?$allocator@D@2@@0@0AEAV?$allocator@V?$basic_string@DU?$char_traits@D@std@@V?$allocator@D@2@@std@@@0@@Z 0000000140017d00 f i metadatagram.obj
 0001:00016d40       ??$_Emplace_back@AEAV?$basic_string@DU?$char_traits@D@std@@V?$allocator@D@2@@std@@@?$_Uninitialized_backout_al@PEAV?$basic_string@DU?$char_traits@D@std@@V?$allocator@D@2@@std@@V?$allocator@V?$basic_string@DU?$char_traits@D@std@@V?$allocator@D@2@@std@@@2@@std@@QEAAXAEAV?$basic_string@DU?$char_traits@D@std@@V?$allocator@D@2@@1@@Z 0000000140017d40 f i metadatagram.obj
 0001:00016da0       ??$_Emplace_back@V?$basic_string@DU?$char_traits@D@std@@V?$allocator@D@2@@std@@@?$_Uninitialized_backout_al@PEAV?$basic_string@DU?$char_traits@D@std@@V?$allocator@D@2@@std@@V?$allocator@V?$basic_string@DU?$char_traits@D@std@@V?$allocator@D@2@@std@@@2@@std@@QEAAX$$QEAV?$basic_string@DU?$char_traits@D@std@@V?$allocator@D@2@@1@@Z 0000000140017da0 f i metadatagram.obj
 0001:00016e00       ??$_Emplace_back_with_unused_capacity@AEBV?$basic_string@DU?$char_traits@D@std@@V?$allocator@D@2@@std@@@?$vector@V?$basic_string@DU?$char_traits@D@std@@V?$allocator@D@2@@std@@V?$allocator@V?$basic_string@DU?$char_traits@D@std@@V?$allocator@D@2@@std@@@2@@std@@AEAAXAEBV?$basic_string@DU?$char_traits@D@std@@V?$allocator@D@2@@1@@Z 0000000140017e00 f i metadatagram.obj
 0001:00016ec0       ??$_Emplace_reallocate@AEBV?$basic_string@DU?$char_traits@D@std@@V?$allocator@D@2@@std@@@?$vector@V?$basic_string@DU?$char_traits@D@std@@V?$allocator@D@2@@std@@V?$allocator@V?$basic_string@DU?$char_traits@D@std@@V?$allocator@D@2@@std@@@2@@std@@QEAAPEAV?$basic_string@DU?$char_traits@D@std@@V?$allocator@D@2@@1@QEAV21@AEBV21@@Z 0000000140017ec0 f i metadatagram.obj
 0001:00017110       ??$_Freenode0@V?$allocator@U?$_Tree_node@U?$pair@$$CBV?$basic_string@DU?$char_traits@D@std@@V?$allocator@D@2@@std@@V12@@std@@PEAX@std@@@std@@@?$_Tree_node@U?$pair@$$CBV?$basic_string@DU?$char_traits@D@std@@V?$allocator@D@2@@std@@V12@@std@@PEAX@std@@SAXAEAV?$allocator@U?$_Tree_node@U?$pair@$$CBV?$basic_string@DU?$char_traits@D@std@@V?$allocator@D@2@@std@@V12@@std@@PEAX@std@@@1@PEAU01@@Z 0000000140018110 f i metadatagram.obj
 0001:000171a0       ??$_Get_size_of_n@$0HA@@std@@YA_K_K@Z 00000001400181a0 f i metadatagram.obj
 0001:000171f0       ??$_Insert_at@AEAU?$pair@$$CBV?$basic_string@DU?$char_traits@D@std@@V?$allocator@D@2@@std@@V12@@std@@PEAU?$_Tree_node@U?$pair@$$CBV?$basic_string@DU?$char_traits@D@std@@V?$allocator@D@2@@std@@V12@@std@@PEAX@2@@?$_Tree@V?$_Tmap_traits@V?$basic_string@DU?$char_traits@D@std@@V?$allocator@D@2@@std@@V12@U?$less@V?$basic_string@DU?$char_traits@D@std@@V?$allocator@D@2@@std@@@2@V?$allocator@U?$pair@$$CBV?$basic_string@DU?$char_traits@D@std@@V?$allocator@D@2@@std@@V12@@std@@@2@$0A@@std@@@std@@IEAA?AV?$_Tree_iterator@V?$_Tree_val@U?$_Tree_simple_types@U?$pair@$$CBV?$basic_string@DU?$char_traits@D@std@@V?$allocator@D@2@@std@@V12@@std@@@std@@@std@@@1@_NPEAU?$_Tree_node@U?$pair@$$CBV?$basic_string@DU?$char_traits@D@std@@V?$allocator@D@2@@std@@V12@@std@@PEAX@1@AEAU?$pair@$$CBV?$basic_string@DU?$char_traits@D@std@@V?$allocator@D@2@@std@@V12@@1@1@Z 00000001400181f0 f i metadatagram.obj
 0001:00017560       ??$_Insert_nohint@AEAU?$pair@$$CBV?$basic_string@DU?$char_traits@D@std@@V?$allocator@D@2@@std@@V12@@std@@PEAU?$_Tree_node@U?$pair@$$CBV?$basic_string@DU?$char_traits@D@std@@V?$allocator@D@2@@std@@V12@@std@@PEAX@2@@?$_Tree@V?$_Tmap_traits@V?$basic_string@DU?$char_traits@D@std@@V?$allocator@D@2@@std@@V12@U?$less@V?$basic_string@DU?$char_traits@D@std@@V?$allocator@D@2@@std@@@2@V?$allocator@U?$pair@$$CBV?$basic_string@DU?$char_traits@D@std@@V?$allocator@D@2@@std@@V12@@std@@@2@$0A@@std@@@std@@IEAA?AU?$pair@V?$_Tree_iterator@V?$_Tree_val@U?$_Tree_simple_types@U?$pair@$$CBV?$basic_string@DU?$char_traits@D@std@@V?$allocator@D@2@@std@@V12@@std@@@std@@@std@@@std@@_N@1@_NAEAU?$pair@$$CBV?$basic_string@DU?$char_traits@D@std@@V?$allocator@D@2@@std@@V12@@1@PEAU?$_Tree_node@U?$pair@$$CBV?$basic_string@DU?$char_traits@D@std@@V?$allocator@D@2@@std@@V12@@std@@PEAX@1@@Z 0000000140018560 f i metadatagram.obj
 0001:00017a80       ??$_Insert_string@DU?$char_traits@D@std@@_K@std@@YAAEAV?$basic_ostream@DU?$char_traits@D@std@@@0@AEAV10@QEBD_K@Z 0000000140018a80 f i metadatagram.obj
 0001:00017e30       ??$_Integral_to_string@DH@std@@YA?AV?$basic_string@DU?$char_traits@D@std@@V?$allocator@D@2@@0@H@Z 0000000140018e30 f i metadatagram.obj
 0001:00017f00       ??$_Kfn@$$CBV?$basic_string@DU?$char_traits@D@std@@V?$allocator@D@2@@std@@V12@@?$_Tmap_traits@V?$basic_string@DU?$char_traits@D@std@@V?$allocator@D@2@@std@@V12@U?$less@V?$basic_string@DU?$char_traits@D@std@@V?$allocator@D@2@@std@@@2@V?$allocator@U?$pair@$$CBV?$basic_string@DU?$char_traits@D@std@@V?$allocator@D@2@@std@@V12@@std@@@2@$0A@@std@@SAAEBV?$basic_string@DU?$char_traits@D@std@@V?$allocator@D@2@@1@AEBU?$pair@$$CBV?$basic_string@DU?$char_traits@D@std@@V?$allocator@D@2@@std@@V12@@1@@Z 0000000140018f00 f i metadatagram.obj
 0001:00017f10       ??$_Lbound@V?$basic_string@DU?$char_traits@D@std@@V?$allocator@D@2@@std@@@?$_Tree@V?$_Tmap_traits@V?$basic_string@DU?$char_traits@D@std@@V?$allocator@D@2@@std@@V12@U?$less@V?$basic_string@DU?$char_traits@D@std@@V?$allocator@D@2@@std@@@2@V?$allocator@U?$pair@$$CBV?$basic_string@DU?$char_traits@D@std@@V?$allocator@D@2@@std@@V12@@std@@@2@$0A@@std@@@std@@IEBAPEAU?$_Tree_node@U?$pair@$$CBV?$basic_string@DU?$char_traits@D@std@@V?$allocator@D@2@@std@@V12@@std@@PEAX@1@AEBV?$basic_string@DU?$char_traits@D@std@@V?$allocator@D@2@@1@@Z 0000000140018f10 f i metadatagram.obj
 0001:00017fb0       ??$_Pocca@V?$allocator@D@std@@@std@@YAXAEAV?$allocator@D@0@AEBV10@@Z 0000000140018fb0 f i metadatagram.obj
 0001:00017fe0       ??$_Pocca@V?$allocator@D@std@@@std@@YAXAEAV?$allocator@D@0@AEBV10@U?$integral_constant@_N$0A@@0@@Z 0000000140018fe0 f i metadatagram.obj
 0001:00017ff0       ??$_Pocca@V?$allocator@U?$_Tree_node@U?$pair@$$CBV?$basic_string@DU?$char_traits@D@std@@V?$allocator@D@2@@std@@V12@@std@@PEAX@std@@@std@@@std@@YAXAEAV?$allocator@U?$_Tree_node@U?$pair@$$CBV?$basic_string@DU?$char_traits@D@std@@V?$allocator@D@2@@std@@V12@@std@@PEAX@std@@@0@AEBV10@@Z 0000000140018ff0 f i metadatagram.obj
 0001:00018020       ??$_Pocca@V?$allocator@U?$_Tree_node@U?$pair@$$CBV?$basic_string@DU?$char_traits@D@std@@V?$allocator@D@2@@std@@V12@@std@@PEAX@std@@@std@@@std@@YAXAEAV?$allocator@U?$_Tree_node@U?$pair@$$CBV?$basic_string@DU?$char_traits@D@std@@V?$allocator@D@2@@std@@V12@@std@@PEAX@std@@@0@AEBV10@U?$integral_constant@_N$0A@@0@@Z 0000000140019020 f i metadatagram.obj
 0001:00018030       ??$_Ptr_copy_cat@V?$basic_string@DU?$char_traits@D@std@@V?$allocator@D@2@@std@@V12@@std@@YA?AU_General_ptr_iterator_tag@0@AEBQEAV?$basic_string@DU?$char_traits@D@std@@V?$allocator@D@2@@0@0@Z 0000000140019030 f i metadatagram.obj
 0001:00018060       ??$_Ptr_move_cat@V?$basic_string@DU?$char_traits@D@std@@V?$allocator@D@2@@std@@V12@@std@@YA?AU_General_ptr_iterator_tag@0@AEBQEAV?$basic_string@DU?$char_traits@D@std@@V?$allocator@D@2@@0@0@Z 0000000140019060 f i metadatagram.obj
 0001:000187a0       ??$_Rechecked@PEAV?$basic_string@DU?$char_traits@D@std@@V?$allocator@D@2@@std@@PEAV12@@std@@YAAEAPEAV?$basic_string@DU?$char_traits@D@std@@V?$allocator@D@2@@0@AEAPEAV10@QEAV10@@Z 00000001400197a0 f i metadatagram.obj
 0001:000187c0       ??$_Traits_compare@U?$char_traits@D@std@@@std@@YAHQEBD_K01@Z 00000001400197c0 f i metadatagram.obj
 0001:00018840       ??$_UIntegral_to_buff@DI@std@@YAPEADPEADI@Z 0000000140019840 f i metadatagram.obj
 0001:000188a0       ??$_Ucopy@PEAV?$basic_string@DU?$char_traits@D@std@@V?$allocator@D@2@@std@@@?$vector@V?$basic_string@DU?$char_traits@D@std@@V?$allocator@D@2@@std@@V?$allocator@V?$basic_string@DU?$char_traits@D@std@@V?$allocator@D@2@@std@@@2@@std@@AEAAPEAV?$basic_string@DU?$char_traits@D@std@@V?$allocator@D@2@@1@PEAV21@00@Z 00000001400198a0 f i metadatagram.obj
 0001:000188e0       ??$_Unchecked@PEAD@std@@YAPEADPEAD@Z 00000001400198e0 f i metadatagram.obj
 0001:000188f0       ??$_Unchecked@PEAV?$basic_string@DU?$char_traits@D@std@@V?$allocator@D@2@@std@@@std@@YAPEAV?$basic_string@DU?$char_traits@D@std@@V?$allocator@D@2@@0@PEAV10@@Z 00000001400198f0 f i metadatagram.obj
 0001:00018900       ??$_Unfancy@V?$basic_string@DU?$char_traits@D@std@@V?$allocator@D@2@@std@@@std@@YAPEAV?$basic_string@DU?$char_traits@D@std@@V?$allocator@D@2@@0@PEAV10@@Z 0000000140019900 f i metadatagram.obj
 0001:00018910       ??$_Uninitialized_copy@PEAV?$basic_string@DU?$char_traits@D@std@@V?$allocator@D@2@@std@@PEAV12@V?$allocator@V?$basic_string@DU?$char_traits@D@std@@V?$allocator@D@2@@std@@@2@@std@@YAPEAV?$basic_string@DU?$char_traits@D@std@@V?$allocator@D@2@@0@QEAV10@0PEAV10@AEAV?$allocator@V?$basic_string@DU?$char_traits@D@std@@V?$allocator@D@2@@std@@@0@@Z 0000000140019910 f i metadatagram.obj
 0001:000189d0       ??$_Uninitialized_copy_al_unchecked@PEAV?$basic_string@DU?$char_traits@D@std@@V?$allocator@D@2@@std@@PEAV12@V?$allocator@V?$basic_string@DU?$char_traits@D@std@@V?$allocator@D@2@@std@@@2@@std@@YAPEAV?$basic_string@DU?$char_traits@D@std@@V?$allocator@D@2@@0@PEAV10@QEAV10@1AEAV?$allocator@V?$basic_string@DU?$char_traits@D@std@@V?$allocator@D@2@@std@@@0@U_General_ptr_iterator_tag@0@U_Unused_parameter@0@@Z 00000001400199d0 f i metadatagram.obj
 0001:00018a60       ??$_Uninitialized_move@PEAV?$basic_string@DU?$char_traits@D@std@@V?$allocator@D@2@@std@@PEAV12@V?$allocator@V?$basic_string@DU?$char_traits@D@std@@V?$allocator@D@2@@std@@@2@@std@@YAPEAV?$basic_string@DU?$char_traits@D@std@@V?$allocator@D@2@@0@QEAV10@0PEAV10@AEAV?$allocator@V?$basic_string@DU?$char_traits@D@std@@V?$allocator@D@2@@std@@@0@@Z 0000000140019a60 f i metadatagram.obj
 0001:00018b20       ??$_Uninitialized_move_al_unchecked@PEAV?$basic_string@DU?$char_traits@D@std@@V?$allocator@D@2@@std@@PEAV12@V?$allocator@V?$basic_string@DU?$char_traits@D@std@@V?$allocator@D@2@@std@@@2@@std@@YAPEAV?$basic_string@DU?$char_traits@D@std@@V?$allocator@D@2@@0@PEAV10@QEAV10@1AEAV?$allocator@V?$basic_string@DU?$char_traits@D@std@@V?$allocator@D@2@@std@@@0@U_General_ptr_iterator_tag@0@U_Unused_parameter@0@@Z 0000000140019b20 f i metadatagram.obj
 0001:00018bb0       ??$addressof@$$CBU?$pair@$$CBV?$basic_string@DU?$char_traits@D@std@@V?$allocator@D@2@@std@@V12@@std@@@std@@YAPEBU?$pair@$$CBV?$basic_string@DU?$char_traits@D@std@@V?$allocator@D@2@@std@@V12@@0@AEBU10@@Z 0000000140019bb0 f i metadatagram.obj
 0001:00018bc0       ??$addressof@$$CBV?$_Tree@V?$_Tmap_traits@V?$basic_string@DU?$char_traits@D@std@@V?$allocator@D@2@@std@@V12@U?$less@V?$basic_string@DU?$char_traits@D@std@@V?$allocator@D@2@@std@@@2@V?$allocator@U?$pair@$$CBV?$basic_string@DU?$char_traits@D@std@@V?$allocator@D@2@@std@@V12@@std@@@2@$0A@@std@@@std@@@std@@YAPEBV?$_Tree@V?$_Tmap_traits@V?$basic_string@DU?$char_traits@D@std@@V?$allocator@D@2@@std@@V12@U?$less@V?$basic_string@DU?$char_traits@D@std@@V?$allocator@D@2@@std@@@2@V?$allocator@U?$pair@$$CBV?$basic_string@DU?$char_traits@D@std@@V?$allocator@D@2@@std@@V12@@std@@@2@$0A@@std@@@0@AEBV10@@Z 0000000140019bc0 f i metadatagram.obj
 0001:00018bd0       ??$addressof@$$CBV?$_Tree_val@U?$_Tree_simple_types@U?$pair@$$CBV?$basic_string@DU?$char_traits@D@std@@V?$allocator@D@2@@std@@V12@@std@@@std@@@std@@@std@@YAPEBV?$_Tree_val@U?$_Tree_simple_types@U?$pair@$$CBV?$basic_string@DU?$char_traits@D@std@@V?$allocator@D@2@@std@@V12@@std@@@std@@@0@AEBV10@@Z 0000000140019bd0 f i metadatagram.obj
 0001:00018be0       ??$addressof@$$CBV?$basic_string@DU?$char_traits@D@std@@V?$allocator@D@2@@std@@@std@@YAPEBV?$basic_string@DU?$char_traits@D@std@@V?$allocator@D@2@@0@AEBV10@@Z 0000000140019be0 f i metadatagram.obj
 0001:00018bf0       ??$addressof@PEAU?$_Tree_node@U?$pair@$$CBV?$basic_string@DU?$char_traits@D@std@@V?$allocator@D@2@@std@@V12@@std@@PEAX@std@@@std@@YAPEAPEAU?$_Tree_node@U?$pair@$$CBV?$basic_string@DU?$char_traits@D@std@@V?$allocator@D@2@@std@@V12@@std@@PEAX@0@AEAPEAU10@@Z 0000000140019bf0 f i metadatagram.obj
 0001:00018c00       ??$addressof@U?$pair@$$CBV?$basic_string@DU?$char_traits@D@std@@V?$allocator@D@2@@std@@V12@@std@@@std@@YAPEAU?$pair@$$CBV?$basic_string@DU?$char_traits@D@std@@V?$allocator@D@2@@std@@V12@@0@AEAU10@@Z 0000000140019c00 f i metadatagram.obj
 0001:00018c10       ??$addressof@V?$_Tree_val@U?$_Tree_simple_types@U?$pair@$$CBV?$basic_string@DU?$char_traits@D@std@@V?$allocator@D@2@@std@@V12@@std@@@std@@@std@@@std@@YAPEAV?$_Tree_val@U?$_Tree_simple_types@U?$pair@$$CBV?$basic_string@DU?$char_traits@D@std@@V?$allocator@D@2@@std@@V12@@std@@@std@@@0@AEAV10@@Z 0000000140019c10 f i metadatagram.obj
 0001:00018c20       ??$addressof@V?$_Vector_val@U?$_Simple_types@V?$basic_string@DU?$char_traits@D@std@@V?$allocator@D@2@@std@@@std@@@std@@@std@@YAPEAV?$_Vector_val@U?$_Simple_types@V?$basic_string@DU?$char_traits@D@std@@V?$allocator@D@2@@std@@@std@@@0@AEAV10@@Z 0000000140019c20 f i metadatagram.obj
 0001:00018c30       ??$construct@PEAU?$_Tree_node@U?$pair@$$CBV?$basic_string@DU?$char_traits@D@std@@V?$allocator@D@2@@std@@V12@@std@@PEAX@std@@AEAPEAU12@@?$_Default_allocator_traits@V?$allocator@U?$_Tree_node@U?$pair@$$CBV?$basic_string@DU?$char_traits@D@std@@V?$allocator@D@2@@std@@V12@@std@@PEAX@std@@@std@@@std@@SAXAEAV?$allocator@U?$_Tree_node@U?$pair@$$CBV?$basic_string@DU?$char_traits@D@std@@V?$allocator@D@2@@std@@V12@@std@@PEAX@std@@@1@QEAPEAU?$_Tree_node@U?$pair@$$CBV?$basic_string@DU?$char_traits@D@std@@V?$allocator@D@2@@std@@V12@@std@@PEAX@1@AEAPEAU31@@Z 0000000140019c30 f i metadatagram.obj
 0001:00018c80       ??$construct@U?$pair@$$CBV?$basic_string@DU?$char_traits@D@std@@V?$allocator@D@2@@std@@V12@@std@@AEAU12@@?$_Default_allocator_traits@V?$allocator@U?$_Tree_node@U?$pair@$$CBV?$basic_string@DU?$char_traits@D@std@@V?$allocator@D@2@@std@@V12@@std@@PEAX@std@@@std@@@std@@SAXAEAV?$allocator@U?$_Tree_node@U?$pair@$$CBV?$basic_string@DU?$char_traits@D@std@@V?$allocator@D@2@@std@@V12@@std@@PEAX@std@@@1@QEAU?$pair@$$CBV?$basic_string@DU?$char_traits@D@std@@V?$allocator@D@2@@std@@V12@@1@AEAU31@@Z 0000000140019c80 f i metadatagram.obj
 0001:00018cd0       ??$construct@U?$pair@$$CBV?$basic_string@DU?$char_traits@D@std@@V?$allocator@D@2@@std@@V12@@std@@U?$pair@V?$basic_string@DU?$char_traits@D@std@@V?$allocator@D@2@@std@@V12@@2@@?$_Default_allocator_traits@V?$allocator@U?$_Tree_node@U?$pair@$$CBV?$basic_string@DU?$char_traits@D@std@@V?$allocator@D@2@@std@@V12@@std@@PEAX@std@@@std@@@std@@SAXAEAV?$allocator@U?$_Tree_node@U?$pair@$$CBV?$basic_string@DU?$char_traits@D@std@@V?$allocator@D@2@@std@@V12@@std@@PEAX@std@@@1@QEAU?$pair@$$CBV?$basic_string@DU?$char_traits@D@std@@V?$allocator@D@2@@std@@V12@@1@$$QEAU?$pair@V?$basic_string@DU?$char_traits@D@std@@V?$allocator@D@2@@std@@V12@@1@@Z 0000000140019cd0 f i metadatagram.obj
 0001:00018d20       ??$construct@V?$basic_string@DU?$char_traits@D@std@@V?$allocator@D@2@@std@@AEAV12@@?$_Default_allocator_traits@V?$allocator@V?$basic_string@DU?$char_traits@D@std@@V?$allocator@D@2@@std@@@std@@@std@@SAXAEAV?$allocator@V?$basic_string@DU?$char_traits@D@std@@V?$allocator@D@2@@std@@@1@QEAV?$basic_string@DU?$char_traits@D@std@@V?$allocator@D@2@@1@AEAV31@@Z 0000000140019d20 f i metadatagram.obj
 0001:00018d70       ??$construct@V?$basic_string@DU?$char_traits@D@std@@V?$allocator@D@2@@std@@AEBV12@@?$_Default_allocator_traits@V?$allocator@V?$basic_string@DU?$char_traits@D@std@@V?$allocator@D@2@@std@@@std@@@std@@SAXAEAV?$allocator@V?$basic_string@DU?$char_traits@D@std@@V?$allocator@D@2@@std@@@1@QEAV?$basic_string@DU?$char_traits@D@std@@V?$allocator@D@2@@1@AEBV31@@Z 0000000140019d70 f i metadatagram.obj
 0001:00018dc0       ??$construct@V?$basic_string@DU?$char_traits@D@std@@V?$allocator@D@2@@std@@V12@@?$_Default_allocator_traits@V?$allocator@V?$basic_string@DU?$char_traits@D@std@@V?$allocator@D@2@@std@@@std@@@std@@SAXAEAV?$allocator@V?$basic_string@DU?$char_traits@D@std@@V?$allocator@D@2@@std@@@1@QEAV?$basic_string@DU?$char_traits@D@std@@V?$allocator@D@2@@1@$$QEAV31@@Z 0000000140019dc0 f i metadatagram.obj
 0001:00018e10       ??$destroy@PEAU?$_Tree_node@U?$pair@$$CBV?$basic_string@DU?$char_traits@D@std@@V?$allocator@D@2@@std@@V12@@std@@PEAX@std@@@?$_Default_allocator_traits@V?$allocator@U?$_Tree_node@U?$pair@$$CBV?$basic_string@DU?$char_traits@D@std@@V?$allocator@D@2@@std@@V12@@std@@PEAX@std@@@std@@@std@@SAXAEAV?$allocator@U?$_Tree_node@U?$pair@$$CBV?$basic_string@DU?$char_traits@D@std@@V?$allocator@D@2@@std@@V12@@std@@PEAX@std@@@1@QEAPEAU?$_Tree_node@U?$pair@$$CBV?$basic_string@DU?$char_traits@D@std@@V?$allocator@D@2@@std@@V12@@std@@PEAX@1@@Z 0000000140019e10 f i metadatagram.obj
 0001:00018e20       ??$destroy@U?$pair@$$CBV?$basic_string@DU?$char_traits@D@std@@V?$allocator@D@2@@std@@V12@@std@@@?$_Default_allocator_traits@V?$allocator@U?$_Tree_node@U?$pair@$$CBV?$basic_string@DU?$char_traits@D@std@@V?$allocator@D@2@@std@@V12@@std@@PEAX@std@@@std@@@std@@SAXAEAV?$allocator@U?$_Tree_node@U?$pair@$$CBV?$basic_string@DU?$char_traits@D@std@@V?$allocator@D@2@@std@@V12@@std@@PEAX@std@@@1@QEAU?$pair@$$CBV?$basic_string@DU?$char_traits@D@std@@V?$allocator@D@2@@std@@V12@@1@@Z 0000000140019e20 f i metadatagram.obj
 0001:00018e40       ??$destroy@V?$basic_string@DU?$char_traits@D@std@@V?$allocator@D@2@@std@@@?$_Default_allocator_traits@V?$allocator@V?$basic_string@DU?$char_traits@D@std@@V?$allocator@D@2@@std@@@std@@@std@@SAXAEAV?$allocator@V?$basic_string@DU?$char_traits@D@std@@V?$allocator@D@2@@std@@@1@QEAV?$basic_string@DU?$char_traits@D@std@@V?$allocator@D@2@@1@@Z 0000000140019e40 f i metadatagram.obj
 0001:00018e60       ??$emplace@U?$pair@V?$basic_string@DU?$char_traits@D@std@@V?$allocator@D@2@@std@@V12@@std@@@?$_Tree@V?$_Tmap_traits@V?$basic_string@DU?$char_traits@D@std@@V?$allocator@D@2@@std@@V12@U?$less@V?$basic_string@DU?$char_traits@D@std@@V?$allocator@D@2@@std@@@2@V?$allocator@U?$pair@$$CBV?$basic_string@DU?$char_traits@D@std@@V?$allocator@D@2@@std@@V12@@std@@@2@$0A@@std@@@std@@QEAA?AU?$pair@V?$_Tree_iterator@V?$_Tree_val@U?$_Tree_simple_types@U?$pair@$$CBV?$basic_string@DU?$char_traits@D@std@@V?$allocator@D@2@@std@@V12@@std@@@std@@@std@@@std@@_N@1@$$QEAU?$pair@V?$basic_string@DU?$char_traits@D@std@@V?$allocator@D@2@@std@@V12@@1@@Z 0000000140019e60 f i metadatagram.obj
 0001:00018ee0       ??$emplace_back@AEBV?$basic_string@DU?$char_traits@D@std@@V?$allocator@D@2@@std@@@?$vector@V?$basic_string@DU?$char_traits@D@std@@V?$allocator@D@2@@std@@V?$allocator@V?$basic_string@DU?$char_traits@D@std@@V?$allocator@D@2@@std@@@2@@std@@QEAAXAEBV?$basic_string@DU?$char_traits@D@std@@V?$allocator@D@2@@1@@Z 0000000140019ee0 f i metadatagram.obj
 0001:00018f50       ??$end@D$0BF@@std@@YAPEADAEAY0BF@D@Z 0000000140019f50 f i metadatagram.obj
 0001:00018f60       ??$endl@DU?$char_traits@D@std@@@std@@YAAEAV?$basic_ostream@DU?$char_traits@D@std@@@0@AEAV10@@Z 0000000140019f60 f i metadatagram.obj
 0001:00018fb0       ??$forward@AEAPEAU?$_Tree_node@U?$pair@$$CBV?$basic_string@DU?$char_traits@D@std@@V?$allocator@D@2@@std@@V12@@std@@PEAX@std@@@std@@YAAEAPEAU?$_Tree_node@U?$pair@$$CBV?$basic_string@DU?$char_traits@D@std@@V?$allocator@D@2@@std@@V12@@std@@PEAX@0@AEAPEAU10@@Z 0000000140019fb0 f i metadatagram.obj
 0001:00018fc0       ??$forward@AEAU?$pair@$$CBV?$basic_string@DU?$char_traits@D@std@@V?$allocator@D@2@@std@@V12@@std@@@std@@YAAEAU?$pair@$$CBV?$basic_string@DU?$char_traits@D@std@@V?$allocator@D@2@@std@@V12@@0@AEAU10@@Z 0000000140019fc0 f i metadatagram.obj
 0001:00018fd0       ??$forward@AEAV?$_Tree_iterator@V?$_Tree_val@U?$_Tree_simple_types@U?$pair@$$CBV?$basic_string@DU?$char_traits@D@std@@V?$allocator@D@2@@std@@V12@@std@@@std@@@std@@@std@@@std@@YAAEAV?$_Tree_iterator@V?$_Tree_val@U?$_Tree_simple_types@U?$pair@$$CBV?$basic_string@DU?$char_traits@D@std@@V?$allocator@D@2@@std@@V12@@std@@@std@@@std@@@0@AEAV10@@Z 0000000140019fd0 f i metadatagram.obj
 0001:00018fe0       ??$forward@AEAV?$basic_string@DU?$char_traits@D@std@@V?$allocator@D@2@@std@@@std@@YAAEAV?$basic_string@DU?$char_traits@D@std@@V?$allocator@D@2@@0@AEAV10@@Z 0000000140019fe0 f i metadatagram.obj
 0001:00018ff0       ??$forward@AEBU?$less@V?$basic_string@DU?$char_traits@D@std@@V?$allocator@D@2@@std@@@std@@@std@@YAAEBU?$less@V?$basic_string@DU?$char_traits@D@std@@V?$allocator@D@2@@std@@@0@AEBU10@@Z 0000000140019ff0 f i metadatagram.obj
 0001:00019000       ??$forward@AEBV?$basic_string@DU?$char_traits@D@std@@V?$allocator@D@2@@std@@@std@@YAAEBV?$basic_string@DU?$char_traits@D@std@@V?$allocator@D@2@@0@AEBV10@@Z 000000014001a000 f i metadatagram.obj
 0001:00019010       ??$forward@U?$pair@V?$basic_string@DU?$char_traits@D@std@@V?$allocator@D@2@@std@@V12@@std@@@std@@YA$$QEAU?$pair@V?$basic_string@DU?$char_traits@D@std@@V?$allocator@D@2@@std@@V12@@0@AEAU10@@Z 000000014001a010 f i metadatagram.obj
 0001:00019020       ??$forward@V?$_Tree_iterator@V?$_Tree_val@U?$_Tree_simple_types@U?$pair@$$CBV?$basic_string@DU?$char_traits@D@std@@V?$allocator@D@2@@std@@V12@@std@@@std@@@std@@@std@@@std@@YA$$QEAV?$_Tree_iterator@V?$_Tree_val@U?$_Tree_simple_types@U?$pair@$$CBV?$basic_string@DU?$char_traits@D@std@@V?$allocator@D@2@@std@@V12@@std@@@std@@@std@@@0@AEAV10@@Z 000000014001a020 f i metadatagram.obj
 0001:00019030       ??$forward@V?$allocator@V?$basic_string@DU?$char_traits@D@std@@V?$allocator@D@2@@std@@@std@@@std@@YA$$QEAV?$allocator@V?$basic_string@DU?$char_traits@D@std@@V?$allocator@D@2@@std@@@0@AEAV10@@Z 000000014001a030 f i metadatagram.obj
 0001:00019040       ??$forward@V?$basic_string@DU?$char_traits@D@std@@V?$allocator@D@2@@std@@@std@@YA$$QEAV?$basic_string@DU?$char_traits@D@std@@V?$allocator@D@2@@0@AEAV10@@Z 000000014001a040 f i metadatagram.obj
 0001:00019050       ??$getline@DU?$char_traits@D@std@@V?$allocator@D@2@@std@@YAAEAV?$basic_istream@DU?$char_traits@D@std@@@0@$$QEAV10@AEAV?$basic_string@DU?$char_traits@D@std@@V?$allocator@D@2@@0@D@Z 000000014001a050 f i metadatagram.obj
 0001:000192a0       ??$getline@DU?$char_traits@D@std@@V?$allocator@D@2@@std@@YAAEAV?$basic_istream@DU?$char_traits@D@std@@@0@AEAV10@AEAV?$basic_string@DU?$char_traits@D@std@@V?$allocator@D@2@@0@D@Z 000000014001a2a0 f i metadatagram.obj
 0001:000192e0       ??$insert@U?$pair@V?$basic_string@DU?$char_traits@D@std@@V?$allocator@D@2@@std@@V12@@std@@X@?$map@V?$basic_string@DU?$char_traits@D@std@@V?$allocator@D@2@@std@@V12@U?$less@V?$basic_string@DU?$char_traits@D@std@@V?$allocator@D@2@@std@@@2@V?$allocator@U?$pair@$$CBV?$basic_string@DU?$char_traits@D@std@@V?$allocator@D@2@@std@@V12@@std@@@2@@std@@QEAA?AU?$pair@V?$_Tree_iterator@V?$_Tree_val@U?$_Tree_simple_types@U?$pair@$$CBV?$basic_string@DU?$char_traits@D@std@@V?$allocator@D@2@@std@@V12@@std@@@std@@@std@@@std@@_N@1@$$QEAU?$pair@V?$basic_string@DU?$char_traits@D@std@@V?$allocator@D@2@@std@@V12@@1@@Z 000000014001a2e0 f i metadatagram.obj
 0001:00019330       ??$move@AEAV?$allocator@V?$basic_string@DU?$char_traits@D@std@@V?$allocator@D@2@@std@@@std@@@std@@YA$$QEAV?$allocator@V?$basic_string@DU?$char_traits@D@std@@V?$allocator@D@2@@std@@@0@AEAV10@@Z 000000014001a330 f i metadatagram.obj
 0001:00019340       ??$move@AEAV?$vector@V?$basic_string@DU?$char_traits@D@std@@V?$allocator@D@2@@std@@V?$allocator@V?$basic_string@DU?$char_traits@D@std@@V?$allocator@D@2@@std@@@2@@std@@@std@@YA$$QEAV?$vector@V?$basic_string@DU?$char_traits@D@std@@V?$allocator@D@2@@std@@V?$allocator@V?$basic_string@DU?$char_traits@D@std@@V?$allocator@D@2@@std@@@2@@0@AEAV10@@Z 000000014001a340 f i metadatagram.obj
 0001:00019350       ??0?$_Tree@V?$_Tmap_traits@V?$basic_string@DU?$char_traits@D@std@@V?$allocator@D@2@@std@@V12@U?$less@V?$basic_string@DU?$char_traits@D@std@@V?$allocator@D@2@@std@@@2@V?$allocator@U?$pair@$$CBV?$basic_string@DU?$char_traits@D@std@@V?$allocator@D@2@@std@@V12@@std@@@2@$0A@@std@@@std@@QEAA@AEBU?$less@V?$basic_string@DU?$char_traits@D@std@@V?$allocator@D@2@@std@@@1@@Z 000000014001a350 f i metadatagram.obj
 0001:00019380       ??0?$_Tree_comp_alloc@V?$_Tmap_traits@V?$basic_string@DU?$char_traits@D@std@@V?$allocator@D@2@@std@@V12@U?$less@V?$basic_string@DU?$char_traits@D@std@@V?$allocator@D@2@@std@@@2@V?$allocator@U?$pair@$$CBV?$basic_string@DU?$char_traits@D@std@@V?$allocator@D@2@@std@@V12@@std@@@2@$0A@@std@@@std@@QEAA@AEBU?$less@V?$basic_string@DU?$char_traits@D@std@@V?$allocator@D@2@@std@@@1@@Z 000000014001a380 f i metadatagram.obj
 0001:000193c0       ??0?$_Tree_const_iterator@V?$_Tree_val@U?$_Tree_simple_types@U?$pair@$$CBV?$basic_string@DU?$char_traits@D@std@@V?$allocator@D@2@@std@@V12@@std@@@std@@@std@@@std@@QEAA@$$QEAV01@@Z 000000014001a3c0 f i metadatagram.obj
 0001:000193f0       ??0?$_Tree_const_iterator@V?$_Tree_val@U?$_Tree_simple_types@U?$pair@$$CBV?$basic_string@DU?$char_traits@D@std@@V?$allocator@D@2@@std@@V12@@std@@@std@@@std@@@std@@QEAA@AEBV01@@Z 000000014001a3f0 f i metadatagram.obj
 0001:00019420       ??0?$_Tree_const_iterator@V?$_Tree_val@U?$_Tree_simple_types@U?$pair@$$CBV?$basic_string@DU?$char_traits@D@std@@V?$allocator@D@2@@std@@V12@@std@@@std@@@std@@@std@@QEAA@PEAU?$_Tree_node@U?$pair@$$CBV?$basic_string@DU?$char_traits@D@std@@V?$allocator@D@2@@std@@V12@@std@@PEAX@1@PEBV?$_Tree_val@U?$_Tree_simple_types@U?$pair@$$CBV?$basic_string@DU?$char_traits@D@std@@V?$allocator@D@2@@std@@V12@@std@@@std@@@1@@Z 000000014001a420 f i metadatagram.obj
 0001:00019460       ??0?$_Tree_iterator@V?$_Tree_val@U?$_Tree_simple_types@U?$pair@$$CBV?$basic_string@DU?$char_traits@D@std@@V?$allocator@D@2@@std@@V12@@std@@@std@@@std@@@std@@QEAA@$$QEAV01@@Z 000000014001a460 f i metadatagram.obj
 0001:00019490       ??0?$_Tree_iterator@V?$_Tree_val@U?$_Tree_simple_types@U?$pair@$$CBV?$basic_string@DU?$char_traits@D@std@@V?$allocator@D@2@@std@@V12@@std@@@std@@@std@@@std@@QEAA@AEBV01@@Z 000000014001a490 f i metadatagram.obj
 0001:000194c0       ??0?$_Tree_iterator@V?$_Tree_val@U?$_Tree_simple_types@U?$pair@$$CBV?$basic_string@DU?$char_traits@D@std@@V?$allocator@D@2@@std@@V12@@std@@@std@@@std@@@std@@QEAA@PEAU?$_Tree_node@U?$pair@$$CBV?$basic_string@DU?$char_traits@D@std@@V?$allocator@D@2@@std@@V12@@std@@PEAX@1@PEBV?$_Tree_val@U?$_Tree_simple_types@U?$pair@$$CBV?$basic_string@DU?$char_traits@D@std@@V?$allocator@D@2@@std@@V12@@std@@@std@@@1@@Z 000000014001a4c0 f i metadatagram.obj
 0001:00019500       ??0?$_Tree_unchecked_const_iterator@V?$_Tree_val@U?$_Tree_simple_types@U?$pair@$$CBV?$basic_string@DU?$char_traits@D@std@@V?$allocator@D@2@@std@@V12@@std@@@std@@@std@@U_Iterator_base12@2@@std@@QEAA@$$QEAV01@@Z 000000014001a500 f i metadatagram.obj
 0001:00019540       ??0?$_Tree_unchecked_const_iterator@V?$_Tree_val@U?$_Tree_simple_types@U?$pair@$$CBV?$basic_string@DU?$char_traits@D@std@@V?$allocator@D@2@@std@@V12@@std@@@std@@@std@@U_Iterator_base12@2@@std@@QEAA@AEBV01@@Z 000000014001a540 f i metadatagram.obj
 0001:00019580       ??0?$_Tree_unchecked_const_iterator@V?$_Tree_val@U?$_Tree_simple_types@U?$pair@$$CBV?$basic_string@DU?$char_traits@D@std@@V?$allocator@D@2@@std@@V12@@std@@@std@@@std@@U_Iterator_base12@2@@std@@QEAA@PEAU?$_Tree_node@U?$pair@$$CBV?$basic_string@DU?$char_traits@D@std@@V?$allocator@D@2@@std@@V12@@std@@PEAX@1@PEBV?$_Tree_val@U?$_Tree_simple_types@U?$pair@$$CBV?$basic_string@DU?$char_traits@D@std@@V?$allocator@D@2@@std@@V12@@std@@@std@@@1@@Z 000000014001a580 f i metadatagram.obj
 0001:000195d0       ??0?$_Tree_val@U?$_Tree_simple_types@U?$pair@$$CBV?$basic_string@DU?$char_traits@D@std@@V?$allocator@D@2@@std@@V12@@std@@@std@@@std@@QEAA@XZ 000000014001a5d0 f i metadatagram.obj
 0001:00019610       ??0?$_Uninitialized_backout_al@PEAV?$basic_string@DU?$char_traits@D@std@@V?$allocator@D@2@@std@@V?$allocator@V?$basic_string@DU?$char_traits@D@std@@V?$allocator@D@2@@std@@@2@@std@@QEAA@PEAV?$basic_string@DU?$char_traits@D@std@@V?$allocator@D@2@@1@AEAV?$allocator@V?$basic_string@DU?$char_traits@D@std@@V?$allocator@D@2@@std@@@1@@Z 000000014001a610 f i metadatagram.obj
 0001:00019650       ??0?$_Vector_alloc@U?$_Vec_base_types@V?$basic_string@DU?$char_traits@D@std@@V?$allocator@D@2@@std@@V?$allocator@V?$basic_string@DU?$char_traits@D@std@@V?$allocator@D@2@@std@@@2@@std@@@std@@QEAA@XZ 000000014001a650 f i metadatagram.obj
 0001:00019680       ??0?$_Vector_val@U?$_Simple_types@V?$basic_string@DU?$char_traits@D@std@@V?$allocator@D@2@@std@@@std@@@std@@QEAA@XZ 000000014001a680 f i metadatagram.obj
 0001:000196d0       ??0?$allocator@U?$_Tree_node@U?$pair@$$CBV?$basic_string@DU?$char_traits@D@std@@V?$allocator@D@2@@std@@V12@@std@@PEAX@std@@@std@@QEAA@XZ 000000014001a6d0 f i metadatagram.obj
 0001:000196e0       ??0?$allocator@V?$basic_string@DU?$char_traits@D@std@@V?$allocator@D@2@@std@@@std@@QEAA@XZ 000000014001a6e0 f i metadatagram.obj
 0001:000196f0       ??0?$basic_stringbuf@DU?$char_traits@D@std@@V?$allocator@D@2@@std@@QEAA@AEBV?$basic_string@DU?$char_traits@D@std@@V?$allocator@D@2@@1@H@Z 000000014001a6f0 f i metadatagram.obj
 0001:00019790       ??0?$basic_stringstream@DU?$char_traits@D@std@@V?$allocator@D@2@@std@@QEAA@AEBV?$basic_string@DU?$char_traits@D@std@@V?$allocator@D@2@@1@H@Z 000000014001a790 f i metadatagram.obj
 0001:00019890       ??0?$map@V?$basic_string@DU?$char_traits@D@std@@V?$allocator@D@2@@std@@V12@U?$less@V?$basic_string@DU?$char_traits@D@std@@V?$allocator@D@2@@std@@@2@V?$allocator@U?$pair@$$CBV?$basic_string@DU?$char_traits@D@std@@V?$allocator@D@2@@std@@V12@@std@@@2@@std@@QEAA@XZ 000000014001a890 f i metadatagram.obj
 0001:000198c0       ??0?$pair@$$CBV?$basic_string@DU?$char_traits@D@std@@V?$allocator@D@2@@std@@V12@@std@@QEAA@AEBU01@@Z 000000014001a8c0 f i metadatagram.obj
 0001:00019910       ??0?$vector@V?$basic_string@DU?$char_traits@D@std@@V?$allocator@D@2@@std@@V?$allocator@V?$basic_string@DU?$char_traits@D@std@@V?$allocator@D@2@@std@@@2@@std@@QEAA@$$QEAV01@@Z 000000014001a910 f i metadatagram.obj
 0001:00019990       ??0?$vector@V?$basic_string@DU?$char_traits@D@std@@V?$allocator@D@2@@std@@V?$allocator@V?$basic_string@DU?$char_traits@D@std@@V?$allocator@D@2@@std@@@2@@std@@QEAA@AEBV01@@Z 000000014001a990 f i metadatagram.obj
 0001:00019a60       ??0?$vector@V?$basic_string@DU?$char_traits@D@std@@V?$allocator@D@2@@std@@V?$allocator@V?$basic_string@DU?$char_traits@D@std@@V?$allocator@D@2@@std@@@2@@std@@QEAA@XZ 000000014001aa60 f i metadatagram.obj
 0001:00019a90       ??1?$_Tree@V?$_Tmap_traits@V?$basic_string@DU?$char_traits@D@std@@V?$allocator@D@2@@std@@V12@U?$less@V?$basic_string@DU?$char_traits@D@std@@V?$allocator@D@2@@std@@@2@V?$allocator@U?$pair@$$CBV?$basic_string@DU?$char_traits@D@std@@V?$allocator@D@2@@std@@V12@@std@@@2@$0A@@std@@@std@@QEAA@XZ 000000014001aa90 f i metadatagram.obj
 0001:00019ac0       ??1?$_Tree_comp_alloc@V?$_Tmap_traits@V?$basic_string@DU?$char_traits@D@std@@V?$allocator@D@2@@std@@V12@U?$less@V?$basic_string@DU?$char_traits@D@std@@V?$allocator@D@2@@std@@@2@V?$allocator@U?$pair@$$CBV?$basic_string@DU?$char_traits@D@std@@V?$allocator@D@2@@std@@V12@@std@@@2@$0A@@std@@@std@@QEAA@XZ 000000014001aac0 f i metadatagram.obj
 0001:00019b00       ??1?$_Tree_const_iterator@V?$_Tree_val@U?$_Tree_simple_types@U?$pair@$$CBV?$basic_string@DU?$char_traits@D@std@@V?$allocator@D@2@@std@@V12@@std@@@std@@@std@@@std@@QEAA@XZ 000000014001ab00 f i metadatagram.obj
 0001:00019b20       ??1?$_Tree_iterator@V?$_Tree_val@U?$_Tree_simple_types@U?$pair@$$CBV?$basic_string@DU?$char_traits@D@std@@V?$allocator@D@2@@std@@V12@@std@@@std@@@std@@@std@@QEAA@XZ 000000014001ab20 f i metadatagram.obj
 0001:00019b40       ??1?$_Tree_unchecked_const_iterator@V?$_Tree_val@U?$_Tree_simple_types@U?$pair@$$CBV?$basic_string@DU?$char_traits@D@std@@V?$allocator@D@2@@std@@V12@@std@@@std@@@std@@U_Iterator_base12@2@@std@@QEAA@XZ 000000014001ab40 f i metadatagram.obj
 0001:00019b60       ??1?$_Uninitialized_backout_al@PEAV?$basic_string@DU?$char_traits@D@std@@V?$allocator@D@2@@std@@V?$allocator@V?$basic_string@DU?$char_traits@D@std@@V?$allocator@D@2@@std@@@2@@std@@QEAA@XZ 000000014001ab60 f i metadatagram.obj
 0001:00019ba0       ??1?$_Vector_alloc@U?$_Vec_base_types@V?$basic_string@DU?$char_traits@D@std@@V?$allocator@D@2@@std@@V?$allocator@V?$basic_string@DU?$char_traits@D@std@@V?$allocator@D@2@@std@@@2@@std@@@std@@QEAA@XZ 000000014001aba0 f i metadatagram.obj
 0001:00019bd0       ??1?$map@V?$basic_string@DU?$char_traits@D@std@@V?$allocator@D@2@@std@@V12@U?$less@V?$basic_string@DU?$char_traits@D@std@@V?$allocator@D@2@@std@@@2@V?$allocator@U?$pair@$$CBV?$basic_string@DU?$char_traits@D@std@@V?$allocator@D@2@@std@@V12@@std@@@2@@std@@QEAA@XZ 000000014001abd0 f i metadatagram.obj
 0001:00019bf0       ??1?$pair@$$CBV?$basic_string@DU?$char_traits@D@std@@V?$allocator@D@2@@std@@V12@@std@@QEAA@XZ 000000014001abf0 f i metadatagram.obj
 0001:00019c20       ??1?$pair@V?$_Tree_iterator@V?$_Tree_val@U?$_Tree_simple_types@U?$pair@$$CBV?$basic_string@DU?$char_traits@D@std@@V?$allocator@D@2@@std@@V12@@std@@@std@@@std@@@std@@_N@std@@QEAA@XZ 000000014001ac20 f i metadatagram.obj
 0001:00019c40       ??1?$pair@V?$basic_string@DU?$char_traits@D@std@@V?$allocator@D@2@@std@@V12@@std@@QEAA@XZ 000000014001ac40 f i metadatagram.obj
 0001:00019c70       ??1?$vector@V?$basic_string@DU?$char_traits@D@std@@V?$allocator@D@2@@std@@V?$allocator@V?$basic_string@DU?$char_traits@D@std@@V?$allocator@D@2@@std@@@2@@std@@QEAA@XZ 000000014001ac70 f i metadatagram.obj
 0001:00019ca0       ??4?$_Tree@V?$_Tmap_traits@V?$basic_string@DU?$char_traits@D@std@@V?$allocator@D@2@@std@@V12@U?$less@V?$basic_string@DU?$char_traits@D@std@@V?$allocator@D@2@@std@@@2@V?$allocator@U?$pair@$$CBV?$basic_string@DU?$char_traits@D@std@@V?$allocator@D@2@@std@@V12@@std@@@2@$0A@@std@@@std@@QEAAAEAV01@AEBV01@@Z 000000014001aca0 f i metadatagram.obj
 0001:00019d20       ??4?$basic_string@DU?$char_traits@D@std@@V?$allocator@D@2@@std@@QEAAAEAV01@AEBV01@@Z 000000014001ad20 f i metadatagram.obj
 0001:00019da0       ??4?$map@V?$basic_string@DU?$char_traits@D@std@@V?$allocator@D@2@@std@@V12@U?$less@V?$basic_string@DU?$char_traits@D@std@@V?$allocator@D@2@@std@@@2@V?$allocator@U?$pair@$$CBV?$basic_string@DU?$char_traits@D@std@@V?$allocator@D@2@@std@@V12@@std@@@2@@std@@QEAAAEAV01@AEBV01@@Z 000000014001ada0 f i metadatagram.obj
 0001:00019dd0       ??8?$_Tree_const_iterator@V?$_Tree_val@U?$_Tree_simple_types@U?$pair@$$CBV?$basic_string@DU?$char_traits@D@std@@V?$allocator@D@2@@std@@V12@@std@@@std@@@std@@@std@@QEBA_NAEBV01@@Z 000000014001add0 f i metadatagram.obj
 0001:00019e80       ??9?$_Tree_const_iterator@V?$_Tree_val@U?$_Tree_simple_types@U?$pair@$$CBV?$basic_string@DU?$char_traits@D@std@@V?$allocator@D@2@@std@@V12@@std@@@std@@@std@@@std@@QEBA_NAEBV01@@Z 000000014001ae80 f i metadatagram.obj
 0001:00019ec0       ??A?$vector@V?$basic_string@DU?$char_traits@D@std@@V?$allocator@D@2@@std@@V?$allocator@V?$basic_string@DU?$char_traits@D@std@@V?$allocator@D@2@@std@@@2@@std@@QEAAAEAV?$basic_string@DU?$char_traits@D@std@@V?$allocator@D@2@@1@_K@Z 000000014001aec0 f i metadatagram.obj
 0001:00019f40       ??C?$_Tree_const_iterator@V?$_Tree_val@U?$_Tree_simple_types@U?$pair@$$CBV?$basic_string@DU?$char_traits@D@std@@V?$allocator@D@2@@std@@V12@@std@@@std@@@std@@@std@@QEBAPEBU?$pair@$$CBV?$basic_string@DU?$char_traits@D@std@@V?$allocator@D@2@@std@@V12@@1@XZ 000000014001af40 f i metadatagram.obj
 0001:00019f60       ??D?$_Tree_const_iterator@V?$_Tree_val@U?$_Tree_simple_types@U?$pair@$$CBV?$basic_string@DU?$char_traits@D@std@@V?$allocator@D@2@@std@@V12@@std@@@std@@@std@@@std@@QEBAAEBU?$pair@$$CBV?$basic_string@DU?$char_traits@D@std@@V?$allocator@D@2@@std@@V12@@1@XZ 000000014001af60 f i metadatagram.obj
 0001:0001a000       ??E?$_Tree_const_iterator@V?$_Tree_val@U?$_Tree_simple_types@U?$pair@$$CBV?$basic_string@DU?$char_traits@D@std@@V?$allocator@D@2@@std@@V12@@std@@@std@@@std@@@std@@QEAA?AV01@H@Z 000000014001b000 f i metadatagram.obj
 0001:0001a070       ??E?$_Tree_const_iterator@V?$_Tree_val@U?$_Tree_simple_types@U?$pair@$$CBV?$basic_string@DU?$char_traits@D@std@@V?$allocator@D@2@@std@@V12@@std@@@std@@@std@@@std@@QEAAAEAV01@XZ 000000014001b070 f i metadatagram.obj
 0001:0001a100       ??E?$_Tree_unchecked_const_iterator@V?$_Tree_val@U?$_Tree_simple_types@U?$pair@$$CBV?$basic_string@DU?$char_traits@D@std@@V?$allocator@D@2@@std@@V12@@std@@@std@@@std@@U_Iterator_base12@2@@std@@QEAAAEAV01@XZ 000000014001b100 f i metadatagram.obj
 0001:0001a1b0       ??F?$_Tree_const_iterator@V?$_Tree_val@U?$_Tree_simple_types@U?$pair@$$CBV?$basic_string@DU?$char_traits@D@std@@V?$allocator@D@2@@std@@V12@@std@@@std@@@std@@@std@@QEAAAEAV01@XZ 000000014001b1b0 f i metadatagram.obj
 0001:0001a290       ??F?$_Tree_iterator@V?$_Tree_val@U?$_Tree_simple_types@U?$pair@$$CBV?$basic_string@DU?$char_traits@D@std@@V?$allocator@D@2@@std@@V12@@std@@@std@@@std@@@std@@QEAAAEAV01@XZ 000000014001b290 f i metadatagram.obj
 0001:0001a2b0       ??F?$_Tree_unchecked_const_iterator@V?$_Tree_val@U?$_Tree_simple_types@U?$pair@$$CBV?$basic_string@DU?$char_traits@D@std@@V?$allocator@D@2@@std@@V12@@std@@@std@@@std@@U_Iterator_base12@2@@std@@QEAAAEAV01@XZ 000000014001b2b0 f i metadatagram.obj
 0001:0001a590       ??R?$less@V?$basic_string@DU?$char_traits@D@std@@V?$allocator@D@2@@std@@@std@@QEBA_NAEBV?$basic_string@DU?$char_traits@D@std@@V?$allocator@D@2@@1@0@Z 000000014001b590 f i metadatagram.obj
 0001:0001a5c0       ??Y?$basic_string@DU?$char_traits@D@std@@V?$allocator@D@2@@std@@QEAAAEAV01@D@Z 000000014001b5c0 f i metadatagram.obj
 0001:0001a5f0       ??_G?$basic_string@DU?$char_traits@D@std@@V?$allocator@D@2@@std@@QEAAPEAXI@Z 000000014001b5f0 f i metadatagram.obj
 0001:0001a630       ??_G?$pair@$$CBV?$basic_string@DU?$char_traits@D@std@@V?$allocator@D@2@@std@@V12@@std@@QEAAPEAXI@Z 000000014001b630 f i metadatagram.obj
 0001:0001a670       ??_EMetaDatagram@@UEAAPEAXI@Z 000000014001b670 f i metadatagram.obj
 0001:0001a670       ??_GMetaDatagram@@UEAAPEAXI@Z 000000014001b670 f i metadatagram.obj
 0001:0001a6b0       ?_Alloc_proxy@?$_Tree_comp_alloc@V?$_Tmap_traits@V?$basic_string@DU?$char_traits@D@std@@V?$allocator@D@2@@std@@V12@U?$less@V?$basic_string@DU?$char_traits@D@std@@V?$allocator@D@2@@std@@@2@V?$allocator@U?$pair@$$CBV?$basic_string@DU?$char_traits@D@std@@V?$allocator@D@2@@std@@V12@@std@@@2@$0A@@std@@@std@@QEAAXXZ 000000014001b6b0 f i metadatagram.obj
 0001:0001a760       ?_Alloc_proxy@?$_Vector_alloc@U?$_Vec_base_types@V?$basic_string@DU?$char_traits@D@std@@V?$allocator@D@2@@std@@V?$allocator@V?$basic_string@DU?$char_traits@D@std@@V?$allocator@D@2@@std@@@2@@std@@@std@@QEAAXXZ 000000014001b760 f i metadatagram.obj
 0001:0001a810       ?_Buy@?$vector@V?$basic_string@DU?$char_traits@D@std@@V?$allocator@D@2@@std@@V?$allocator@V?$basic_string@DU?$char_traits@D@std@@V?$allocator@D@2@@std@@@2@@std@@AEAA_N_K@Z 000000014001b810 f i metadatagram.obj
 0001:0001a900       ?_Buyheadnode@?$_Tree_comp_alloc@V?$_Tmap_traits@V?$basic_string@DU?$char_traits@D@std@@V?$allocator@D@2@@std@@V12@U?$less@V?$basic_string@DU?$char_traits@D@std@@V?$allocator@D@2@@std@@@2@V?$allocator@U?$pair@$$CBV?$basic_string@DU?$char_traits@D@std@@V?$allocator@D@2@@std@@V12@@std@@@2@$0A@@std@@@std@@QEAAPEAU?$_Tree_node@U?$pair@$$CBV?$basic_string@DU?$char_traits@D@std@@V?$allocator@D@2@@std@@V12@@std@@PEAX@2@XZ 000000014001b900 f i metadatagram.obj
 0001:0001a9c0       ?_Buynode0@?$_Tree_comp_alloc@V?$_Tmap_traits@V?$basic_string@DU?$char_traits@D@std@@V?$allocator@D@2@@std@@V12@U?$less@V?$basic_string@DU?$char_traits@D@std@@V?$allocator@D@2@@std@@@2@V?$allocator@U?$pair@$$CBV?$basic_string@DU?$char_traits@D@std@@V?$allocator@D@2@@std@@V12@@std@@@2@$0A@@std@@@std@@QEAAPEAU?$_Tree_node@U?$pair@$$CBV?$basic_string@DU?$char_traits@D@std@@V?$allocator@D@2@@std@@V12@@std@@PEAX@2@XZ 000000014001b9c0 f i metadatagram.obj
 0001:0001aaa0       ?_Calculate_growth@?$vector@V?$basic_string@DU?$char_traits@D@std@@V?$allocator@D@2@@std@@V?$allocator@V?$basic_string@DU?$char_traits@D@std@@V?$allocator@D@2@@std@@@2@@std@@AEBA_K_K@Z 000000014001baa0 f i metadatagram.obj
 0001:0001ab30       ?_Change_array@?$vector@V?$basic_string@DU?$char_traits@D@std@@V?$allocator@D@2@@std@@V?$allocator@V?$basic_string@DU?$char_traits@D@std@@V?$allocator@D@2@@std@@@2@@std@@AEAAXQEAV?$basic_string@DU?$char_traits@D@std@@V?$allocator@D@2@@2@_K1@Z 000000014001bb30 f i metadatagram.obj
 0001:0001ac40       ?_Compare@?$_Tree@V?$_Tmap_traits@V?$basic_string@DU?$char_traits@D@std@@V?$allocator@D@2@@std@@V12@U?$less@V?$basic_string@DU?$char_traits@D@std@@V?$allocator@D@2@@std@@@2@V?$allocator@U?$pair@$$CBV?$basic_string@DU?$char_traits@D@std@@V?$allocator@D@2@@std@@V12@@std@@@2@$0A@@std@@@std@@IEBA_NAEBV?$basic_string@DU?$char_traits@D@std@@V?$allocator@D@2@@2@0@Z 000000014001bc40 f i metadatagram.obj
 0001:0001ac90       ?_Construct@?$_Tree_comp_alloc@V?$_Tmap_traits@V?$basic_string@DU?$char_traits@D@std@@V?$allocator@D@2@@std@@V12@U?$less@V?$basic_string@DU?$char_traits@D@std@@V?$allocator@D@2@@std@@@2@V?$allocator@U?$pair@$$CBV?$basic_string@DU?$char_traits@D@std@@V?$allocator@D@2@@std@@V12@@std@@@2@$0A@@std@@@std@@QEAAXXZ 000000014001bc90 f i metadatagram.obj
 0001:0001ace0       ?_Construct@?$basic_string@DU?$char_traits@D@std@@V?$allocator@D@2@@std@@QEAAXQEAD0Urandom_access_iterator_tag@2@@Z 000000014001bce0 f i metadatagram.obj
 0001:0001ad40       ?_Copy_alloc@?$_String_alloc@U?$_String_base_types@DV?$allocator@D@std@@@std@@@std@@QEAAXAEBV?$allocator@D@2@@Z 000000014001bd40 f i metadatagram.obj
 0001:0001ad90       ?_Copy_alloc@?$_Tree_comp_alloc@V?$_Tmap_traits@V?$basic_string@DU?$char_traits@D@std@@V?$allocator@D@2@@std@@V12@U?$less@V?$basic_string@DU?$char_traits@D@std@@V?$allocator@D@2@@std@@@2@V?$allocator@U?$pair@$$CBV?$basic_string@DU?$char_traits@D@std@@V?$allocator@D@2@@std@@V12@@std@@@2@$0A@@std@@@std@@QEAAXAEBV?$allocator@U?$_Tree_node@U?$pair@$$CBV?$basic_string@DU?$char_traits@D@std@@V?$allocator@D@2@@std@@V12@@std@@PEAX@std@@@2@@Z 000000014001bd90 f i metadatagram.obj
 0001:0001ae20       ?_Destroy@?$vector@V?$basic_string@DU?$char_traits@D@std@@V?$allocator@D@2@@std@@V?$allocator@V?$basic_string@DU?$char_traits@D@std@@V?$allocator@D@2@@std@@@2@@std@@AEAAXPEAV?$basic_string@DU?$char_traits@D@std@@V?$allocator@D@2@@2@0@Z 000000014001be20 f i metadatagram.obj
 0001:0001ae60       ?_Destroy_if_node@?$_Tree@V?$_Tmap_traits@V?$basic_string@DU?$char_traits@D@std@@V?$allocator@D@2@@std@@V12@U?$less@V?$basic_string@DU?$char_traits@D@std@@V?$allocator@D@2@@std@@@2@V?$allocator@U?$pair@$$CBV?$basic_string@DU?$char_traits@D@std@@V?$allocator@D@2@@std@@V12@@std@@@2@$0A@@std@@@std@@IEAAXPEAU?$_Tree_node@U?$pair@$$CBV?$basic_string@DU?$char_traits@D@std@@V?$allocator@D@2@@std@@V12@@std@@PEAX@2@@Z 000000014001be60 f i metadatagram.obj
 0001:0001aeb0       ?_Erase@?$_Tree@V?$_Tmap_traits@V?$basic_string@DU?$char_traits@D@std@@V?$allocator@D@2@@std@@V12@U?$less@V?$basic_string@DU?$char_traits@D@std@@V?$allocator@D@2@@std@@@2@V?$allocator@U?$pair@$$CBV?$basic_string@DU?$char_traits@D@std@@V?$allocator@D@2@@std@@V12@@std@@@2@$0A@@std@@@std@@IEAAXPEAU?$_Tree_node@U?$pair@$$CBV?$basic_string@DU?$char_traits@D@std@@V?$allocator@D@2@@std@@V12@@std@@PEAX@2@@Z 000000014001beb0 f i metadatagram.obj
 0001:0001af50       ?_Extract@?$_Tree_val@U?$_Tree_simple_types@U?$pair@$$CBV?$basic_string@DU?$char_traits@D@std@@V?$allocator@D@2@@std@@V12@@std@@@std@@@std@@QEAAPEAU?$_Tree_node@U?$pair@$$CBV?$basic_string@DU?$char_traits@D@std@@V?$allocator@D@2@@std@@V12@@std@@PEAX@2@V?$_Tree_const_iterator@V?$_Tree_val@U?$_Tree_simple_types@U?$pair@$$CBV?$basic_string@DU?$char_traits@D@std@@V?$allocator@D@2@@std@@V12@@std@@@std@@@std@@@2@@Z 000000014001bf50 f i metadatagram.obj
 0001:0001b5d0       ?_Free_proxy@?$_Tree_comp_alloc@V?$_Tmap_traits@V?$basic_string@DU?$char_traits@D@std@@V?$allocator@D@2@@std@@V12@U?$less@V?$basic_string@DU?$char_traits@D@std@@V?$allocator@D@2@@std@@@2@V?$allocator@U?$pair@$$CBV?$basic_string@DU?$char_traits@D@std@@V?$allocator@D@2@@std@@V12@@std@@@2@$0A@@std@@@std@@QEAAXXZ 000000014001c5d0 f i metadatagram.obj
 0001:0001b640       ?_Free_proxy@?$_Vector_alloc@U?$_Vec_base_types@V?$basic_string@DU?$char_traits@D@std@@V?$allocator@D@2@@std@@V?$allocator@V?$basic_string@DU?$char_traits@D@std@@V?$allocator@D@2@@std@@@2@@std@@@std@@QEAAXXZ 000000014001c640 f i metadatagram.obj
 0001:0001b6b0       ?_Freeheadnode@?$_Tree_comp_alloc@V?$_Tmap_traits@V?$basic_string@DU?$char_traits@D@std@@V?$allocator@D@2@@std@@V12@U?$less@V?$basic_string@DU?$char_traits@D@std@@V?$allocator@D@2@@std@@@2@V?$allocator@U?$pair@$$CBV?$basic_string@DU?$char_traits@D@std@@V?$allocator@D@2@@std@@V12@@std@@@2@$0A@@std@@@std@@QEAAXPEAU?$_Tree_node@U?$pair@$$CBV?$basic_string@DU?$char_traits@D@std@@V?$allocator@D@2@@std@@V12@@std@@PEAX@2@@Z 000000014001c6b0 f i metadatagram.obj
 0001:0001b6e0       ?_Freenode0@?$_Tree_comp_alloc@V?$_Tmap_traits@V?$basic_string@DU?$char_traits@D@std@@V?$allocator@D@2@@std@@V12@U?$less@V?$basic_string@DU?$char_traits@D@std@@V?$allocator@D@2@@std@@@2@V?$allocator@U?$pair@$$CBV?$basic_string@DU?$char_traits@D@std@@V?$allocator@D@2@@std@@V12@@std@@@2@$0A@@std@@@std@@QEAAXPEAU?$_Tree_node@U?$pair@$$CBV?$basic_string@DU?$char_traits@D@std@@V?$allocator@D@2@@std@@V12@@std@@PEAX@2@@Z 000000014001c6e0 f i metadatagram.obj
 0001:0001b710       ?_Get_data@?$_Tree_comp_alloc@V?$_Tmap_traits@V?$basic_string@DU?$char_traits@D@std@@V?$allocator@D@2@@std@@V12@U?$less@V?$basic_string@DU?$char_traits@D@std@@V?$allocator@D@2@@std@@@2@V?$allocator@U?$pair@$$CBV?$basic_string@DU?$char_traits@D@std@@V?$allocator@D@2@@std@@V12@@std@@@2@$0A@@std@@@std@@QEAAAEAV?$_Tree_val@U?$_Tree_simple_types@U?$pair@$$CBV?$basic_string@DU?$char_traits@D@std@@V?$allocator@D@2@@std@@V12@@std@@@std@@@2@XZ 000000014001c710 f i metadatagram.obj
 0001:0001b740       ?_Get_data@?$_Tree_comp_alloc@V?$_Tmap_traits@V?$basic_string@DU?$char_traits@D@std@@V?$allocator@D@2@@std@@V12@U?$less@V?$basic_string@DU?$char_traits@D@std@@V?$allocator@D@2@@std@@@2@V?$allocator@U?$pair@$$CBV?$basic_string@DU?$char_traits@D@std@@V?$allocator@D@2@@std@@V12@@std@@@2@$0A@@std@@@std@@QEBAAEBV?$_Tree_val@U?$_Tree_simple_types@U?$pair@$$CBV?$basic_string@DU?$char_traits@D@std@@V?$allocator@D@2@@std@@V12@@std@@@std@@@2@XZ 000000014001c740 f i metadatagram.obj
 0001:0001b770       ?_Get_data@?$_Vector_alloc@U?$_Vec_base_types@V?$basic_string@DU?$char_traits@D@std@@V?$allocator@D@2@@std@@V?$allocator@V?$basic_string@DU?$char_traits@D@std@@V?$allocator@D@2@@std@@@2@@std@@@std@@QEAAAEAV?$_Vector_val@U?$_Simple_types@V?$basic_string@DU?$char_traits@D@std@@V?$allocator@D@2@@std@@@std@@@2@XZ 000000014001c770 f i metadatagram.obj
 0001:0001b790       ?_Get_data@?$_Vector_alloc@U?$_Vec_base_types@V?$basic_string@DU?$char_traits@D@std@@V?$allocator@D@2@@std@@V?$allocator@V?$basic_string@DU?$char_traits@D@std@@V?$allocator@D@2@@std@@@2@@std@@@std@@QEBAAEBV?$_Vector_val@U?$_Simple_types@V?$basic_string@DU?$char_traits@D@std@@V?$allocator@D@2@@std@@@std@@@2@XZ 000000014001c790 f i metadatagram.obj
 0001:0001b7b0       ?_Get_first@?$_Compressed_pair@U?$less@V?$basic_string@DU?$char_traits@D@std@@V?$allocator@D@2@@std@@@std@@V?$_Compressed_pair@V?$allocator@U?$_Tree_node@U?$pair@$$CBV?$basic_string@DU?$char_traits@D@std@@V?$allocator@D@2@@std@@V12@@std@@PEAX@std@@@std@@V?$_Tree_val@U?$_Tree_simple_types@U?$pair@$$CBV?$basic_string@DU?$char_traits@D@std@@V?$allocator@D@2@@std@@V12@@std@@@std@@@2@$00@2@$00@std@@QEAAAEAU?$less@V?$basic_string@DU?$char_traits@D@std@@V?$allocator@D@2@@std@@@2@XZ 000000014001c7b0 f i metadatagram.obj
 0001:0001b7c0       ?_Get_first@?$_Compressed_pair@U?$less@V?$basic_string@DU?$char_traits@D@std@@V?$allocator@D@2@@std@@@std@@V?$_Compressed_pair@V?$allocator@U?$_Tree_node@U?$pair@$$CBV?$basic_string@DU?$char_traits@D@std@@V?$allocator@D@2@@std@@V12@@std@@PEAX@std@@@std@@V?$_Tree_val@U?$_Tree_simple_types@U?$pair@$$CBV?$basic_string@DU?$char_traits@D@std@@V?$allocator@D@2@@std@@V12@@std@@@std@@@2@$00@2@$00@std@@QEBAAEBU?$less@V?$basic_string@DU?$char_traits@D@std@@V?$allocator@D@2@@std@@@2@XZ 000000014001c7c0 f i metadatagram.obj
 0001:0001b7d0       ?_Get_first@?$_Compressed_pair@V?$allocator@U?$_Tree_node@U?$pair@$$CBV?$basic_string@DU?$char_traits@D@std@@V?$allocator@D@2@@std@@V12@@std@@PEAX@std@@@std@@V?$_Tree_val@U?$_Tree_simple_types@U?$pair@$$CBV?$basic_string@DU?$char_traits@D@std@@V?$allocator@D@2@@std@@V12@@std@@@std@@@2@$00@std@@QEAAAEAV?$allocator@U?$_Tree_node@U?$pair@$$CBV?$basic_string@DU?$char_traits@D@std@@V?$allocator@D@2@@std@@V12@@std@@PEAX@std@@@2@XZ 000000014001c7d0 f i metadatagram.obj
 0001:0001b7e0       ?_Get_first@?$_Compressed_pair@V?$allocator@U?$_Tree_node@U?$pair@$$CBV?$basic_string@DU?$char_traits@D@std@@V?$allocator@D@2@@std@@V12@@std@@PEAX@std@@@std@@V?$_Tree_val@U?$_Tree_simple_types@U?$pair@$$CBV?$basic_string@DU?$char_traits@D@std@@V?$allocator@D@2@@std@@V12@@std@@@std@@@2@$00@std@@QEBAAEBV?$allocator@U?$_Tree_node@U?$pair@$$CBV?$basic_string@DU?$char_traits@D@std@@V?$allocator@D@2@@std@@V12@@std@@PEAX@std@@@2@XZ 000000014001c7e0 f i metadatagram.obj
 0001:0001b7f0       ?_Get_first@?$_Compressed_pair@V?$allocator@V?$basic_string@DU?$char_traits@D@std@@V?$allocator@D@2@@std@@@std@@V?$_Vector_val@U?$_Simple_types@V?$basic_string@DU?$char_traits@D@std@@V?$allocator@D@2@@std@@@std@@@2@$00@std@@QEAAAEAV?$allocator@V?$basic_string@DU?$char_traits@D@std@@V?$allocator@D@2@@std@@@2@XZ 000000014001c7f0 f i metadatagram.obj
 0001:0001b800       ?_Get_first@?$_Compressed_pair@V?$allocator@V?$basic_string@DU?$char_traits@D@std@@V?$allocator@D@2@@std@@@std@@V?$_Vector_val@U?$_Simple_types@V?$basic_string@DU?$char_traits@D@std@@V?$allocator@D@2@@std@@@std@@@2@$00@std@@QEBAAEBV?$allocator@V?$basic_string@DU?$char_traits@D@std@@V?$allocator@D@2@@std@@@2@XZ 000000014001c800 f i metadatagram.obj
 0001:0001b810       ?_Get_second@?$_Compressed_pair@U?$less@V?$basic_string@DU?$char_traits@D@std@@V?$allocator@D@2@@std@@@std@@V?$_Compressed_pair@V?$allocator@U?$_Tree_node@U?$pair@$$CBV?$basic_string@DU?$char_traits@D@std@@V?$allocator@D@2@@std@@V12@@std@@PEAX@std@@@std@@V?$_Tree_val@U?$_Tree_simple_types@U?$pair@$$CBV?$basic_string@DU?$char_traits@D@std@@V?$allocator@D@2@@std@@V12@@std@@@std@@@2@$00@2@$00@std@@QEAAAEAV?$_Compressed_pair@V?$allocator@U?$_Tree_node@U?$pair@$$CBV?$basic_string@DU?$char_traits@D@std@@V?$allocator@D@2@@std@@V12@@std@@PEAX@std@@@std@@V?$_Tree_val@U?$_Tree_simple_types@U?$pair@$$CBV?$basic_string@DU?$char_traits@D@std@@V?$allocator@D@2@@std@@V12@@std@@@std@@@2@$00@2@XZ 000000014001c810 f i metadatagram.obj
 0001:0001b820       ?_Get_second@?$_Compressed_pair@U?$less@V?$basic_string@DU?$char_traits@D@std@@V?$allocator@D@2@@std@@@std@@V?$_Compressed_pair@V?$allocator@U?$_Tree_node@U?$pair@$$CBV?$basic_string@DU?$char_traits@D@std@@V?$allocator@D@2@@std@@V12@@std@@PEAX@std@@@std@@V?$_Tree_val@U?$_Tree_simple_types@U?$pair@$$CBV?$basic_string@DU?$char_traits@D@std@@V?$allocator@D@2@@std@@V12@@std@@@std@@@2@$00@2@$00@std@@QEBAAEBV?$_Compressed_pair@V?$allocator@U?$_Tree_node@U?$pair@$$CBV?$basic_string@DU?$char_traits@D@std@@V?$allocator@D@2@@std@@V12@@std@@PEAX@std@@@std@@V?$_Tree_val@U?$_Tree_simple_types@U?$pair@$$CBV?$basic_string@DU?$char_traits@D@std@@V?$allocator@D@2@@std@@V12@@std@@@std@@@2@$00@2@XZ 000000014001c820 f i metadatagram.obj
 0001:0001b830       ?_Get_second@?$_Compressed_pair@V?$allocator@U?$_Tree_node@U?$pair@$$CBV?$basic_string@DU?$char_traits@D@std@@V?$allocator@D@2@@std@@V12@@std@@PEAX@std@@@std@@V?$_Tree_val@U?$_Tree_simple_types@U?$pair@$$CBV?$basic_string@DU?$char_traits@D@std@@V?$allocator@D@2@@std@@V12@@std@@@std@@@2@$00@std@@QEAAAEAV?$_Tree_val@U?$_Tree_simple_types@U?$pair@$$CBV?$basic_string@DU?$char_traits@D@std@@V?$allocator@D@2@@std@@V12@@std@@@std@@@2@XZ 000000014001c830 f i metadatagram.obj
 0001:0001b840       ?_Get_second@?$_Compressed_pair@V?$allocator@U?$_Tree_node@U?$pair@$$CBV?$basic_string@DU?$char_traits@D@std@@V?$allocator@D@2@@std@@V12@@std@@PEAX@std@@@std@@V?$_Tree_val@U?$_Tree_simple_types@U?$pair@$$CBV?$basic_string@DU?$char_traits@D@std@@V?$allocator@D@2@@std@@V12@@std@@@std@@@2@$00@std@@QEBAAEBV?$_Tree_val@U?$_Tree_simple_types@U?$pair@$$CBV?$basic_string@DU?$char_traits@D@std@@V?$allocator@D@2@@std@@V12@@std@@@std@@@2@XZ 000000014001c840 f i metadatagram.obj
 0001:0001b850       ?_Get_second@?$_Compressed_pair@V?$allocator@V?$basic_string@DU?$char_traits@D@std@@V?$allocator@D@2@@std@@@std@@V?$_Vector_val@U?$_Simple_types@V?$basic_string@DU?$char_traits@D@std@@V?$allocator@D@2@@std@@@std@@@2@$00@std@@QEAAAEAV?$_Vector_val@U?$_Simple_types@V?$basic_string@DU?$char_traits@D@std@@V?$allocator@D@2@@std@@@std@@@2@XZ 000000014001c850 f i metadatagram.obj
 0001:0001b860       ?_Get_second@?$_Compressed_pair@V?$allocator@V?$basic_string@DU?$char_traits@D@std@@V?$allocator@D@2@@std@@@std@@V?$_Vector_val@U?$_Simple_types@V?$basic_string@DU?$char_traits@D@std@@V?$allocator@D@2@@std@@@std@@@2@$00@std@@QEBAAEBV?$_Vector_val@U?$_Simple_types@V?$basic_string@DU?$char_traits@D@std@@V?$allocator@D@2@@std@@@std@@@2@XZ 000000014001c860 f i metadatagram.obj
 0001:0001b870       ?_Getal@?$_Tree_comp_alloc@V?$_Tmap_traits@V?$basic_string@DU?$char_traits@D@std@@V?$allocator@D@2@@std@@V12@U?$less@V?$basic_string@DU?$char_traits@D@std@@V?$allocator@D@2@@std@@@2@V?$allocator@U?$pair@$$CBV?$basic_string@DU?$char_traits@D@std@@V?$allocator@D@2@@std@@V12@@std@@@2@$0A@@std@@@std@@QEAAAEAV?$allocator@U?$_Tree_node@U?$pair@$$CBV?$basic_string@DU?$char_traits@D@std@@V?$allocator@D@2@@std@@V12@@std@@PEAX@std@@@2@XZ 000000014001c870 f i metadatagram.obj
 0001:0001b8a0       ?_Getal@?$_Tree_comp_alloc@V?$_Tmap_traits@V?$basic_string@DU?$char_traits@D@std@@V?$allocator@D@2@@std@@V12@U?$less@V?$basic_string@DU?$char_traits@D@std@@V?$allocator@D@2@@std@@@2@V?$allocator@U?$pair@$$CBV?$basic_string@DU?$char_traits@D@std@@V?$allocator@D@2@@std@@V12@@std@@@2@$0A@@std@@@std@@QEBAAEBV?$allocator@U?$_Tree_node@U?$pair@$$CBV?$basic_string@DU?$char_traits@D@std@@V?$allocator@D@2@@std@@V12@@std@@PEAX@std@@@2@XZ 000000014001c8a0 f i metadatagram.obj
 0001:0001b8d0       ?_Getal@?$_Vector_alloc@U?$_Vec_base_types@V?$basic_string@DU?$char_traits@D@std@@V?$allocator@D@2@@std@@V?$allocator@V?$basic_string@DU?$char_traits@D@std@@V?$allocator@D@2@@std@@@2@@std@@@std@@QEAAAEAV?$allocator@V?$basic_string@DU?$char_traits@D@std@@V?$allocator@D@2@@std@@@2@XZ 000000014001c8d0 f i metadatagram.obj
 0001:0001b8f0       ?_Getal@?$_Vector_alloc@U?$_Vec_base_types@V?$basic_string@DU?$char_traits@D@std@@V?$allocator@D@2@@std@@V?$allocator@V?$basic_string@DU?$char_traits@D@std@@V?$allocator@D@2@@std@@@2@@std@@@std@@QEBAAEBV?$allocator@V?$basic_string@DU?$char_traits@D@std@@V?$allocator@D@2@@std@@@2@XZ 000000014001c8f0 f i metadatagram.obj
 0001:0001b910       ?_Getcomp@?$_Tree_comp_alloc@V?$_Tmap_traits@V?$basic_string@DU?$char_traits@D@std@@V?$allocator@D@2@@std@@V12@U?$less@V?$basic_string@DU?$char_traits@D@std@@V?$allocator@D@2@@std@@@2@V?$allocator@U?$pair@$$CBV?$basic_string@DU?$char_traits@D@std@@V?$allocator@D@2@@std@@V12@@std@@@2@$0A@@std@@@std@@QEAAAEAU?$less@V?$basic_string@DU?$char_traits@D@std@@V?$allocator@D@2@@std@@@2@XZ 000000014001c910 f i metadatagram.obj
 0001:0001b930       ?_Getcomp@?$_Tree_comp_alloc@V?$_Tmap_traits@V?$basic_string@DU?$char_traits@D@std@@V?$allocator@D@2@@std@@V12@U?$less@V?$basic_string@DU?$char_traits@D@std@@V?$allocator@D@2@@std@@@2@V?$allocator@U?$pair@$$CBV?$basic_string@DU?$char_traits@D@std@@V?$allocator@D@2@@std@@V12@@std@@@2@$0A@@std@@@std@@QEBAAEBU?$less@V?$basic_string@DU?$char_traits@D@std@@V?$allocator@D@2@@std@@@2@XZ 000000014001c930 f i metadatagram.obj
 0001:0001b950       ?_Getpfirst@?$_Tree_comp_alloc@V?$_Tmap_traits@V?$basic_string@DU?$char_traits@D@std@@V?$allocator@D@2@@std@@V12@U?$less@V?$basic_string@DU?$char_traits@D@std@@V?$allocator@D@2@@std@@@2@V?$allocator@U?$pair@$$CBV?$basic_string@DU?$char_traits@D@std@@V?$allocator@D@2@@std@@V12@@std@@@2@$0A@@std@@@std@@QEBAPEAPEAU_Iterator_base12@2@XZ 000000014001c950 f i metadatagram.obj
 0001:0001b970       ?_Getpfirst@?$_Vector_alloc@U?$_Vec_base_types@V?$basic_string@DU?$char_traits@D@std@@V?$allocator@D@2@@std@@V?$allocator@V?$basic_string@DU?$char_traits@D@std@@V?$allocator@D@2@@std@@@2@@std@@@std@@QEBAPEAPEAU_Iterator_base12@2@XZ 000000014001c970 f i metadatagram.obj
 0001:0001b990       ?_Has_unused_capacity@?$vector@V?$basic_string@DU?$char_traits@D@std@@V?$allocator@D@2@@std@@V?$allocator@V?$basic_string@DU?$char_traits@D@std@@V?$allocator@D@2@@std@@@2@@std@@AEBA_NXZ 000000014001c990 f i metadatagram.obj
 0001:0001b9e0       ?_Key@?$_Tree@V?$_Tmap_traits@V?$basic_string@DU?$char_traits@D@std@@V?$allocator@D@2@@std@@V12@U?$less@V?$basic_string@DU?$char_traits@D@std@@V?$allocator@D@2@@std@@@2@V?$allocator@U?$pair@$$CBV?$basic_string@DU?$char_traits@D@std@@V?$allocator@D@2@@std@@V12@@std@@@2@$0A@@std@@@std@@IEBAAEBV?$basic_string@DU?$char_traits@D@std@@V?$allocator@D@2@@2@PEAU?$_Tree_node@U?$pair@$$CBV?$basic_string@DU?$char_traits@D@std@@V?$allocator@D@2@@std@@V12@@std@@PEAX@2@@Z 000000014001c9e0 f i metadatagram.obj
 0001:0001ba10       ?_Kfn@?$_Tree@V?$_Tmap_traits@V?$basic_string@DU?$char_traits@D@std@@V?$allocator@D@2@@std@@V12@U?$less@V?$basic_string@DU?$char_traits@D@std@@V?$allocator@D@2@@std@@@2@V?$allocator@U?$pair@$$CBV?$basic_string@DU?$char_traits@D@std@@V?$allocator@D@2@@std@@V12@@std@@@2@$0A@@std@@@std@@IEBAAEBV?$basic_string@DU?$char_traits@D@std@@V?$allocator@D@2@@2@AEBU?$pair@$$CBV?$basic_string@DU?$char_traits@D@std@@V?$allocator@D@2@@std@@V12@@2@@Z 000000014001ca10 f i metadatagram.obj
 0001:0001ba30       ?_Lmost@?$_Tree_val@U?$_Tree_simple_types@U?$pair@$$CBV?$basic_string@DU?$char_traits@D@std@@V?$allocator@D@2@@std@@V12@@std@@@std@@@std@@QEBAAEAPEAU?$_Tree_node@U?$pair@$$CBV?$basic_string@DU?$char_traits@D@std@@V?$allocator@D@2@@std@@V12@@std@@PEAX@2@XZ 000000014001ca30 f i metadatagram.obj
 0001:0001ba40       ?_Lrotate@?$_Tree_val@U?$_Tree_simple_types@U?$pair@$$CBV?$basic_string@DU?$char_traits@D@std@@V?$allocator@D@2@@std@@V12@@std@@@std@@@std@@QEAAXPEAU?$_Tree_node@U?$pair@$$CBV?$basic_string@DU?$char_traits@D@std@@V?$allocator@D@2@@std@@V12@@std@@PEAX@2@@Z 000000014001ca40 f i metadatagram.obj
 0001:0001bb20       ?_Max@?$_Tree_val@U?$_Tree_simple_types@U?$pair@$$CBV?$basic_string@DU?$char_traits@D@std@@V?$allocator@D@2@@std@@V12@@std@@@std@@@std@@SAPEAU?$_Tree_node@U?$pair@$$CBV?$basic_string@DU?$char_traits@D@std@@V?$allocator@D@2@@std@@V12@@std@@PEAX@2@PEAU32@@Z 000000014001cb20 f i metadatagram.obj
 0001:0001bb50       ?_Min@?$_Tree_val@U?$_Tree_simple_types@U?$pair@$$CBV?$basic_string@DU?$char_traits@D@std@@V?$allocator@D@2@@std@@V12@@std@@@std@@@std@@SAPEAU?$_Tree_node@U?$pair@$$CBV?$basic_string@DU?$char_traits@D@std@@V?$allocator@D@2@@std@@V12@@std@@PEAX@2@PEAU32@@Z 000000014001cb50 f i metadatagram.obj
 0001:0001bb80       ?_Move_from@?$vector@V?$basic_string@DU?$char_traits@D@std@@V?$allocator@D@2@@std@@V?$allocator@V?$basic_string@DU?$char_traits@D@std@@V?$allocator@D@2@@std@@@2@@std@@AEAAX$$QEAV12@U?$integral_constant@_N$00@2@@Z 000000014001cb80 f i metadatagram.obj
 0001:0001bc60       ?_Myend@?$_Vector_alloc@U?$_Vec_base_types@V?$basic_string@DU?$char_traits@D@std@@V?$allocator@D@2@@std@@V?$allocator@V?$basic_string@DU?$char_traits@D@std@@V?$allocator@D@2@@std@@@2@@std@@@std@@QEAAAEAPEAV?$basic_string@DU?$char_traits@D@std@@V?$allocator@D@2@@2@XZ 000000014001cc60 f i metadatagram.obj
 0001:0001bc80       ?_Myend@?$_Vector_alloc@U?$_Vec_base_types@V?$basic_string@DU?$char_traits@D@std@@V?$allocator@D@2@@std@@V?$allocator@V?$basic_string@DU?$char_traits@D@std@@V?$allocator@D@2@@std@@@2@@std@@@std@@QEBAAEBQEAV?$basic_string@DU?$char_traits@D@std@@V?$allocator@D@2@@2@XZ 000000014001cc80 f i metadatagram.obj
 0001:0001bca0       ?_Myfirst@?$_Vector_alloc@U?$_Vec_base_types@V?$basic_string@DU?$char_traits@D@std@@V?$allocator@D@2@@std@@V?$allocator@V?$basic_string@DU?$char_traits@D@std@@V?$allocator@D@2@@std@@@2@@std@@@std@@QEAAAEAPEAV?$basic_string@DU?$char_traits@D@std@@V?$allocator@D@2@@2@XZ 000000014001cca0 f i metadatagram.obj
 0001:0001bcc0       ?_Myfirst@?$_Vector_alloc@U?$_Vec_base_types@V?$basic_string@DU?$char_traits@D@std@@V?$allocator@D@2@@std@@V?$allocator@V?$basic_string@DU?$char_traits@D@std@@V?$allocator@D@2@@std@@@2@@std@@@std@@QEBAAEBQEAV?$basic_string@DU?$char_traits@D@std@@V?$allocator@D@2@@2@XZ 000000014001ccc0 f i metadatagram.obj
 0001:0001bce0       ?_Mylast@?$_Vector_alloc@U?$_Vec_base_types@V?$basic_string@DU?$char_traits@D@std@@V?$allocator@D@2@@std@@V?$allocator@V?$basic_string@DU?$char_traits@D@std@@V?$allocator@D@2@@std@@@2@@std@@@std@@QEAAAEAPEAV?$basic_string@DU?$char_traits@D@std@@V?$allocator@D@2@@2@XZ 000000014001cce0 f i metadatagram.obj
 0001:0001bd00       ?_Mylast@?$_Vector_alloc@U?$_Vec_base_types@V?$basic_string@DU?$char_traits@D@std@@V?$allocator@D@2@@std@@V?$allocator@V?$basic_string@DU?$char_traits@D@std@@V?$allocator@D@2@@std@@@2@@std@@@std@@QEBAAEBQEAV?$basic_string@DU?$char_traits@D@std@@V?$allocator@D@2@@2@XZ 000000014001cd00 f i metadatagram.obj
 0001:0001bd20       ?_Myproxy@?$_Tree_comp_alloc@V?$_Tmap_traits@V?$basic_string@DU?$char_traits@D@std@@V?$allocator@D@2@@std@@V12@U?$less@V?$basic_string@DU?$char_traits@D@std@@V?$allocator@D@2@@std@@@2@V?$allocator@U?$pair@$$CBV?$basic_string@DU?$char_traits@D@std@@V?$allocator@D@2@@std@@V12@@std@@@2@$0A@@std@@@std@@QEAAAEAPEAU_Container_proxy@2@XZ 000000014001cd20 f i metadatagram.obj
 0001:0001bd40       ?_Myproxy@?$_Vector_alloc@U?$_Vec_base_types@V?$basic_string@DU?$char_traits@D@std@@V?$allocator@D@2@@std@@V?$allocator@V?$basic_string@DU?$char_traits@D@std@@V?$allocator@D@2@@std@@@2@@std@@@std@@QEAAAEAPEAU_Container_proxy@2@XZ 000000014001cd40 f i metadatagram.obj
 0001:0001bd60       ?_Orphan_all@?$_Tree_comp_alloc@V?$_Tmap_traits@V?$basic_string@DU?$char_traits@D@std@@V?$allocator@D@2@@std@@V12@U?$less@V?$basic_string@DU?$char_traits@D@std@@V?$allocator@D@2@@std@@@2@V?$allocator@U?$pair@$$CBV?$basic_string@DU?$char_traits@D@std@@V?$allocator@D@2@@std@@V12@@std@@@2@$0A@@std@@@std@@QEAAXXZ 000000014001cd60 f i metadatagram.obj
 0001:0001bd80       ?_Orphan_all@?$_Vector_alloc@U?$_Vec_base_types@V?$basic_string@DU?$char_traits@D@std@@V?$allocator@D@2@@std@@V?$allocator@V?$basic_string@DU?$char_traits@D@std@@V?$allocator@D@2@@std@@@2@@std@@@std@@QEAAXXZ 000000014001cd80 f i metadatagram.obj
 0001:0001bda0       ?_Orphan_ptr@?$_Tree@V?$_Tmap_traits@V?$basic_string@DU?$char_traits@D@std@@V?$allocator@D@2@@std@@V12@U?$less@V?$basic_string@DU?$char_traits@D@std@@V?$allocator@D@2@@std@@@2@V?$allocator@U?$pair@$$CBV?$basic_string@DU?$char_traits@D@std@@V?$allocator@D@2@@std@@V12@@std@@@2@$0A@@std@@@std@@IEAAXPEAU?$_Tree_node@U?$pair@$$CBV?$basic_string@DU?$char_traits@D@std@@V?$allocator@D@2@@std@@V12@@std@@PEAX@2@@Z 000000014001cda0 f i metadatagram.obj
 0001:0001be80       ?_Orphan_range@?$vector@V?$basic_string@DU?$char_traits@D@std@@V?$allocator@D@2@@std@@V?$allocator@V?$basic_string@DU?$char_traits@D@std@@V?$allocator@D@2@@std@@@2@@std@@AEBAXPEAV?$basic_string@DU?$char_traits@D@std@@V?$allocator@D@2@@2@0@Z 000000014001ce80 f i metadatagram.obj
 0001:0001bf40       ?_Release@?$_Uninitialized_backout_al@PEAV?$basic_string@DU?$char_traits@D@std@@V?$allocator@D@2@@std@@V?$allocator@V?$basic_string@DU?$char_traits@D@std@@V?$allocator@D@2@@std@@@2@@std@@QEAAPEAV?$basic_string@DU?$char_traits@D@std@@V?$allocator@D@2@@2@XZ 000000014001cf40 f i metadatagram.obj
 0001:0001bf60       ?_Rmost@?$_Tree_val@U?$_Tree_simple_types@U?$pair@$$CBV?$basic_string@DU?$char_traits@D@std@@V?$allocator@D@2@@std@@V12@@std@@@std@@@std@@QEBAAEAPEAU?$_Tree_node@U?$pair@$$CBV?$basic_string@DU?$char_traits@D@std@@V?$allocator@D@2@@std@@V12@@std@@PEAX@2@XZ 000000014001cf60 f i metadatagram.obj
 0001:0001bf80       ?_Root@?$_Tree_val@U?$_Tree_simple_types@U?$pair@$$CBV?$basic_string@DU?$char_traits@D@std@@V?$allocator@D@2@@std@@V12@@std@@@std@@@std@@QEBAAEAPEAU?$_Tree_node@U?$pair@$$CBV?$basic_string@DU?$char_traits@D@std@@V?$allocator@D@2@@std@@V12@@std@@PEAX@2@XZ 000000014001cf80 f i metadatagram.obj
 0001:0001bfa0       ?_Rrotate@?$_Tree_val@U?$_Tree_simple_types@U?$pair@$$CBV?$basic_string@DU?$char_traits@D@std@@V?$allocator@D@2@@std@@V12@@std@@@std@@@std@@QEAAXPEAU?$_Tree_node@U?$pair@$$CBV?$basic_string@DU?$char_traits@D@std@@V?$allocator@D@2@@std@@V12@@std@@PEAX@2@@Z 000000014001cfa0 f i metadatagram.obj
 0001:0001c080       ?_Swap_all@?$_Vector_alloc@U?$_Vec_base_types@V?$basic_string@DU?$char_traits@D@std@@V?$allocator@D@2@@std@@V?$allocator@V?$basic_string@DU?$char_traits@D@std@@V?$allocator@D@2@@std@@@2@@std@@@std@@QEAAXAEAV12@@Z 000000014001d080 f i metadatagram.obj
 0001:0001c0c0       ?_Tidy@?$_Tree@V?$_Tmap_traits@V?$basic_string@DU?$char_traits@D@std@@V?$allocator@D@2@@std@@V12@U?$less@V?$basic_string@DU?$char_traits@D@std@@V?$allocator@D@2@@std@@@2@V?$allocator@U?$pair@$$CBV?$basic_string@DU?$char_traits@D@std@@V?$allocator@D@2@@std@@V12@@std@@@2@$0A@@std@@@std@@IEAAXXZ 000000014001d0c0 f i metadatagram.obj
 0001:0001c1b0       ?_Tidy@?$vector@V?$basic_string@DU?$char_traits@D@std@@V?$allocator@D@2@@std@@V?$allocator@V?$basic_string@DU?$char_traits@D@std@@V?$allocator@D@2@@std@@@2@@std@@AEAAXXZ 000000014001d1b0 f i metadatagram.obj
 0001:0001c280       ?_Umove@?$vector@V?$basic_string@DU?$char_traits@D@std@@V?$allocator@D@2@@std@@V?$allocator@V?$basic_string@DU?$char_traits@D@std@@V?$allocator@D@2@@std@@@2@@std@@AEAAPEAV?$basic_string@DU?$char_traits@D@std@@V?$allocator@D@2@@2@PEAV32@00@Z 000000014001d280 f i metadatagram.obj
 0001:0001c2c0       ?_Umove_if_noexcept1@?$vector@V?$basic_string@DU?$char_traits@D@std@@V?$allocator@D@2@@std@@V?$allocator@V?$basic_string@DU?$char_traits@D@std@@V?$allocator@D@2@@std@@@2@@std@@AEAAXPEAV?$basic_string@DU?$char_traits@D@std@@V?$allocator@D@2@@2@00U?$integral_constant@_N$00@2@@Z 000000014001d2c0 f i metadatagram.obj
 0001:0001c300       ?_Umove_if_noexcept@?$vector@V?$basic_string@DU?$char_traits@D@std@@V?$allocator@D@2@@std@@V?$allocator@V?$basic_string@DU?$char_traits@D@std@@V?$allocator@D@2@@std@@@2@@std@@AEAAXPEAV?$basic_string@DU?$char_traits@D@std@@V?$allocator@D@2@@2@00@Z 000000014001d300 f i metadatagram.obj
 0001:0001c360       ?_Xlength@?$vector@V?$basic_string@DU?$char_traits@D@std@@V?$allocator@D@2@@std@@V?$allocator@V?$basic_string@DU?$char_traits@D@std@@V?$allocator@D@2@@std@@@2@@std@@CAXXZ 000000014001d360 f i metadatagram.obj
 0001:0001c380       ?_Xrange@?$vector@V?$basic_string@DU?$char_traits@D@std@@V?$allocator@D@2@@std@@V?$allocator@V?$basic_string@DU?$char_traits@D@std@@V?$allocator@D@2@@std@@@2@@std@@CAXXZ 000000014001d380 f i metadatagram.obj
 0001:0001c3a0       ?allocate@?$allocator@U?$_Tree_node@U?$pair@$$CBV?$basic_string@DU?$char_traits@D@std@@V?$allocator@D@2@@std@@V12@@std@@PEAX@std@@@std@@QEAAPEAU?$_Tree_node@U?$pair@$$CBV?$basic_string@DU?$char_traits@D@std@@V?$allocator@D@2@@std@@V12@@std@@PEAX@2@_K@Z 000000014001d3a0 f i metadatagram.obj
 0001:0001c3d0       ?allocate@?$allocator@V?$basic_string@DU?$char_traits@D@std@@V?$allocator@D@2@@std@@@std@@QEAAPEAV?$basic_string@DU?$char_traits@D@std@@V?$allocator@D@2@@2@_K@Z 000000014001d3d0 f i metadatagram.obj
 0001:0001c400       ?append@?$basic_string@DU?$char_traits@D@std@@V?$allocator@D@2@@std@@QEAAAEAV12@AEBV12@@Z 000000014001d400 f i metadatagram.obj
 0001:0001c450       ?append@?$basic_string@DU?$char_traits@D@std@@V?$allocator@D@2@@std@@QEAAAEAV12@QEBD@Z 000000014001d450 f i metadatagram.obj
 0001:0001c490       ?append@?$basic_string@DU?$char_traits@D@std@@V?$allocator@D@2@@std@@QEAAAEAV12@QEBD_K@Z 000000014001d490 f i metadatagram.obj
 0001:0001c5a0       ?at@?$vector@V?$basic_string@DU?$char_traits@D@std@@V?$allocator@D@2@@std@@V?$allocator@V?$basic_string@DU?$char_traits@D@std@@V?$allocator@D@2@@std@@@2@@std@@QEAAAEAV?$basic_string@DU?$char_traits@D@std@@V?$allocator@D@2@@2@_K@Z 000000014001d5a0 f i metadatagram.obj
 0001:0001c5e0       ?begin@?$_Tree@V?$_Tmap_traits@V?$basic_string@DU?$char_traits@D@std@@V?$allocator@D@2@@std@@V12@U?$less@V?$basic_string@DU?$char_traits@D@std@@V?$allocator@D@2@@std@@@2@V?$allocator@U?$pair@$$CBV?$basic_string@DU?$char_traits@D@std@@V?$allocator@D@2@@std@@V12@@std@@@2@$0A@@std@@@std@@QEAA?AV?$_Tree_iterator@V?$_Tree_val@U?$_Tree_simple_types@U?$pair@$$CBV?$basic_string@DU?$char_traits@D@std@@V?$allocator@D@2@@std@@V12@@std@@@std@@@std@@@2@XZ 000000014001d5e0 f i metadatagram.obj
 0001:0001c650       ?capacity@?$vector@V?$basic_string@DU?$char_traits@D@std@@V?$allocator@D@2@@std@@V?$allocator@V?$basic_string@DU?$char_traits@D@std@@V?$allocator@D@2@@std@@@2@@std@@QEBA_KXZ 000000014001d650 f i metadatagram.obj
 0001:0001c6a0       ?clear@?$_Tree@V?$_Tmap_traits@V?$basic_string@DU?$char_traits@D@std@@V?$allocator@D@2@@std@@V12@U?$less@V?$basic_string@DU?$char_traits@D@std@@V?$allocator@D@2@@std@@@2@V?$allocator@U?$pair@$$CBV?$basic_string@DU?$char_traits@D@std@@V?$allocator@D@2@@std@@V12@@std@@@2@$0A@@std@@@std@@QEAAXXZ 000000014001d6a0 f i metadatagram.obj
 0001:0001c750       ?compare@?$basic_string@DU?$char_traits@D@std@@V?$allocator@D@2@@std@@QEBAHAEBV12@@Z 000000014001d750 f i metadatagram.obj
 0001:0001c7d0       ?compare@?$char_traits@D@std@@SAHQEBD0_K@Z 000000014001d7d0 f i metadatagram.obj
 0001:0001c800       ?data@?$basic_string@DU?$char_traits@D@std@@V?$allocator@D@2@@std@@QEBAPEBDXZ 000000014001d800 f i metadatagram.obj
 0001:0001c830       ?deallocate@?$_Default_allocator_traits@V?$allocator@U?$_Tree_node@U?$pair@$$CBV?$basic_string@DU?$char_traits@D@std@@V?$allocator@D@2@@std@@V12@@std@@PEAX@std@@@std@@@std@@SAXAEAV?$allocator@U?$_Tree_node@U?$pair@$$CBV?$basic_string@DU?$char_traits@D@std@@V?$allocator@D@2@@std@@V12@@std@@PEAX@std@@@2@QEAU?$_Tree_node@U?$pair@$$CBV?$basic_string@DU?$char_traits@D@std@@V?$allocator@D@2@@std@@V12@@std@@PEAX@2@_K@Z 000000014001d830 f i metadatagram.obj
 0001:0001c860       ?deallocate@?$allocator@U?$_Tree_node@U?$pair@$$CBV?$basic_string@DU?$char_traits@D@std@@V?$allocator@D@2@@std@@V12@@std@@PEAX@std@@@std@@QEAAXQEAU?$_Tree_node@U?$pair@$$CBV?$basic_string@DU?$char_traits@D@std@@V?$allocator@D@2@@std@@V12@@std@@PEAX@2@_K@Z 000000014001d860 f i metadatagram.obj
 0001:0001c890       ?deallocate@?$allocator@V?$basic_string@DU?$char_traits@D@std@@V?$allocator@D@2@@std@@@std@@QEAAXQEAV?$basic_string@DU?$char_traits@D@std@@V?$allocator@D@2@@2@_K@Z 000000014001d890 f i metadatagram.obj
 0001:0001c8c0       ?end@?$_Tree@V?$_Tmap_traits@V?$basic_string@DU?$char_traits@D@std@@V?$allocator@D@2@@std@@V12@U?$less@V?$basic_string@DU?$char_traits@D@std@@V?$allocator@D@2@@std@@@2@V?$allocator@U?$pair@$$CBV?$basic_string@DU?$char_traits@D@std@@V?$allocator@D@2@@std@@V12@@std@@@2@$0A@@std@@@std@@QEAA?AV?$_Tree_iterator@V?$_Tree_val@U?$_Tree_simple_types@U?$pair@$$CBV?$basic_string@DU?$char_traits@D@std@@V?$allocator@D@2@@std@@V12@@std@@@std@@@std@@@2@XZ 000000014001d8c0 f i metadatagram.obj
 0001:0001c920       ?end@?$_Tree@V?$_Tmap_traits@V?$basic_string@DU?$char_traits@D@std@@V?$allocator@D@2@@std@@V12@U?$less@V?$basic_string@DU?$char_traits@D@std@@V?$allocator@D@2@@std@@@2@V?$allocator@U?$pair@$$CBV?$basic_string@DU?$char_traits@D@std@@V?$allocator@D@2@@std@@V12@@std@@@2@$0A@@std@@@std@@QEBA?AV?$_Tree_const_iterator@V?$_Tree_val@U?$_Tree_simple_types@U?$pair@$$CBV?$basic_string@DU?$char_traits@D@std@@V?$allocator@D@2@@std@@V12@@std@@@std@@@std@@@2@XZ 000000014001d920 f i metadatagram.obj
 0001:0001c980       ?erase@?$_Tree@V?$_Tmap_traits@V?$basic_string@DU?$char_traits@D@std@@V?$allocator@D@2@@std@@V12@U?$less@V?$basic_string@DU?$char_traits@D@std@@V?$allocator@D@2@@std@@@2@V?$allocator@U?$pair@$$CBV?$basic_string@DU?$char_traits@D@std@@V?$allocator@D@2@@std@@V12@@std@@@2@$0A@@std@@@std@@QEAA?AV?$_Tree_iterator@V?$_Tree_val@U?$_Tree_simple_types@U?$pair@$$CBV?$basic_string@DU?$char_traits@D@std@@V?$allocator@D@2@@std@@V12@@std@@@std@@@std@@@2@V?$_Tree_const_iterator@V?$_Tree_val@U?$_Tree_simple_types@U?$pair@$$CBV?$basic_string@DU?$char_traits@D@std@@V?$allocator@D@2@@std@@V12@@std@@@std@@@std@@@2@0@Z 000000014001d980 f i metadatagram.obj
 0001:0001cbe0       ?erase@?$_Tree@V?$_Tmap_traits@V?$basic_string@DU?$char_traits@D@std@@V?$allocator@D@2@@std@@V12@U?$less@V?$basic_string@DU?$char_traits@D@std@@V?$allocator@D@2@@std@@@2@V?$allocator@U?$pair@$$CBV?$basic_string@DU?$char_traits@D@std@@V?$allocator@D@2@@std@@V12@@std@@@2@$0A@@std@@@std@@QEAA?AV?$_Tree_iterator@V?$_Tree_val@U?$_Tree_simple_types@U?$pair@$$CBV?$basic_string@DU?$char_traits@D@std@@V?$allocator@D@2@@std@@V12@@std@@@std@@@std@@@2@V?$_Tree_const_iterator@V?$_Tree_val@U?$_Tree_simple_types@U?$pair@$$CBV?$basic_string@DU?$char_traits@D@std@@V?$allocator@D@2@@std@@V12@@std@@@std@@@std@@@2@@Z 000000014001dbe0 f i metadatagram.obj
 0001:0001cda0       ?find@?$_Tree@V?$_Tmap_traits@V?$basic_string@DU?$char_traits@D@std@@V?$allocator@D@2@@std@@V12@U?$less@V?$basic_string@DU?$char_traits@D@std@@V?$allocator@D@2@@std@@@2@V?$allocator@U?$pair@$$CBV?$basic_string@DU?$char_traits@D@std@@V?$allocator@D@2@@std@@V12@@std@@@2@$0A@@std@@@std@@QEBA?AV?$_Tree_const_iterator@V?$_Tree_val@U?$_Tree_simple_types@U?$pair@$$CBV?$basic_string@DU?$char_traits@D@std@@V?$allocator@D@2@@std@@V12@@std@@@std@@@std@@@2@AEBV?$basic_string@DU?$char_traits@D@std@@V?$allocator@D@2@@2@@Z 000000014001dda0 f i metadatagram.obj
 0001:0001cf80       ?lower_bound@?$_Tree@V?$_Tmap_traits@V?$basic_string@DU?$char_traits@D@std@@V?$allocator@D@2@@std@@V12@U?$less@V?$basic_string@DU?$char_traits@D@std@@V?$allocator@D@2@@std@@@2@V?$allocator@U?$pair@$$CBV?$basic_string@DU?$char_traits@D@std@@V?$allocator@D@2@@std@@V12@@std@@@2@$0A@@std@@@std@@QEBA?AV?$_Tree_const_iterator@V?$_Tree_val@U?$_Tree_simple_types@U?$pair@$$CBV?$basic_string@DU?$char_traits@D@std@@V?$allocator@D@2@@std@@V12@@std@@@std@@@std@@@2@AEBV?$basic_string@DU?$char_traits@D@std@@V?$allocator@D@2@@2@@Z 000000014001df80 f i metadatagram.obj
 0001:0001cff0       ?max_size@?$_Default_allocator_traits@V?$allocator@U?$_Tree_node@U?$pair@$$CBV?$basic_string@DU?$char_traits@D@std@@V?$allocator@D@2@@std@@V12@@std@@PEAX@std@@@std@@@std@@SA_KAEBV?$allocator@U?$_Tree_node@U?$pair@$$CBV?$basic_string@DU?$char_traits@D@std@@V?$allocator@D@2@@std@@V12@@std@@PEAX@std@@@2@@Z 000000014001dff0 f i metadatagram.obj
 0001:0001d000       ?max_size@?$_Default_allocator_traits@V?$allocator@V?$basic_string@DU?$char_traits@D@std@@V?$allocator@D@2@@std@@@std@@@std@@SA_KAEBV?$allocator@V?$basic_string@DU?$char_traits@D@std@@V?$allocator@D@2@@std@@@2@@Z 000000014001e000 f i metadatagram.obj
 0001:0001d010       ?max_size@?$_Tree@V?$_Tmap_traits@V?$basic_string@DU?$char_traits@D@std@@V?$allocator@D@2@@std@@V12@U?$less@V?$basic_string@DU?$char_traits@D@std@@V?$allocator@D@2@@std@@@2@V?$allocator@U?$pair@$$CBV?$basic_string@DU?$char_traits@D@std@@V?$allocator@D@2@@std@@V12@@std@@@2@$0A@@std@@@std@@QEBA_KXZ 000000014001e010 f i metadatagram.obj
 0001:0001d030       ?max_size@?$vector@V?$basic_string@DU?$char_traits@D@std@@V?$allocator@D@2@@std@@V?$allocator@V?$basic_string@DU?$char_traits@D@std@@V?$allocator@D@2@@std@@@2@@std@@QEBA_KXZ 000000014001e030 f i metadatagram.obj
 0001:0001d080       ?pointer_to@?$pointer_traits@PEBU?$pair@$$CBV?$basic_string@DU?$char_traits@D@std@@V?$allocator@D@2@@std@@V12@@std@@@std@@SAPEBU?$pair@$$CBV?$basic_string@DU?$char_traits@D@std@@V?$allocator@D@2@@std@@V12@@2@AEBU32@@Z 000000014001e080 f i metadatagram.obj
 0001:0001d0a0       ?push_back@?$basic_string@DU?$char_traits@D@std@@V?$allocator@D@2@@std@@QEAAXD@Z 000000014001e0a0 f i metadatagram.obj
 0001:0001d170       ?push_back@?$vector@V?$basic_string@DU?$char_traits@D@std@@V?$allocator@D@2@@std@@V?$allocator@V?$basic_string@DU?$char_traits@D@std@@V?$allocator@D@2@@std@@@2@@std@@QEAAXAEBV?$basic_string@DU?$char_traits@D@std@@V?$allocator@D@2@@2@@Z 000000014001e170 f i metadatagram.obj
 0001:0001d1a0       ?select_on_container_copy_construction@?$_Default_allocator_traits@V?$allocator@V?$basic_string@DU?$char_traits@D@std@@V?$allocator@D@2@@std@@@std@@@std@@SA?AV?$allocator@V?$basic_string@DU?$char_traits@D@std@@V?$allocator@D@2@@std@@@2@AEBV32@@Z 000000014001e1a0 f i metadatagram.obj
 0001:0001d1b0       ?size@?$_Tree@V?$_Tmap_traits@V?$basic_string@DU?$char_traits@D@std@@V?$allocator@D@2@@std@@V12@U?$less@V?$basic_string@DU?$char_traits@D@std@@V?$allocator@D@2@@std@@@2@V?$allocator@U?$pair@$$CBV?$basic_string@DU?$char_traits@D@std@@V?$allocator@D@2@@std@@V12@@std@@@2@$0A@@std@@@std@@QEBA_KXZ 000000014001e1b0 f i metadatagram.obj
 0001:0001d1d0       ?size@?$vector@V?$basic_string@DU?$char_traits@D@std@@V?$allocator@D@2@@std@@V?$allocator@V?$basic_string@DU?$char_traits@D@std@@V?$allocator@D@2@@std@@@2@@std@@QEBA_KXZ 000000014001e1d0 f i metadatagram.obj
 0001:0001d220       ?to_string@std@@YA?AV?$basic_string@DU?$char_traits@D@std@@V?$allocator@D@2@@1@H@Z 000000014001e220 f i metadatagram.obj
 0001:0001d260       ??0ParserManager@@QEAA@XZ  000000014001e260 f   parsermanager.obj
 0001:0001d280       ??1ParserManager@@QEAA@XZ  000000014001e280 f   parsermanager.obj
 0001:0001d290       ?readDatagram@ParserManager@@QEAAXAEBUXsByteArray@@@Z 000000014001e290 f   parsermanager.obj
 0001:0001d340       ?createDgram@ParserManager@@AEAAPEAVDatagram@@W4StreamingProtocol@@@Z 000000014001e340 f   parsermanager.obj
 0001:0001d7a0       ??_GDatagram@@QEAAPEAXI@Z  000000014001e7a0 f i parsermanager.obj
 0001:0001d7e0       ??0PositionDatagram@@QEAA@XZ 000000014001e7e0 f   positiondatagram.obj
 0001:0001d840       ??1PositionDatagram@@UEAA@XZ 000000014001e840 f   positiondatagram.obj
 0001:0001d880       ?printData@PositionDatagram@@UEBAXXZ 000000014001e880 f   positiondatagram.obj
 0001:0001d8b0       ?align_data@PositionDatagram@@SA?AV?$vector@MV?$allocator@M@std@@@std@@V?$vector@UVirtualMarkerSet@PositionDatagram@@V?$allocator@UVirtualMarkerSet@PositionDatagram@@@std@@@3@@Z 000000014001e8b0 f   positiondatagram.obj
 0001:0001d9e0       ?push_sample@PositionDatagram@@SAXV?$vector@MV?$allocator@M@std@@@std@@@Z 000000014001e9e0 f   positiondatagram.obj
 0001:0001da20       ?streamData@PositionDatagram@@UEBAXXZ 000000014001ea20 f   positiondatagram.obj
 0001:0001dac0       ?deserializeData@PositionDatagram@@MEAAXAEAVStreamer@@@Z 000000014001eac0 f   positiondatagram.obj
 0001:0001dbd0       ??$?0$$V@?$_Compressed_pair@V?$allocator@UVirtualMarkerSet@PositionDatagram@@@std@@V?$_Vector_val@U?$_Simple_types@UVirtualMarkerSet@PositionDatagram@@@std@@@2@$00@std@@QEAA@U_Zero_then_variadic_args_t@1@@Z 000000014001ebd0 f i positiondatagram.obj
 0001:0001dc00       ??$?0UVirtualMarkerSet@PositionDatagram@@@?$allocator@U_Container_proxy@std@@@std@@QEAA@AEBV?$allocator@UVirtualMarkerSet@PositionDatagram@@@1@@Z 000000014001ec00 f i positiondatagram.obj
 0001:0001dc10       ??$?0V?$allocator@UVirtualMarkerSet@PositionDatagram@@@std@@$$V@?$_Compressed_pair@V?$allocator@UVirtualMarkerSet@PositionDatagram@@@std@@V?$_Vector_val@U?$_Simple_types@UVirtualMarkerSet@PositionDatagram@@@std@@@2@$00@std@@QEAA@U_One_then_variadic_args_t@1@$$QEAV?$allocator@UVirtualMarkerSet@PositionDatagram@@@1@@Z 000000014001ec10 f i positiondatagram.obj
 0001:0001dc50       ??$?0V?$allocator@UVirtualMarkerSet@PositionDatagram@@@std@@X@?$_Vector_alloc@U?$_Vec_base_types@UVirtualMarkerSet@PositionDatagram@@V?$allocator@UVirtualMarkerSet@PositionDatagram@@@std@@@std@@@std@@QEAA@$$QEAV?$allocator@UVirtualMarkerSet@PositionDatagram@@@1@@Z 000000014001ec50 f i positiondatagram.obj
 0001:0001dc90       ??$_Copy_memmove@PEAUVirtualMarkerSet@PositionDatagram@@PEAU12@@std@@YAPEAUVirtualMarkerSet@PositionDatagram@@PEAU12@00@Z 000000014001ec90 f i positiondatagram.obj
 0001:0001dd00       ??$_Destroy_range1@V?$allocator@UVirtualMarkerSet@PositionDatagram@@@std@@@std@@YAXPEAUVirtualMarkerSet@PositionDatagram@@0AEAV?$allocator@UVirtualMarkerSet@PositionDatagram@@@0@U?$integral_constant@_N$00@0@@Z 000000014001ed00 f i positiondatagram.obj
 0001:0001dd20       ??$_Destroy_range@V?$allocator@UVirtualMarkerSet@PositionDatagram@@@std@@@std@@YAXPEAUVirtualMarkerSet@PositionDatagram@@0AEAV?$allocator@UVirtualMarkerSet@PositionDatagram@@@0@@Z 000000014001ed20 f i positiondatagram.obj
 0001:0001dd60       ??$_Emplace_back_with_unused_capacity@AEBUVirtualMarkerSet@PositionDatagram@@@?$vector@UVirtualMarkerSet@PositionDatagram@@V?$allocator@UVirtualMarkerSet@PositionDatagram@@@std@@@std@@AEAAXAEBUVirtualMarkerSet@PositionDatagram@@@Z 000000014001ed60 f i positiondatagram.obj
 0001:0001de20       ??$_Emplace_reallocate@AEBUVirtualMarkerSet@PositionDatagram@@@?$vector@UVirtualMarkerSet@PositionDatagram@@V?$allocator@UVirtualMarkerSet@PositionDatagram@@@std@@@std@@QEAAPEAUVirtualMarkerSet@PositionDatagram@@QEAU23@AEBU23@@Z 000000014001ee20 f i positiondatagram.obj
 0001:0001e070       ??$_Ptr_copy_cat@UVirtualMarkerSet@PositionDatagram@@U12@@std@@YA?AU_Really_trivial_ptr_iterator_tag@0@AEBQEAUVirtualMarkerSet@PositionDatagram@@0@Z 000000014001f070 f i positiondatagram.obj
 0001:0001e090       ??$_Ptr_move_cat@UVirtualMarkerSet@PositionDatagram@@U12@@std@@YA?AU_Really_trivial_ptr_iterator_tag@0@AEBQEAUVirtualMarkerSet@PositionDatagram@@0@Z 000000014001f090 f i positiondatagram.obj
 0001:0001e1f0       ??$_Rechecked@PEAUVirtualMarkerSet@PositionDatagram@@PEAU12@@std@@YAAEAPEAUVirtualMarkerSet@PositionDatagram@@AEAPEAU12@QEAU12@@Z 000000014001f1f0 f i positiondatagram.obj
 0001:0001e210       ??$_Ucopy@PEAUVirtualMarkerSet@PositionDatagram@@@?$vector@UVirtualMarkerSet@PositionDatagram@@V?$allocator@UVirtualMarkerSet@PositionDatagram@@@std@@@std@@AEAAPEAUVirtualMarkerSet@PositionDatagram@@PEAU23@00@Z 000000014001f210 f i positiondatagram.obj
 0001:0001e250       ??$_Unchecked@PEAUVirtualMarkerSet@PositionDatagram@@@std@@YAPEAUVirtualMarkerSet@PositionDatagram@@PEAU12@@Z 000000014001f250 f i positiondatagram.obj
 0001:0001e260       ??$_Unfancy@UVirtualMarkerSet@PositionDatagram@@@std@@YAPEAUVirtualMarkerSet@PositionDatagram@@PEAU12@@Z 000000014001f260 f i positiondatagram.obj
 0001:0001e270       ??$_Uninitialized_copy@PEAUVirtualMarkerSet@PositionDatagram@@PEAU12@V?$allocator@UVirtualMarkerSet@PositionDatagram@@@std@@@std@@YAPEAUVirtualMarkerSet@PositionDatagram@@QEAU12@0PEAU12@AEAV?$allocator@UVirtualMarkerSet@PositionDatagram@@@0@@Z 000000014001f270 f i positiondatagram.obj
 0001:0001e310       ??$_Uninitialized_copy_al_unchecked@UVirtualMarkerSet@PositionDatagram@@U12@V?$allocator@UVirtualMarkerSet@PositionDatagram@@@std@@@std@@YAPEAUVirtualMarkerSet@PositionDatagram@@QEAU12@00AEAV?$allocator@UVirtualMarkerSet@PositionDatagram@@@0@U_Really_trivial_ptr_iterator_tag@0@U?$integral_constant@_N$00@0@@Z 000000014001f310 f i positiondatagram.obj
 0001:0001e350       ??$_Uninitialized_move@PEAUVirtualMarkerSet@PositionDatagram@@PEAU12@V?$allocator@UVirtualMarkerSet@PositionDatagram@@@std@@@std@@YAPEAUVirtualMarkerSet@PositionDatagram@@QEAU12@0PEAU12@AEAV?$allocator@UVirtualMarkerSet@PositionDatagram@@@0@@Z 000000014001f350 f i positiondatagram.obj
 0001:0001e3f0       ??$_Uninitialized_move_al_unchecked@UVirtualMarkerSet@PositionDatagram@@U12@V?$allocator@UVirtualMarkerSet@PositionDatagram@@@std@@@std@@YAPEAUVirtualMarkerSet@PositionDatagram@@QEAU12@00AEAV?$allocator@UVirtualMarkerSet@PositionDatagram@@@0@U_Really_trivial_ptr_iterator_tag@0@U?$integral_constant@_N$00@0@@Z 000000014001f3f0 f i positiondatagram.obj
 0001:0001e430       ??$addressof@V?$_Vector_val@U?$_Simple_types@UVirtualMarkerSet@PositionDatagram@@@std@@@std@@@std@@YAPEAV?$_Vector_val@U?$_Simple_types@UVirtualMarkerSet@PositionDatagram@@@std@@@0@AEAV10@@Z 000000014001f430 f i positiondatagram.obj
 0001:0001e440       ??$construct@UVirtualMarkerSet@PositionDatagram@@AEBU12@@?$_Default_allocator_traits@V?$allocator@UVirtualMarkerSet@PositionDatagram@@@std@@@std@@SAXAEAV?$allocator@UVirtualMarkerSet@PositionDatagram@@@1@QEAUVirtualMarkerSet@PositionDatagram@@AEBU34@@Z 000000014001f440 f i positiondatagram.obj
 0001:0001e490       ??$emplace_back@AEBUVirtualMarkerSet@PositionDatagram@@@?$vector@UVirtualMarkerSet@PositionDatagram@@V?$allocator@UVirtualMarkerSet@PositionDatagram@@@std@@@std@@QEAAXAEBUVirtualMarkerSet@PositionDatagram@@@Z 000000014001f490 f i positiondatagram.obj
 0001:0001e500       ??$forward@AEBUVirtualMarkerSet@PositionDatagram@@@std@@YAAEBUVirtualMarkerSet@PositionDatagram@@AEBU12@@Z 000000014001f500 f i positiondatagram.obj
 0001:0001e510       ??$forward@V?$allocator@UVirtualMarkerSet@PositionDatagram@@@std@@@std@@YA$$QEAV?$allocator@UVirtualMarkerSet@PositionDatagram@@@0@AEAV10@@Z 000000014001f510 f i positiondatagram.obj
 0001:0001e520       ??0?$_Vector_alloc@U?$_Vec_base_types@UVirtualMarkerSet@PositionDatagram@@V?$allocator@UVirtualMarkerSet@PositionDatagram@@@std@@@std@@@std@@QEAA@XZ 000000014001f520 f i positiondatagram.obj
 0001:0001e550       ??0?$_Vector_val@U?$_Simple_types@UVirtualMarkerSet@PositionDatagram@@@std@@@std@@QEAA@XZ 000000014001f550 f i positiondatagram.obj
 0001:0001e5a0       ??0?$allocator@UVirtualMarkerSet@PositionDatagram@@@std@@QEAA@XZ 000000014001f5a0 f i positiondatagram.obj
 0001:0001e5b0       ??0?$vector@UVirtualMarkerSet@PositionDatagram@@V?$allocator@UVirtualMarkerSet@PositionDatagram@@@std@@@std@@QEAA@AEBV01@@Z 000000014001f5b0 f i positiondatagram.obj
 0001:0001e680       ??0?$vector@UVirtualMarkerSet@PositionDatagram@@V?$allocator@UVirtualMarkerSet@PositionDatagram@@@std@@@std@@QEAA@XZ 000000014001f680 f i positiondatagram.obj
 0001:0001e6b0       ??1?$_Vector_alloc@U?$_Vec_base_types@UVirtualMarkerSet@PositionDatagram@@V?$allocator@UVirtualMarkerSet@PositionDatagram@@@std@@@std@@@std@@QEAA@XZ 000000014001f6b0 f i positiondatagram.obj
 0001:0001e6e0       ??1?$vector@UVirtualMarkerSet@PositionDatagram@@V?$allocator@UVirtualMarkerSet@PositionDatagram@@@std@@@std@@QEAA@XZ 000000014001f6e0 f i positiondatagram.obj
 0001:0001e770       ??_EPositionDatagram@@UEAAPEAXI@Z 000000014001f770 f i positiondatagram.obj
 0001:0001e770       ??_GPositionDatagram@@UEAAPEAXI@Z 000000014001f770 f i positiondatagram.obj
 0001:0001e7b0       ?_Alloc_proxy@?$_Vector_alloc@U?$_Vec_base_types@UVirtualMarkerSet@PositionDatagram@@V?$allocator@UVirtualMarkerSet@PositionDatagram@@@std@@@std@@@std@@QEAAXXZ 000000014001f7b0 f i positiondatagram.obj
 0001:0001e860       ?_Buy@?$vector@UVirtualMarkerSet@PositionDatagram@@V?$allocator@UVirtualMarkerSet@PositionDatagram@@@std@@@std@@AEAA_N_K@Z 000000014001f860 f i positiondatagram.obj
 0001:0001e950       ?_Calculate_growth@?$vector@UVirtualMarkerSet@PositionDatagram@@V?$allocator@UVirtualMarkerSet@PositionDatagram@@@std@@@std@@AEBA_K_K@Z 000000014001f950 f i positiondatagram.obj
 0001:0001e9e0       ?_Change_array@?$vector@UVirtualMarkerSet@PositionDatagram@@V?$allocator@UVirtualMarkerSet@PositionDatagram@@@std@@@std@@AEAAXQEAUVirtualMarkerSet@PositionDatagram@@_K1@Z 000000014001f9e0 f i positiondatagram.obj
 0001:0001eaf0       ?_Destroy@?$vector@UVirtualMarkerSet@PositionDatagram@@V?$allocator@UVirtualMarkerSet@PositionDatagram@@@std@@@std@@AEAAXPEAUVirtualMarkerSet@PositionDatagram@@0@Z 000000014001faf0 f i positiondatagram.obj
 0001:0001eb30       ?_Free_proxy@?$_Vector_alloc@U?$_Vec_base_types@UVirtualMarkerSet@PositionDatagram@@V?$allocator@UVirtualMarkerSet@PositionDatagram@@@std@@@std@@@std@@QEAAXXZ 000000014001fb30 f i positiondatagram.obj
 0001:0001eba0       ?_Get_data@?$_Vector_alloc@U?$_Vec_base_types@UVirtualMarkerSet@PositionDatagram@@V?$allocator@UVirtualMarkerSet@PositionDatagram@@@std@@@std@@@std@@QEAAAEAV?$_Vector_val@U?$_Simple_types@UVirtualMarkerSet@PositionDatagram@@@std@@@2@XZ 000000014001fba0 f i positiondatagram.obj
 0001:0001ebc0       ?_Get_data@?$_Vector_alloc@U?$_Vec_base_types@UVirtualMarkerSet@PositionDatagram@@V?$allocator@UVirtualMarkerSet@PositionDatagram@@@std@@@std@@@std@@QEBAAEBV?$_Vector_val@U?$_Simple_types@UVirtualMarkerSet@PositionDatagram@@@std@@@2@XZ 000000014001fbc0 f i positiondatagram.obj
 0001:0001ebe0       ?_Get_first@?$_Compressed_pair@V?$allocator@UVirtualMarkerSet@PositionDatagram@@@std@@V?$_Vector_val@U?$_Simple_types@UVirtualMarkerSet@PositionDatagram@@@std@@@2@$00@std@@QEAAAEAV?$allocator@UVirtualMarkerSet@PositionDatagram@@@2@XZ 000000014001fbe0 f i positiondatagram.obj
 0001:0001ebf0       ?_Get_first@?$_Compressed_pair@V?$allocator@UVirtualMarkerSet@PositionDatagram@@@std@@V?$_Vector_val@U?$_Simple_types@UVirtualMarkerSet@PositionDatagram@@@std@@@2@$00@std@@QEBAAEBV?$allocator@UVirtualMarkerSet@PositionDatagram@@@2@XZ 000000014001fbf0 f i positiondatagram.obj
 0001:0001ec00       ?_Get_second@?$_Compressed_pair@V?$allocator@UVirtualMarkerSet@PositionDatagram@@@std@@V?$_Vector_val@U?$_Simple_types@UVirtualMarkerSet@PositionDatagram@@@std@@@2@$00@std@@QEAAAEAV?$_Vector_val@U?$_Simple_types@UVirtualMarkerSet@PositionDatagram@@@std@@@2@XZ 000000014001fc00 f i positiondatagram.obj
 0001:0001ec10       ?_Get_second@?$_Compressed_pair@V?$allocator@UVirtualMarkerSet@PositionDatagram@@@std@@V?$_Vector_val@U?$_Simple_types@UVirtualMarkerSet@PositionDatagram@@@std@@@2@$00@std@@QEBAAEBV?$_Vector_val@U?$_Simple_types@UVirtualMarkerSet@PositionDatagram@@@std@@@2@XZ 000000014001fc10 f i positiondatagram.obj
 0001:0001ec20       ?_Getal@?$_Vector_alloc@U?$_Vec_base_types@UVirtualMarkerSet@PositionDatagram@@V?$allocator@UVirtualMarkerSet@PositionDatagram@@@std@@@std@@@std@@QEAAAEAV?$allocator@UVirtualMarkerSet@PositionDatagram@@@2@XZ 000000014001fc20 f i positiondatagram.obj
 0001:0001ec40       ?_Getal@?$_Vector_alloc@U?$_Vec_base_types@UVirtualMarkerSet@PositionDatagram@@V?$allocator@UVirtualMarkerSet@PositionDatagram@@@std@@@std@@@std@@QEBAAEBV?$allocator@UVirtualMarkerSet@PositionDatagram@@@2@XZ 000000014001fc40 f i positiondatagram.obj
 0001:0001ec60       ?_Getpfirst@?$_Vector_alloc@U?$_Vec_base_types@UVirtualMarkerSet@PositionDatagram@@V?$allocator@UVirtualMarkerSet@PositionDatagram@@@std@@@std@@@std@@QEBAPEAPEAU_Iterator_base12@2@XZ 000000014001fc60 f i positiondatagram.obj
 0001:0001ec80       ?_Has_unused_capacity@?$vector@UVirtualMarkerSet@PositionDatagram@@V?$allocator@UVirtualMarkerSet@PositionDatagram@@@std@@@std@@AEBA_NXZ 000000014001fc80 f i positiondatagram.obj
 0001:0001ecd0       ?_Myend@?$_Vector_alloc@U?$_Vec_base_types@UVirtualMarkerSet@PositionDatagram@@V?$allocator@UVirtualMarkerSet@PositionDatagram@@@std@@@std@@@std@@QEAAAEAPEAUVirtualMarkerSet@PositionDatagram@@XZ 000000014001fcd0 f i positiondatagram.obj
 0001:0001ecf0       ?_Myend@?$_Vector_alloc@U?$_Vec_base_types@UVirtualMarkerSet@PositionDatagram@@V?$allocator@UVirtualMarkerSet@PositionDatagram@@@std@@@std@@@std@@QEBAAEBQEAUVirtualMarkerSet@PositionDatagram@@XZ 000000014001fcf0 f i positiondatagram.obj
 0001:0001ed10       ?_Myfirst@?$_Vector_alloc@U?$_Vec_base_types@UVirtualMarkerSet@PositionDatagram@@V?$allocator@UVirtualMarkerSet@PositionDatagram@@@std@@@std@@@std@@QEAAAEAPEAUVirtualMarkerSet@PositionDatagram@@XZ 000000014001fd10 f i positiondatagram.obj
 0001:0001ed30       ?_Myfirst@?$_Vector_alloc@U?$_Vec_base_types@UVirtualMarkerSet@PositionDatagram@@V?$allocator@UVirtualMarkerSet@PositionDatagram@@@std@@@std@@@std@@QEBAAEBQEAUVirtualMarkerSet@PositionDatagram@@XZ 000000014001fd30 f i positiondatagram.obj
 0001:0001ed50       ?_Mylast@?$_Vector_alloc@U?$_Vec_base_types@UVirtualMarkerSet@PositionDatagram@@V?$allocator@UVirtualMarkerSet@PositionDatagram@@@std@@@std@@@std@@QEAAAEAPEAUVirtualMarkerSet@PositionDatagram@@XZ 000000014001fd50 f i positiondatagram.obj
 0001:0001ed70       ?_Mylast@?$_Vector_alloc@U?$_Vec_base_types@UVirtualMarkerSet@PositionDatagram@@V?$allocator@UVirtualMarkerSet@PositionDatagram@@@std@@@std@@@std@@QEBAAEBQEAUVirtualMarkerSet@PositionDatagram@@XZ 000000014001fd70 f i positiondatagram.obj
 0001:0001ed90       ?_Myproxy@?$_Vector_alloc@U?$_Vec_base_types@UVirtualMarkerSet@PositionDatagram@@V?$allocator@UVirtualMarkerSet@PositionDatagram@@@std@@@std@@@std@@QEAAAEAPEAU_Container_proxy@2@XZ 000000014001fd90 f i positiondatagram.obj
 0001:0001edb0       ?_Orphan_all@?$_Vector_alloc@U?$_Vec_base_types@UVirtualMarkerSet@PositionDatagram@@V?$allocator@UVirtualMarkerSet@PositionDatagram@@@std@@@std@@@std@@QEAAXXZ 000000014001fdb0 f i positiondatagram.obj
 0001:0001edd0       ?_Orphan_range@?$vector@UVirtualMarkerSet@PositionDatagram@@V?$allocator@UVirtualMarkerSet@PositionDatagram@@@std@@@std@@AEBAXPEAUVirtualMarkerSet@PositionDatagram@@0@Z 000000014001fdd0 f i positiondatagram.obj
 0001:0001ee90       ?_Tidy@?$vector@UVirtualMarkerSet@PositionDatagram@@V?$allocator@UVirtualMarkerSet@PositionDatagram@@@std@@@std@@AEAAXXZ 000000014001fe90 f i positiondatagram.obj
 0001:0001ef60       ?_Umove@?$vector@UVirtualMarkerSet@PositionDatagram@@V?$allocator@UVirtualMarkerSet@PositionDatagram@@@std@@@std@@AEAAPEAUVirtualMarkerSet@PositionDatagram@@PEAU34@00@Z 000000014001ff60 f i positiondatagram.obj
 0001:0001efa0       ?_Umove_if_noexcept1@?$vector@UVirtualMarkerSet@PositionDatagram@@V?$allocator@UVirtualMarkerSet@PositionDatagram@@@std@@@std@@AEAAXPEAUVirtualMarkerSet@PositionDatagram@@00U?$integral_constant@_N$00@2@@Z 000000014001ffa0 f i positiondatagram.obj
 0001:0001efe0       ?_Umove_if_noexcept@?$vector@UVirtualMarkerSet@PositionDatagram@@V?$allocator@UVirtualMarkerSet@PositionDatagram@@@std@@@std@@AEAAXPEAUVirtualMarkerSet@PositionDatagram@@00@Z 000000014001ffe0 f i positiondatagram.obj
 0001:0001f040       ?_Unchecked_begin@?$vector@UVirtualMarkerSet@PositionDatagram@@V?$allocator@UVirtualMarkerSet@PositionDatagram@@@std@@@std@@QEAAPEAUVirtualMarkerSet@PositionDatagram@@XZ 0000000140020040 f i positiondatagram.obj
 0001:0001f060       ?_Unchecked_end@?$vector@UVirtualMarkerSet@PositionDatagram@@V?$allocator@UVirtualMarkerSet@PositionDatagram@@@std@@@std@@QEAAPEAUVirtualMarkerSet@PositionDatagram@@XZ 0000000140020060 f i positiondatagram.obj
 0001:0001f080       ?_Xlength@?$vector@UVirtualMarkerSet@PositionDatagram@@V?$allocator@UVirtualMarkerSet@PositionDatagram@@@std@@@std@@CAXXZ 0000000140020080 f i positiondatagram.obj
 0001:0001f0a0       ?allocate@?$allocator@UVirtualMarkerSet@PositionDatagram@@@std@@QEAAPEAUVirtualMarkerSet@PositionDatagram@@_K@Z 00000001400200a0 f i positiondatagram.obj
 0001:0001f0d0       ?capacity@?$vector@UVirtualMarkerSet@PositionDatagram@@V?$allocator@UVirtualMarkerSet@PositionDatagram@@@std@@@std@@QEBA_KXZ 00000001400200d0 f i positiondatagram.obj
 0001:0001f110       ?deallocate@?$allocator@UVirtualMarkerSet@PositionDatagram@@@std@@QEAAXQEAUVirtualMarkerSet@PositionDatagram@@_K@Z 0000000140020110 f i positiondatagram.obj
 0001:0001f140       ?max_size@?$_Default_allocator_traits@V?$allocator@UVirtualMarkerSet@PositionDatagram@@@std@@@std@@SA_KAEBV?$allocator@UVirtualMarkerSet@PositionDatagram@@@2@@Z 0000000140020140 f i positiondatagram.obj
 0001:0001f150       ?max_size@?$vector@UVirtualMarkerSet@PositionDatagram@@V?$allocator@UVirtualMarkerSet@PositionDatagram@@@std@@@std@@QEBA_KXZ 0000000140020150 f i positiondatagram.obj
 0001:0001f1a0       ?push_back@?$vector@UVirtualMarkerSet@PositionDatagram@@V?$allocator@UVirtualMarkerSet@PositionDatagram@@@std@@@std@@QEAAXAEBUVirtualMarkerSet@PositionDatagram@@@Z 00000001400201a0 f i positiondatagram.obj
 0001:0001f1d0       ?select_on_container_copy_construction@?$_Default_allocator_traits@V?$allocator@UVirtualMarkerSet@PositionDatagram@@@std@@@std@@SA?AV?$allocator@UVirtualMarkerSet@PositionDatagram@@@2@AEBV32@@Z 00000001400201d0 f i positiondatagram.obj
 0001:0001f1e0       ?size@?$vector@UVirtualMarkerSet@PositionDatagram@@V?$allocator@UVirtualMarkerSet@PositionDatagram@@@std@@@std@@QEBA_KXZ 00000001400201e0 f i positiondatagram.obj
 0001:0001f220       ??0QuaternionDatagram@@QEAA@XZ 0000000140020220 f   quaterniondatagram.obj
 0001:0001f280       ??1QuaternionDatagram@@UEAA@XZ 0000000140020280 f   quaterniondatagram.obj
 0001:0001f2c0       ?printData@QuaternionDatagram@@UEBAXXZ 00000001400202c0 f   quaterniondatagram.obj
 0001:0001f2f0       ?align_data@QuaternionDatagram@@SA?AV?$vector@MV?$allocator@M@std@@@std@@V?$vector@UKinematics@QuaternionDatagram@@V?$allocator@UKinematics@QuaternionDatagram@@@std@@@3@@Z 00000001400202f0 f   quaterniondatagram.obj
 0001:0001f4a0       ?push_sample@QuaternionDatagram@@SAXV?$vector@MV?$allocator@M@std@@@std@@@Z 00000001400204a0 f   quaterniondatagram.obj
 0001:0001f4e0       ?streamData@QuaternionDatagram@@UEBAXXZ 00000001400204e0 f   quaterniondatagram.obj
 0001:0001f580       ?deserializeData@QuaternionDatagram@@MEAAXAEAVStreamer@@@Z 0000000140020580 f   quaterniondatagram.obj
 0001:0001f6c0       ??$?0$$V@?$_Compressed_pair@V?$allocator@UKinematics@QuaternionDatagram@@@std@@V?$_Vector_val@U?$_Simple_types@UKinematics@QuaternionDatagram@@@std@@@2@$00@std@@QEAA@U_Zero_then_variadic_args_t@1@@Z 00000001400206c0 f i quaterniondatagram.obj
 0001:0001f6f0       ??$?0UKinematics@QuaternionDatagram@@@?$allocator@U_Container_proxy@std@@@std@@QEAA@AEBV?$allocator@UKinematics@QuaternionDatagram@@@1@@Z 00000001400206f0 f i quaterniondatagram.obj
 0001:0001f700       ??$?0V?$allocator@UKinematics@QuaternionDatagram@@@std@@$$V@?$_Compressed_pair@V?$allocator@UKinematics@QuaternionDatagram@@@std@@V?$_Vector_val@U?$_Simple_types@UKinematics@QuaternionDatagram@@@std@@@2@$00@std@@QEAA@U_One_then_variadic_args_t@1@$$QEAV?$allocator@UKinematics@QuaternionDatagram@@@1@@Z 0000000140020700 f i quaterniondatagram.obj
 0001:0001f740       ??$?0V?$allocator@UKinematics@QuaternionDatagram@@@std@@X@?$_Vector_alloc@U?$_Vec_base_types@UKinematics@QuaternionDatagram@@V?$allocator@UKinematics@QuaternionDatagram@@@std@@@std@@@std@@QEAA@$$QEAV?$allocator@UKinematics@QuaternionDatagram@@@1@@Z 0000000140020740 f i quaterniondatagram.obj
 0001:0001f780       ??$_Copy_memmove@PEAUKinematics@QuaternionDatagram@@PEAU12@@std@@YAPEAUKinematics@QuaternionDatagram@@PEAU12@00@Z 0000000140020780 f i quaterniondatagram.obj
 0001:0001f7f0       ??$_Destroy_range1@V?$allocator@UKinematics@QuaternionDatagram@@@std@@@std@@YAXPEAUKinematics@QuaternionDatagram@@0AEAV?$allocator@UKinematics@QuaternionDatagram@@@0@U?$integral_constant@_N$00@0@@Z 00000001400207f0 f i quaterniondatagram.obj
 0001:0001f810       ??$_Destroy_range@V?$allocator@UKinematics@QuaternionDatagram@@@std@@@std@@YAXPEAUKinematics@QuaternionDatagram@@0AEAV?$allocator@UKinematics@QuaternionDatagram@@@0@@Z 0000000140020810 f i quaterniondatagram.obj
 0001:0001f850       ??$_Emplace_back_with_unused_capacity@AEBUKinematics@QuaternionDatagram@@@?$vector@UKinematics@QuaternionDatagram@@V?$allocator@UKinematics@QuaternionDatagram@@@std@@@std@@AEAAXAEBUKinematics@QuaternionDatagram@@@Z 0000000140020850 f i quaterniondatagram.obj
 0001:0001f910       ??$_Emplace_reallocate@AEBUKinematics@QuaternionDatagram@@@?$vector@UKinematics@QuaternionDatagram@@V?$allocator@UKinematics@QuaternionDatagram@@@std@@@std@@QEAAPEAUKinematics@QuaternionDatagram@@QEAU23@AEBU23@@Z 0000000140020910 f i quaterniondatagram.obj
 0001:0001fb60       ??$_Get_size_of_n@$0CA@@std@@YA_K_K@Z 0000000140020b60 f i quaterniondatagram.obj
 0001:0001fbb0       ??$_Ptr_copy_cat@UKinematics@QuaternionDatagram@@U12@@std@@YA?AU_Really_trivial_ptr_iterator_tag@0@AEBQEAUKinematics@QuaternionDatagram@@0@Z 0000000140020bb0 f i quaterniondatagram.obj
 0001:0001fbd0       ??$_Ptr_move_cat@UKinematics@QuaternionDatagram@@U12@@std@@YA?AU_Really_trivial_ptr_iterator_tag@0@AEBQEAUKinematics@QuaternionDatagram@@0@Z 0000000140020bd0 f i quaterniondatagram.obj
 0001:0001fd30       ??$_Rechecked@PEAUKinematics@QuaternionDatagram@@PEAU12@@std@@YAAEAPEAUKinematics@QuaternionDatagram@@AEAPEAU12@QEAU12@@Z 0000000140020d30 f i quaterniondatagram.obj
 0001:0001fd50       ??$_Ucopy@PEAUKinematics@QuaternionDatagram@@@?$vector@UKinematics@QuaternionDatagram@@V?$allocator@UKinematics@QuaternionDatagram@@@std@@@std@@AEAAPEAUKinematics@QuaternionDatagram@@PEAU23@00@Z 0000000140020d50 f i quaterniondatagram.obj
 0001:0001fd90       ??$_Unchecked@PEAUKinematics@QuaternionDatagram@@@std@@YAPEAUKinematics@QuaternionDatagram@@PEAU12@@Z 0000000140020d90 f i quaterniondatagram.obj
 0001:0001fda0       ??$_Unfancy@UKinematics@QuaternionDatagram@@@std@@YAPEAUKinematics@QuaternionDatagram@@PEAU12@@Z 0000000140020da0 f i quaterniondatagram.obj
 0001:0001fdb0       ??$_Uninitialized_copy@PEAUKinematics@QuaternionDatagram@@PEAU12@V?$allocator@UKinematics@QuaternionDatagram@@@std@@@std@@YAPEAUKinematics@QuaternionDatagram@@QEAU12@0PEAU12@AEAV?$allocator@UKinematics@QuaternionDatagram@@@0@@Z 0000000140020db0 f i quaterniondatagram.obj
 0001:0001fe50       ??$_Uninitialized_copy_al_unchecked@UKinematics@QuaternionDatagram@@U12@V?$allocator@UKinematics@QuaternionDatagram@@@std@@@std@@YAPEAUKinematics@QuaternionDatagram@@QEAU12@00AEAV?$allocator@UKinematics@QuaternionDatagram@@@0@U_Really_trivial_ptr_iterator_tag@0@U?$integral_constant@_N$00@0@@Z 0000000140020e50 f i quaterniondatagram.obj
 0001:0001fe90       ??$_Uninitialized_move@PEAUKinematics@QuaternionDatagram@@PEAU12@V?$allocator@UKinematics@QuaternionDatagram@@@std@@@std@@YAPEAUKinematics@QuaternionDatagram@@QEAU12@0PEAU12@AEAV?$allocator@UKinematics@QuaternionDatagram@@@0@@Z 0000000140020e90 f i quaterniondatagram.obj
 0001:0001ff30       ??$_Uninitialized_move_al_unchecked@UKinematics@QuaternionDatagram@@U12@V?$allocator@UKinematics@QuaternionDatagram@@@std@@@std@@YAPEAUKinematics@QuaternionDatagram@@QEAU12@00AEAV?$allocator@UKinematics@QuaternionDatagram@@@0@U_Really_trivial_ptr_iterator_tag@0@U?$integral_constant@_N$00@0@@Z 0000000140020f30 f i quaterniondatagram.obj
 0001:0001ff70       ??$addressof@V?$_Vector_val@U?$_Simple_types@UKinematics@QuaternionDatagram@@@std@@@std@@@std@@YAPEAV?$_Vector_val@U?$_Simple_types@UKinematics@QuaternionDatagram@@@std@@@0@AEAV10@@Z 0000000140020f70 f i quaterniondatagram.obj
 0001:0001ff80       ??$construct@UKinematics@QuaternionDatagram@@AEBU12@@?$_Default_allocator_traits@V?$allocator@UKinematics@QuaternionDatagram@@@std@@@std@@SAXAEAV?$allocator@UKinematics@QuaternionDatagram@@@1@QEAUKinematics@QuaternionDatagram@@AEBU34@@Z 0000000140020f80 f i quaterniondatagram.obj
 0001:0001ffd0       ??$emplace_back@AEBUKinematics@QuaternionDatagram@@@?$vector@UKinematics@QuaternionDatagram@@V?$allocator@UKinematics@QuaternionDatagram@@@std@@@std@@QEAAXAEBUKinematics@QuaternionDatagram@@@Z 0000000140020fd0 f i quaterniondatagram.obj
 0001:00020040       ??$forward@AEBUKinematics@QuaternionDatagram@@@std@@YAAEBUKinematics@QuaternionDatagram@@AEBU12@@Z 0000000140021040 f i quaterniondatagram.obj
 0001:00020050       ??$forward@V?$allocator@UKinematics@QuaternionDatagram@@@std@@@std@@YA$$QEAV?$allocator@UKinematics@QuaternionDatagram@@@0@AEAV10@@Z 0000000140021050 f i quaterniondatagram.obj
 0001:00020060       ??0?$_Vector_alloc@U?$_Vec_base_types@UKinematics@QuaternionDatagram@@V?$allocator@UKinematics@QuaternionDatagram@@@std@@@std@@@std@@QEAA@XZ 0000000140021060 f i quaterniondatagram.obj
 0001:00020090       ??0?$_Vector_val@U?$_Simple_types@UKinematics@QuaternionDatagram@@@std@@@std@@QEAA@XZ 0000000140021090 f i quaterniondatagram.obj
 0001:000200e0       ??0?$allocator@UKinematics@QuaternionDatagram@@@std@@QEAA@XZ 00000001400210e0 f i quaterniondatagram.obj
 0001:000200f0       ??0?$vector@UKinematics@QuaternionDatagram@@V?$allocator@UKinematics@QuaternionDatagram@@@std@@@std@@QEAA@AEBV01@@Z 00000001400210f0 f i quaterniondatagram.obj
 0001:000201c0       ??0?$vector@UKinematics@QuaternionDatagram@@V?$allocator@UKinematics@QuaternionDatagram@@@std@@@std@@QEAA@XZ 00000001400211c0 f i quaterniondatagram.obj
 0001:000201f0       ??1?$_Vector_alloc@U?$_Vec_base_types@UKinematics@QuaternionDatagram@@V?$allocator@UKinematics@QuaternionDatagram@@@std@@@std@@@std@@QEAA@XZ 00000001400211f0 f i quaterniondatagram.obj
 0001:00020220       ??1?$vector@UKinematics@QuaternionDatagram@@V?$allocator@UKinematics@QuaternionDatagram@@@std@@@std@@QEAA@XZ 0000000140021220 f i quaterniondatagram.obj
 0001:000202b0       ??_EQuaternionDatagram@@UEAAPEAXI@Z 00000001400212b0 f i quaterniondatagram.obj
 0001:000202b0       ??_GQuaternionDatagram@@UEAAPEAXI@Z 00000001400212b0 f i quaterniondatagram.obj
 0001:000202f0       ?_Alloc_proxy@?$_Vector_alloc@U?$_Vec_base_types@UKinematics@QuaternionDatagram@@V?$allocator@UKinematics@QuaternionDatagram@@@std@@@std@@@std@@QEAAXXZ 00000001400212f0 f i quaterniondatagram.obj
 0001:000203a0       ?_Buy@?$vector@UKinematics@QuaternionDatagram@@V?$allocator@UKinematics@QuaternionDatagram@@@std@@@std@@AEAA_N_K@Z 00000001400213a0 f i quaterniondatagram.obj
 0001:00020490       ?_Calculate_growth@?$vector@UKinematics@QuaternionDatagram@@V?$allocator@UKinematics@QuaternionDatagram@@@std@@@std@@AEBA_K_K@Z 0000000140021490 f i quaterniondatagram.obj
 0001:00020520       ?_Change_array@?$vector@UKinematics@QuaternionDatagram@@V?$allocator@UKinematics@QuaternionDatagram@@@std@@@std@@AEAAXQEAUKinematics@QuaternionDatagram@@_K1@Z 0000000140021520 f i quaterniondatagram.obj
 0001:00020630       ?_Destroy@?$vector@UKinematics@QuaternionDatagram@@V?$allocator@UKinematics@QuaternionDatagram@@@std@@@std@@AEAAXPEAUKinematics@QuaternionDatagram@@0@Z 0000000140021630 f i quaterniondatagram.obj
 0001:00020670       ?_Free_proxy@?$_Vector_alloc@U?$_Vec_base_types@UKinematics@QuaternionDatagram@@V?$allocator@UKinematics@QuaternionDatagram@@@std@@@std@@@std@@QEAAXXZ 0000000140021670 f i quaterniondatagram.obj
 0001:000206e0       ?_Get_data@?$_Vector_alloc@U?$_Vec_base_types@UKinematics@QuaternionDatagram@@V?$allocator@UKinematics@QuaternionDatagram@@@std@@@std@@@std@@QEAAAEAV?$_Vector_val@U?$_Simple_types@UKinematics@QuaternionDatagram@@@std@@@2@XZ 00000001400216e0 f i quaterniondatagram.obj
 0001:00020700       ?_Get_data@?$_Vector_alloc@U?$_Vec_base_types@UKinematics@QuaternionDatagram@@V?$allocator@UKinematics@QuaternionDatagram@@@std@@@std@@@std@@QEBAAEBV?$_Vector_val@U?$_Simple_types@UKinematics@QuaternionDatagram@@@std@@@2@XZ 0000000140021700 f i quaterniondatagram.obj
 0001:00020720       ?_Get_first@?$_Compressed_pair@V?$allocator@UKinematics@QuaternionDatagram@@@std@@V?$_Vector_val@U?$_Simple_types@UKinematics@QuaternionDatagram@@@std@@@2@$00@std@@QEAAAEAV?$allocator@UKinematics@QuaternionDatagram@@@2@XZ 0000000140021720 f i quaterniondatagram.obj
 0001:00020730       ?_Get_first@?$_Compressed_pair@V?$allocator@UKinematics@QuaternionDatagram@@@std@@V?$_Vector_val@U?$_Simple_types@UKinematics@QuaternionDatagram@@@std@@@2@$00@std@@QEBAAEBV?$allocator@UKinematics@QuaternionDatagram@@@2@XZ 0000000140021730 f i quaterniondatagram.obj
 0001:00020740       ?_Get_second@?$_Compressed_pair@V?$allocator@UKinematics@QuaternionDatagram@@@std@@V?$_Vector_val@U?$_Simple_types@UKinematics@QuaternionDatagram@@@std@@@2@$00@std@@QEAAAEAV?$_Vector_val@U?$_Simple_types@UKinematics@QuaternionDatagram@@@std@@@2@XZ 0000000140021740 f i quaterniondatagram.obj
 0001:00020750       ?_Get_second@?$_Compressed_pair@V?$allocator@UKinematics@QuaternionDatagram@@@std@@V?$_Vector_val@U?$_Simple_types@UKinematics@QuaternionDatagram@@@std@@@2@$00@std@@QEBAAEBV?$_Vector_val@U?$_Simple_types@UKinematics@QuaternionDatagram@@@std@@@2@XZ 0000000140021750 f i quaterniondatagram.obj
 0001:00020760       ?_Getal@?$_Vector_alloc@U?$_Vec_base_types@UKinematics@QuaternionDatagram@@V?$allocator@UKinematics@QuaternionDatagram@@@std@@@std@@@std@@QEAAAEAV?$allocator@UKinematics@QuaternionDatagram@@@2@XZ 0000000140021760 f i quaterniondatagram.obj
 0001:00020780       ?_Getal@?$_Vector_alloc@U?$_Vec_base_types@UKinematics@QuaternionDatagram@@V?$allocator@UKinematics@QuaternionDatagram@@@std@@@std@@@std@@QEBAAEBV?$allocator@UKinematics@QuaternionDatagram@@@2@XZ 0000000140021780 f i quaterniondatagram.obj
 0001:000207a0       ?_Getpfirst@?$_Vector_alloc@U?$_Vec_base_types@UKinematics@QuaternionDatagram@@V?$allocator@UKinematics@QuaternionDatagram@@@std@@@std@@@std@@QEBAPEAPEAU_Iterator_base12@2@XZ 00000001400217a0 f i quaterniondatagram.obj
 0001:000207c0       ?_Has_unused_capacity@?$vector@UKinematics@QuaternionDatagram@@V?$allocator@UKinematics@QuaternionDatagram@@@std@@@std@@AEBA_NXZ 00000001400217c0 f i quaterniondatagram.obj
 0001:00020810       ?_Myend@?$_Vector_alloc@U?$_Vec_base_types@UKinematics@QuaternionDatagram@@V?$allocator@UKinematics@QuaternionDatagram@@@std@@@std@@@std@@QEAAAEAPEAUKinematics@QuaternionDatagram@@XZ 0000000140021810 f i quaterniondatagram.obj
 0001:00020830       ?_Myend@?$_Vector_alloc@U?$_Vec_base_types@UKinematics@QuaternionDatagram@@V?$allocator@UKinematics@QuaternionDatagram@@@std@@@std@@@std@@QEBAAEBQEAUKinematics@QuaternionDatagram@@XZ 0000000140021830 f i quaterniondatagram.obj
 0001:00020850       ?_Myfirst@?$_Vector_alloc@U?$_Vec_base_types@UKinematics@QuaternionDatagram@@V?$allocator@UKinematics@QuaternionDatagram@@@std@@@std@@@std@@QEAAAEAPEAUKinematics@QuaternionDatagram@@XZ 0000000140021850 f i quaterniondatagram.obj
 0001:00020870       ?_Myfirst@?$_Vector_alloc@U?$_Vec_base_types@UKinematics@QuaternionDatagram@@V?$allocator@UKinematics@QuaternionDatagram@@@std@@@std@@@std@@QEBAAEBQEAUKinematics@QuaternionDatagram@@XZ 0000000140021870 f i quaterniondatagram.obj
 0001:00020890       ?_Mylast@?$_Vector_alloc@U?$_Vec_base_types@UKinematics@QuaternionDatagram@@V?$allocator@UKinematics@QuaternionDatagram@@@std@@@std@@@std@@QEAAAEAPEAUKinematics@QuaternionDatagram@@XZ 0000000140021890 f i quaterniondatagram.obj
 0001:000208b0       ?_Mylast@?$_Vector_alloc@U?$_Vec_base_types@UKinematics@QuaternionDatagram@@V?$allocator@UKinematics@QuaternionDatagram@@@std@@@std@@@std@@QEBAAEBQEAUKinematics@QuaternionDatagram@@XZ 00000001400218b0 f i quaterniondatagram.obj
 0001:000208d0       ?_Myproxy@?$_Vector_alloc@U?$_Vec_base_types@UKinematics@QuaternionDatagram@@V?$allocator@UKinematics@QuaternionDatagram@@@std@@@std@@@std@@QEAAAEAPEAU_Container_proxy@2@XZ 00000001400218d0 f i quaterniondatagram.obj
 0001:000208f0       ?_Orphan_all@?$_Vector_alloc@U?$_Vec_base_types@UKinematics@QuaternionDatagram@@V?$allocator@UKinematics@QuaternionDatagram@@@std@@@std@@@std@@QEAAXXZ 00000001400218f0 f i quaterniondatagram.obj
 0001:00020910       ?_Orphan_range@?$vector@UKinematics@QuaternionDatagram@@V?$allocator@UKinematics@QuaternionDatagram@@@std@@@std@@AEBAXPEAUKinematics@QuaternionDatagram@@0@Z 0000000140021910 f i quaterniondatagram.obj
 0001:000209d0       ?_Tidy@?$vector@UKinematics@QuaternionDatagram@@V?$allocator@UKinematics@QuaternionDatagram@@@std@@@std@@AEAAXXZ 00000001400219d0 f i quaterniondatagram.obj
 0001:00020aa0       ?_Umove@?$vector@UKinematics@QuaternionDatagram@@V?$allocator@UKinematics@QuaternionDatagram@@@std@@@std@@AEAAPEAUKinematics@QuaternionDatagram@@PEAU34@00@Z 0000000140021aa0 f i quaterniondatagram.obj
 0001:00020ae0       ?_Umove_if_noexcept1@?$vector@UKinematics@QuaternionDatagram@@V?$allocator@UKinematics@QuaternionDatagram@@@std@@@std@@AEAAXPEAUKinematics@QuaternionDatagram@@00U?$integral_constant@_N$00@2@@Z 0000000140021ae0 f i quaterniondatagram.obj
 0001:00020b20       ?_Umove_if_noexcept@?$vector@UKinematics@QuaternionDatagram@@V?$allocator@UKinematics@QuaternionDatagram@@@std@@@std@@AEAAXPEAUKinematics@QuaternionDatagram@@00@Z 0000000140021b20 f i quaterniondatagram.obj
 0001:00020b80       ?_Unchecked_begin@?$vector@UKinematics@QuaternionDatagram@@V?$allocator@UKinematics@QuaternionDatagram@@@std@@@std@@QEAAPEAUKinematics@QuaternionDatagram@@XZ 0000000140021b80 f i quaterniondatagram.obj
 0001:00020ba0       ?_Unchecked_end@?$vector@UKinematics@QuaternionDatagram@@V?$allocator@UKinematics@QuaternionDatagram@@@std@@@std@@QEAAPEAUKinematics@QuaternionDatagram@@XZ 0000000140021ba0 f i quaterniondatagram.obj
 0001:00020bc0       ?_Xlength@?$vector@UKinematics@QuaternionDatagram@@V?$allocator@UKinematics@QuaternionDatagram@@@std@@@std@@CAXXZ 0000000140021bc0 f i quaterniondatagram.obj
 0001:00020be0       ?allocate@?$allocator@UKinematics@QuaternionDatagram@@@std@@QEAAPEAUKinematics@QuaternionDatagram@@_K@Z 0000000140021be0 f i quaterniondatagram.obj
 0001:00020c10       ?capacity@?$vector@UKinematics@QuaternionDatagram@@V?$allocator@UKinematics@QuaternionDatagram@@@std@@@std@@QEBA_KXZ 0000000140021c10 f i quaterniondatagram.obj
 0001:00020c50       ?deallocate@?$allocator@UKinematics@QuaternionDatagram@@@std@@QEAAXQEAUKinematics@QuaternionDatagram@@_K@Z 0000000140021c50 f i quaterniondatagram.obj
 0001:00020c80       ?max_size@?$_Default_allocator_traits@V?$allocator@UKinematics@QuaternionDatagram@@@std@@@std@@SA_KAEBV?$allocator@UKinematics@QuaternionDatagram@@@2@@Z 0000000140021c80 f i quaterniondatagram.obj
 0001:00020c90       ?max_size@?$vector@UKinematics@QuaternionDatagram@@V?$allocator@UKinematics@QuaternionDatagram@@@std@@@std@@QEBA_KXZ 0000000140021c90 f i quaterniondatagram.obj
 0001:00020ce0       ?push_back@?$vector@UKinematics@QuaternionDatagram@@V?$allocator@UKinematics@QuaternionDatagram@@@std@@@std@@QEAAXAEBUKinematics@QuaternionDatagram@@@Z 0000000140021ce0 f i quaterniondatagram.obj
 0001:00020d10       ?select_on_container_copy_construction@?$_Default_allocator_traits@V?$allocator@UKinematics@QuaternionDatagram@@@std@@@std@@SA?AV?$allocator@UKinematics@QuaternionDatagram@@@2@AEBV32@@Z 0000000140021d10 f i quaterniondatagram.obj
 0001:00020d20       ?size@?$vector@UKinematics@QuaternionDatagram@@V?$allocator@UKinematics@QuaternionDatagram@@@std@@@std@@QEBA_KXZ 0000000140021d20 f i quaterniondatagram.obj
 0001:00020d60       ??0ScaleDatagram@@QEAA@XZ  0000000140021d60 f   scaledatagram.obj
 0001:00020dd0       ??1ScaleDatagram@@UEAA@XZ  0000000140021dd0 f   scaledatagram.obj
 0001:00020e20       ?printData@ScaleDatagram@@UEBAXXZ 0000000140021e20 f   scaledatagram.obj
 0001:00020e30       ?deserializeData@ScaleDatagram@@MEAAXAEAVStreamer@@@Z 0000000140021e30 f   scaledatagram.obj
 0001:000210e0       ??$?0$$V@?$_Compressed_pair@V?$allocator@UNullPoseDefinition@ScaleDatagram@@@std@@V?$_Vector_val@U?$_Simple_types@UNullPoseDefinition@ScaleDatagram@@@std@@@2@$00@std@@QEAA@U_Zero_then_variadic_args_t@1@@Z 00000001400220e0 f i scaledatagram.obj
 0001:00021110       ??$?0$$V@?$_Compressed_pair@V?$allocator@UPointDefinition@ScaleDatagram@@@std@@V?$_Vector_val@U?$_Simple_types@UPointDefinition@ScaleDatagram@@@std@@@2@$00@std@@QEAA@U_Zero_then_variadic_args_t@1@@Z 0000000140022110 f i scaledatagram.obj
 0001:00021140       ??$?0UNullPoseDefinition@ScaleDatagram@@@?$allocator@U_Container_proxy@std@@@std@@QEAA@AEBV?$allocator@UNullPoseDefinition@ScaleDatagram@@@1@@Z 0000000140022140 f i scaledatagram.obj
 0001:00021150       ??$?0UPointDefinition@ScaleDatagram@@@?$allocator@U_Container_proxy@std@@@std@@QEAA@AEBV?$allocator@UPointDefinition@ScaleDatagram@@@1@@Z 0000000140022150 f i scaledatagram.obj
 0001:00021160       ??$_Destroy_range1@V?$allocator@UNullPoseDefinition@ScaleDatagram@@@std@@@std@@YAXPEAUNullPoseDefinition@ScaleDatagram@@0AEAV?$allocator@UNullPoseDefinition@ScaleDatagram@@@0@U?$integral_constant@_N$0A@@0@@Z 0000000140022160 f i scaledatagram.obj
 0001:000211c0       ??$_Destroy_range1@V?$allocator@UPointDefinition@ScaleDatagram@@@std@@@std@@YAXPEAUPointDefinition@ScaleDatagram@@0AEAV?$allocator@UPointDefinition@ScaleDatagram@@@0@U?$integral_constant@_N$0A@@0@@Z 00000001400221c0 f i scaledatagram.obj
 0001:00021220       ??$_Destroy_range@V?$allocator@UNullPoseDefinition@ScaleDatagram@@@std@@@std@@YAXPEAUNullPoseDefinition@ScaleDatagram@@0AEAV?$allocator@UNullPoseDefinition@ScaleDatagram@@@0@@Z 0000000140022220 f i scaledatagram.obj
 0001:00021260       ??$_Destroy_range@V?$allocator@UPointDefinition@ScaleDatagram@@@std@@@std@@YAXPEAUPointDefinition@ScaleDatagram@@0AEAV?$allocator@UPointDefinition@ScaleDatagram@@@0@@Z 0000000140022260 f i scaledatagram.obj
 0001:000212a0       ??$_Emplace_back@UNullPoseDefinition@ScaleDatagram@@@?$_Uninitialized_backout_al@PEAUNullPoseDefinition@ScaleDatagram@@V?$allocator@UNullPoseDefinition@ScaleDatagram@@@std@@@std@@QEAAX$$QEAUNullPoseDefinition@ScaleDatagram@@@Z 00000001400222a0 f i scaledatagram.obj
 0001:00021300       ??$_Emplace_back@UPointDefinition@ScaleDatagram@@@?$_Uninitialized_backout_al@PEAUPointDefinition@ScaleDatagram@@V?$allocator@UPointDefinition@ScaleDatagram@@@std@@@std@@QEAAX$$QEAUPointDefinition@ScaleDatagram@@@Z 0000000140022300 f i scaledatagram.obj
 0001:00021360       ??$_Emplace_back_with_unused_capacity@AEBUNullPoseDefinition@ScaleDatagram@@@?$vector@UNullPoseDefinition@ScaleDatagram@@V?$allocator@UNullPoseDefinition@ScaleDatagram@@@std@@@std@@AEAAXAEBUNullPoseDefinition@ScaleDatagram@@@Z 0000000140022360 f i scaledatagram.obj
 0001:00021420       ??$_Emplace_back_with_unused_capacity@AEBUPointDefinition@ScaleDatagram@@@?$vector@UPointDefinition@ScaleDatagram@@V?$allocator@UPointDefinition@ScaleDatagram@@@std@@@std@@AEAAXAEBUPointDefinition@ScaleDatagram@@@Z 0000000140022420 f i scaledatagram.obj
 0001:000214e0       ??$_Emplace_reallocate@AEBUNullPoseDefinition@ScaleDatagram@@@?$vector@UNullPoseDefinition@ScaleDatagram@@V?$allocator@UNullPoseDefinition@ScaleDatagram@@@std@@@std@@QEAAPEAUNullPoseDefinition@ScaleDatagram@@QEAU23@AEBU23@@Z 00000001400224e0 f i scaledatagram.obj
 0001:00021730       ??$_Emplace_reallocate@AEBUPointDefinition@ScaleDatagram@@@?$vector@UPointDefinition@ScaleDatagram@@V?$allocator@UPointDefinition@ScaleDatagram@@@std@@@std@@QEAAPEAUPointDefinition@ScaleDatagram@@QEAU23@AEBU23@@Z 0000000140022730 f i scaledatagram.obj
 0001:00021980       ??$_Get_size_of_n@$0DI@@std@@YA_K_K@Z 0000000140022980 f i scaledatagram.obj
 0001:000219d0       ??$_Get_size_of_n@$0EA@@std@@YA_K_K@Z 00000001400229d0 f i scaledatagram.obj
 0001:00021a20       ??$_Ptr_move_cat@UNullPoseDefinition@ScaleDatagram@@U12@@std@@YA?AU_General_ptr_iterator_tag@0@AEBQEAUNullPoseDefinition@ScaleDatagram@@0@Z 0000000140022a20 f i scaledatagram.obj
 0001:00021a50       ??$_Ptr_move_cat@UPointDefinition@ScaleDatagram@@U12@@std@@YA?AU_General_ptr_iterator_tag@0@AEBQEAUPointDefinition@ScaleDatagram@@0@Z 0000000140022a50 f i scaledatagram.obj
 0001:00021bc0       ??$_Rechecked@PEAUNullPoseDefinition@ScaleDatagram@@PEAU12@@std@@YAAEAPEAUNullPoseDefinition@ScaleDatagram@@AEAPEAU12@QEAU12@@Z 0000000140022bc0 f i scaledatagram.obj
 0001:00021be0       ??$_Rechecked@PEAUPointDefinition@ScaleDatagram@@PEAU12@@std@@YAAEAPEAUPointDefinition@ScaleDatagram@@AEAPEAU12@QEAU12@@Z 0000000140022be0 f i scaledatagram.obj
 0001:00021c00       ??$_Unchecked@PEAUNullPoseDefinition@ScaleDatagram@@@std@@YAPEAUNullPoseDefinition@ScaleDatagram@@PEAU12@@Z 0000000140022c00 f i scaledatagram.obj
 0001:00021c10       ??$_Unchecked@PEAUPointDefinition@ScaleDatagram@@@std@@YAPEAUPointDefinition@ScaleDatagram@@PEAU12@@Z 0000000140022c10 f i scaledatagram.obj
 0001:00021c20       ??$_Unfancy@UNullPoseDefinition@ScaleDatagram@@@std@@YAPEAUNullPoseDefinition@ScaleDatagram@@PEAU12@@Z 0000000140022c20 f i scaledatagram.obj
 0001:00021c30       ??$_Unfancy@UPointDefinition@ScaleDatagram@@@std@@YAPEAUPointDefinition@ScaleDatagram@@PEAU12@@Z 0000000140022c30 f i scaledatagram.obj
 0001:00021c40       ??$_Uninitialized_move@PEAUNullPoseDefinition@ScaleDatagram@@PEAU12@V?$allocator@UNullPoseDefinition@ScaleDatagram@@@std@@@std@@YAPEAUNullPoseDefinition@ScaleDatagram@@QEAU12@0PEAU12@AEAV?$allocator@UNullPoseDefinition@ScaleDatagram@@@0@@Z 0000000140022c40 f i scaledatagram.obj
 0001:00021d00       ??$_Uninitialized_move@PEAUPointDefinition@ScaleDatagram@@PEAU12@V?$allocator@UPointDefinition@ScaleDatagram@@@std@@@std@@YAPEAUPointDefinition@ScaleDatagram@@QEAU12@0PEAU12@AEAV?$allocator@UPointDefinition@ScaleDatagram@@@0@@Z 0000000140022d00 f i scaledatagram.obj
 0001:00021dc0       ??$_Uninitialized_move_al_unchecked@PEAUNullPoseDefinition@ScaleDatagram@@PEAU12@V?$allocator@UNullPoseDefinition@ScaleDatagram@@@std@@@std@@YAPEAUNullPoseDefinition@ScaleDatagram@@PEAU12@QEAU12@1AEAV?$allocator@UNullPoseDefinition@ScaleDatagram@@@0@U_General_ptr_iterator_tag@0@U_Unused_parameter@0@@Z 0000000140022dc0 f i scaledatagram.obj
 0001:00021e50       ??$_Uninitialized_move_al_unchecked@PEAUPointDefinition@ScaleDatagram@@PEAU12@V?$allocator@UPointDefinition@ScaleDatagram@@@std@@@std@@YAPEAUPointDefinition@ScaleDatagram@@PEAU12@QEAU12@1AEAV?$allocator@UPointDefinition@ScaleDatagram@@@0@U_General_ptr_iterator_tag@0@U_Unused_parameter@0@@Z 0000000140022e50 f i scaledatagram.obj
 0001:00021ee0       ??$addressof@V?$_Vector_val@U?$_Simple_types@UNullPoseDefinition@ScaleDatagram@@@std@@@std@@@std@@YAPEAV?$_Vector_val@U?$_Simple_types@UNullPoseDefinition@ScaleDatagram@@@std@@@0@AEAV10@@Z 0000000140022ee0 f i scaledatagram.obj
 0001:00021ef0       ??$addressof@V?$_Vector_val@U?$_Simple_types@UPointDefinition@ScaleDatagram@@@std@@@std@@@std@@YAPEAV?$_Vector_val@U?$_Simple_types@UPointDefinition@ScaleDatagram@@@std@@@0@AEAV10@@Z 0000000140022ef0 f i scaledatagram.obj
 0001:00021f00       ??$construct@UNullPoseDefinition@ScaleDatagram@@AEBU12@@?$_Default_allocator_traits@V?$allocator@UNullPoseDefinition@ScaleDatagram@@@std@@@std@@SAXAEAV?$allocator@UNullPoseDefinition@ScaleDatagram@@@1@QEAUNullPoseDefinition@ScaleDatagram@@AEBU34@@Z 0000000140022f00 f i scaledatagram.obj
 0001:00021f50       ??$construct@UNullPoseDefinition@ScaleDatagram@@U12@@?$_Default_allocator_traits@V?$allocator@UNullPoseDefinition@ScaleDatagram@@@std@@@std@@SAXAEAV?$allocator@UNullPoseDefinition@ScaleDatagram@@@1@QEAUNullPoseDefinition@ScaleDatagram@@$$QEAU34@@Z 0000000140022f50 f i scaledatagram.obj
 0001:00021fa0       ??$construct@UPointDefinition@ScaleDatagram@@AEBU12@@?$_Default_allocator_traits@V?$allocator@UPointDefinition@ScaleDatagram@@@std@@@std@@SAXAEAV?$allocator@UPointDefinition@ScaleDatagram@@@1@QEAUPointDefinition@ScaleDatagram@@AEBU34@@Z 0000000140022fa0 f i scaledatagram.obj
 0001:00021ff0       ??$construct@UPointDefinition@ScaleDatagram@@U12@@?$_Default_allocator_traits@V?$allocator@UPointDefinition@ScaleDatagram@@@std@@@std@@SAXAEAV?$allocator@UPointDefinition@ScaleDatagram@@@1@QEAUPointDefinition@ScaleDatagram@@$$QEAU34@@Z 0000000140022ff0 f i scaledatagram.obj
 0001:00022040       ??$destroy@UNullPoseDefinition@ScaleDatagram@@@?$_Default_allocator_traits@V?$allocator@UNullPoseDefinition@ScaleDatagram@@@std@@@std@@SAXAEAV?$allocator@UNullPoseDefinition@ScaleDatagram@@@1@QEAUNullPoseDefinition@ScaleDatagram@@@Z 0000000140023040 f i scaledatagram.obj
 0001:00022060       ??$destroy@UPointDefinition@ScaleDatagram@@@?$_Default_allocator_traits@V?$allocator@UPointDefinition@ScaleDatagram@@@std@@@std@@SAXAEAV?$allocator@UPointDefinition@ScaleDatagram@@@1@QEAUPointDefinition@ScaleDatagram@@@Z 0000000140023060 f i scaledatagram.obj
 0001:00022080       ??$emplace_back@AEBUNullPoseDefinition@ScaleDatagram@@@?$vector@UNullPoseDefinition@ScaleDatagram@@V?$allocator@UNullPoseDefinition@ScaleDatagram@@@std@@@std@@QEAAXAEBUNullPoseDefinition@ScaleDatagram@@@Z 0000000140023080 f i scaledatagram.obj
 0001:000220f0       ??$emplace_back@AEBUPointDefinition@ScaleDatagram@@@?$vector@UPointDefinition@ScaleDatagram@@V?$allocator@UPointDefinition@ScaleDatagram@@@std@@@std@@QEAAXAEBUPointDefinition@ScaleDatagram@@@Z 00000001400230f0 f i scaledatagram.obj
 0001:00022160       ??$forward@AEBUNullPoseDefinition@ScaleDatagram@@@std@@YAAEBUNullPoseDefinition@ScaleDatagram@@AEBU12@@Z 0000000140023160 f i scaledatagram.obj
 0001:00022170       ??$forward@AEBUPointDefinition@ScaleDatagram@@@std@@YAAEBUPointDefinition@ScaleDatagram@@AEBU12@@Z 0000000140023170 f i scaledatagram.obj
 0001:00022180       ??$forward@UNullPoseDefinition@ScaleDatagram@@@std@@YA$$QEAUNullPoseDefinition@ScaleDatagram@@AEAU12@@Z 0000000140023180 f i scaledatagram.obj
 0001:00022190       ??$forward@UPointDefinition@ScaleDatagram@@@std@@YA$$QEAUPointDefinition@ScaleDatagram@@AEAU12@@Z 0000000140023190 f i scaledatagram.obj
 0001:000221a0       ??$move@AEAUNullPoseDefinition@ScaleDatagram@@@std@@YA$$QEAUNullPoseDefinition@ScaleDatagram@@AEAU12@@Z 00000001400231a0 f i scaledatagram.obj
 0001:000221b0       ??$move@AEAUPointDefinition@ScaleDatagram@@@std@@YA$$QEAUPointDefinition@ScaleDatagram@@AEAU12@@Z 00000001400231b0 f i scaledatagram.obj
 0001:000221c0       ??0?$_Uninitialized_backout_al@PEAUNullPoseDefinition@ScaleDatagram@@V?$allocator@UNullPoseDefinition@ScaleDatagram@@@std@@@std@@QEAA@PEAUNullPoseDefinition@ScaleDatagram@@AEAV?$allocator@UNullPoseDefinition@ScaleDatagram@@@1@@Z 00000001400231c0 f i scaledatagram.obj
 0001:00022200       ??0?$_Uninitialized_backout_al@PEAUPointDefinition@ScaleDatagram@@V?$allocator@UPointDefinition@ScaleDatagram@@@std@@@std@@QEAA@PEAUPointDefinition@ScaleDatagram@@AEAV?$allocator@UPointDefinition@ScaleDatagram@@@1@@Z 0000000140023200 f i scaledatagram.obj
 0001:00022240       ??0?$_Vector_alloc@U?$_Vec_base_types@UNullPoseDefinition@ScaleDatagram@@V?$allocator@UNullPoseDefinition@ScaleDatagram@@@std@@@std@@@std@@QEAA@XZ 0000000140023240 f i scaledatagram.obj
 0001:00022270       ??0?$_Vector_alloc@U?$_Vec_base_types@UPointDefinition@ScaleDatagram@@V?$allocator@UPointDefinition@ScaleDatagram@@@std@@@std@@@std@@QEAA@XZ 0000000140023270 f i scaledatagram.obj
 0001:000222a0       ??0?$_Vector_val@U?$_Simple_types@UNullPoseDefinition@ScaleDatagram@@@std@@@std@@QEAA@XZ 00000001400232a0 f i scaledatagram.obj
 0001:000222f0       ??0?$_Vector_val@U?$_Simple_types@UPointDefinition@ScaleDatagram@@@std@@@std@@QEAA@XZ 00000001400232f0 f i scaledatagram.obj
 0001:00022340       ??0?$allocator@UNullPoseDefinition@ScaleDatagram@@@std@@QEAA@XZ 0000000140023340 f i scaledatagram.obj
 0001:00022350       ??0?$allocator@UPointDefinition@ScaleDatagram@@@std@@QEAA@XZ 0000000140023350 f i scaledatagram.obj
 0001:00022360       ??0?$vector@UNullPoseDefinition@ScaleDatagram@@V?$allocator@UNullPoseDefinition@ScaleDatagram@@@std@@@std@@QEAA@XZ 0000000140023360 f i scaledatagram.obj
 0001:00022390       ??0?$vector@UPointDefinition@ScaleDatagram@@V?$allocator@UPointDefinition@ScaleDatagram@@@std@@@std@@QEAA@XZ 0000000140023390 f i scaledatagram.obj
 0001:000223c0       ??0NullPoseDefinition@ScaleDatagram@@QEAA@$$QEAU01@@Z 00000001400233c0 f i scaledatagram.obj
 0001:00022410       ??0NullPoseDefinition@ScaleDatagram@@QEAA@AEBU01@@Z 0000000140023410 f i scaledatagram.obj
 0001:00022460       ??0NullPoseDefinition@ScaleDatagram@@QEAA@XZ 0000000140023460 f i scaledatagram.obj
 0001:00022480       ??0PointDefinition@ScaleDatagram@@QEAA@$$QEAU01@@Z 0000000140023480 f i scaledatagram.obj
 0001:00022510       ??0PointDefinition@ScaleDatagram@@QEAA@AEBU01@@Z 0000000140023510 f i scaledatagram.obj
 0001:000225a0       ??0PointDefinition@ScaleDatagram@@QEAA@XZ 00000001400235a0 f i scaledatagram.obj
 0001:000225d0       ??1?$_Uninitialized_backout_al@PEAUNullPoseDefinition@ScaleDatagram@@V?$allocator@UNullPoseDefinition@ScaleDatagram@@@std@@@std@@QEAA@XZ 00000001400235d0 f i scaledatagram.obj
 0001:00022610       ??1?$_Uninitialized_backout_al@PEAUPointDefinition@ScaleDatagram@@V?$allocator@UPointDefinition@ScaleDatagram@@@std@@@std@@QEAA@XZ 0000000140023610 f i scaledatagram.obj
 0001:00022650       ??1?$_Vector_alloc@U?$_Vec_base_types@UNullPoseDefinition@ScaleDatagram@@V?$allocator@UNullPoseDefinition@ScaleDatagram@@@std@@@std@@@std@@QEAA@XZ 0000000140023650 f i scaledatagram.obj
 0001:00022680       ??1?$_Vector_alloc@U?$_Vec_base_types@UPointDefinition@ScaleDatagram@@V?$allocator@UPointDefinition@ScaleDatagram@@@std@@@std@@@std@@QEAA@XZ 0000000140023680 f i scaledatagram.obj
 0001:000226b0       ??1?$vector@UNullPoseDefinition@ScaleDatagram@@V?$allocator@UNullPoseDefinition@ScaleDatagram@@@std@@@std@@QEAA@XZ 00000001400236b0 f i scaledatagram.obj
 0001:000226e0       ??1?$vector@UPointDefinition@ScaleDatagram@@V?$allocator@UPointDefinition@ScaleDatagram@@@std@@@std@@QEAA@XZ 00000001400236e0 f i scaledatagram.obj
 0001:00022710       ??1NullPoseDefinition@ScaleDatagram@@QEAA@XZ 0000000140023710 f i scaledatagram.obj
 0001:00022730       ??1PointDefinition@ScaleDatagram@@QEAA@XZ 0000000140023730 f i scaledatagram.obj
 0001:000227b0       ??_GNullPoseDefinition@ScaleDatagram@@QEAAPEAXI@Z 00000001400237b0 f i scaledatagram.obj
 0001:000227f0       ??_GPointDefinition@ScaleDatagram@@QEAAPEAXI@Z 00000001400237f0 f i scaledatagram.obj
 0001:00022830       ??_EScaleDatagram@@UEAAPEAXI@Z 0000000140023830 f i scaledatagram.obj
 0001:00022830       ??_GScaleDatagram@@UEAAPEAXI@Z 0000000140023830 f i scaledatagram.obj
 0001:00022870       ?_Alloc_proxy@?$_Vector_alloc@U?$_Vec_base_types@UNullPoseDefinition@ScaleDatagram@@V?$allocator@UNullPoseDefinition@ScaleDatagram@@@std@@@std@@@std@@QEAAXXZ 0000000140023870 f i scaledatagram.obj
 0001:00022920       ?_Alloc_proxy@?$_Vector_alloc@U?$_Vec_base_types@UPointDefinition@ScaleDatagram@@V?$allocator@UPointDefinition@ScaleDatagram@@@std@@@std@@@std@@QEAAXXZ 0000000140023920 f i scaledatagram.obj
 0001:000229d0       ?_Calculate_growth@?$vector@UNullPoseDefinition@ScaleDatagram@@V?$allocator@UNullPoseDefinition@ScaleDatagram@@@std@@@std@@AEBA_K_K@Z 00000001400239d0 f i scaledatagram.obj
 0001:00022a60       ?_Calculate_growth@?$vector@UPointDefinition@ScaleDatagram@@V?$allocator@UPointDefinition@ScaleDatagram@@@std@@@std@@AEBA_K_K@Z 0000000140023a60 f i scaledatagram.obj
 0001:00022af0       ?_Change_array@?$vector@UNullPoseDefinition@ScaleDatagram@@V?$allocator@UNullPoseDefinition@ScaleDatagram@@@std@@@std@@AEAAXQEAUNullPoseDefinition@ScaleDatagram@@_K1@Z 0000000140023af0 f i scaledatagram.obj
 0001:00022c00       ?_Change_array@?$vector@UPointDefinition@ScaleDatagram@@V?$allocator@UPointDefinition@ScaleDatagram@@@std@@@std@@AEAAXQEAUPointDefinition@ScaleDatagram@@_K1@Z 0000000140023c00 f i scaledatagram.obj
 0001:00022d10       ?_Destroy@?$vector@UNullPoseDefinition@ScaleDatagram@@V?$allocator@UNullPoseDefinition@ScaleDatagram@@@std@@@std@@AEAAXPEAUNullPoseDefinition@ScaleDatagram@@0@Z 0000000140023d10 f i scaledatagram.obj
 0001:00022d50       ?_Destroy@?$vector@UPointDefinition@ScaleDatagram@@V?$allocator@UPointDefinition@ScaleDatagram@@@std@@@std@@AEAAXPEAUPointDefinition@ScaleDatagram@@0@Z 0000000140023d50 f i scaledatagram.obj
 0001:00022d90       ?_Free_proxy@?$_Vector_alloc@U?$_Vec_base_types@UNullPoseDefinition@ScaleDatagram@@V?$allocator@UNullPoseDefinition@ScaleDatagram@@@std@@@std@@@std@@QEAAXXZ 0000000140023d90 f i scaledatagram.obj
 0001:00022e00       ?_Free_proxy@?$_Vector_alloc@U?$_Vec_base_types@UPointDefinition@ScaleDatagram@@V?$allocator@UPointDefinition@ScaleDatagram@@@std@@@std@@@std@@QEAAXXZ 0000000140023e00 f i scaledatagram.obj
 0001:00022e70       ?_Get_data@?$_Vector_alloc@U?$_Vec_base_types@UNullPoseDefinition@ScaleDatagram@@V?$allocator@UNullPoseDefinition@ScaleDatagram@@@std@@@std@@@std@@QEAAAEAV?$_Vector_val@U?$_Simple_types@UNullPoseDefinition@ScaleDatagram@@@std@@@2@XZ 0000000140023e70 f i scaledatagram.obj
 0001:00022e90       ?_Get_data@?$_Vector_alloc@U?$_Vec_base_types@UNullPoseDefinition@ScaleDatagram@@V?$allocator@UNullPoseDefinition@ScaleDatagram@@@std@@@std@@@std@@QEBAAEBV?$_Vector_val@U?$_Simple_types@UNullPoseDefinition@ScaleDatagram@@@std@@@2@XZ 0000000140023e90 f i scaledatagram.obj
 0001:00022eb0       ?_Get_data@?$_Vector_alloc@U?$_Vec_base_types@UPointDefinition@ScaleDatagram@@V?$allocator@UPointDefinition@ScaleDatagram@@@std@@@std@@@std@@QEAAAEAV?$_Vector_val@U?$_Simple_types@UPointDefinition@ScaleDatagram@@@std@@@2@XZ 0000000140023eb0 f i scaledatagram.obj
 0001:00022ed0       ?_Get_data@?$_Vector_alloc@U?$_Vec_base_types@UPointDefinition@ScaleDatagram@@V?$allocator@UPointDefinition@ScaleDatagram@@@std@@@std@@@std@@QEBAAEBV?$_Vector_val@U?$_Simple_types@UPointDefinition@ScaleDatagram@@@std@@@2@XZ 0000000140023ed0 f i scaledatagram.obj
 0001:00022ef0       ?_Get_first@?$_Compressed_pair@V?$allocator@UNullPoseDefinition@ScaleDatagram@@@std@@V?$_Vector_val@U?$_Simple_types@UNullPoseDefinition@ScaleDatagram@@@std@@@2@$00@std@@QEAAAEAV?$allocator@UNullPoseDefinition@ScaleDatagram@@@2@XZ 0000000140023ef0 f i scaledatagram.obj
 0001:00022f00       ?_Get_first@?$_Compressed_pair@V?$allocator@UNullPoseDefinition@ScaleDatagram@@@std@@V?$_Vector_val@U?$_Simple_types@UNullPoseDefinition@ScaleDatagram@@@std@@@2@$00@std@@QEBAAEBV?$allocator@UNullPoseDefinition@ScaleDatagram@@@2@XZ 0000000140023f00 f i scaledatagram.obj
 0001:00022f10       ?_Get_first@?$_Compressed_pair@V?$allocator@UPointDefinition@ScaleDatagram@@@std@@V?$_Vector_val@U?$_Simple_types@UPointDefinition@ScaleDatagram@@@std@@@2@$00@std@@QEAAAEAV?$allocator@UPointDefinition@ScaleDatagram@@@2@XZ 0000000140023f10 f i scaledatagram.obj
 0001:00022f20       ?_Get_first@?$_Compressed_pair@V?$allocator@UPointDefinition@ScaleDatagram@@@std@@V?$_Vector_val@U?$_Simple_types@UPointDefinition@ScaleDatagram@@@std@@@2@$00@std@@QEBAAEBV?$allocator@UPointDefinition@ScaleDatagram@@@2@XZ 0000000140023f20 f i scaledatagram.obj
 0001:00022f30       ?_Get_second@?$_Compressed_pair@V?$allocator@UNullPoseDefinition@ScaleDatagram@@@std@@V?$_Vector_val@U?$_Simple_types@UNullPoseDefinition@ScaleDatagram@@@std@@@2@$00@std@@QEAAAEAV?$_Vector_val@U?$_Simple_types@UNullPoseDefinition@ScaleDatagram@@@std@@@2@XZ 0000000140023f30 f i scaledatagram.obj
 0001:00022f40       ?_Get_second@?$_Compressed_pair@V?$allocator@UNullPoseDefinition@ScaleDatagram@@@std@@V?$_Vector_val@U?$_Simple_types@UNullPoseDefinition@ScaleDatagram@@@std@@@2@$00@std@@QEBAAEBV?$_Vector_val@U?$_Simple_types@UNullPoseDefinition@ScaleDatagram@@@std@@@2@XZ 0000000140023f40 f i scaledatagram.obj
 0001:00022f50       ?_Get_second@?$_Compressed_pair@V?$allocator@UPointDefinition@ScaleDatagram@@@std@@V?$_Vector_val@U?$_Simple_types@UPointDefinition@ScaleDatagram@@@std@@@2@$00@std@@QEAAAEAV?$_Vector_val@U?$_Simple_types@UPointDefinition@ScaleDatagram@@@std@@@2@XZ 0000000140023f50 f i scaledatagram.obj
 0001:00022f60       ?_Get_second@?$_Compressed_pair@V?$allocator@UPointDefinition@ScaleDatagram@@@std@@V?$_Vector_val@U?$_Simple_types@UPointDefinition@ScaleDatagram@@@std@@@2@$00@std@@QEBAAEBV?$_Vector_val@U?$_Simple_types@UPointDefinition@ScaleDatagram@@@std@@@2@XZ 0000000140023f60 f i scaledatagram.obj
 0001:00022f70       ?_Getal@?$_Vector_alloc@U?$_Vec_base_types@UNullPoseDefinition@ScaleDatagram@@V?$allocator@UNullPoseDefinition@ScaleDatagram@@@std@@@std@@@std@@QEAAAEAV?$allocator@UNullPoseDefinition@ScaleDatagram@@@2@XZ 0000000140023f70 f i scaledatagram.obj
 0001:00022f90       ?_Getal@?$_Vector_alloc@U?$_Vec_base_types@UNullPoseDefinition@ScaleDatagram@@V?$allocator@UNullPoseDefinition@ScaleDatagram@@@std@@@std@@@std@@QEBAAEBV?$allocator@UNullPoseDefinition@ScaleDatagram@@@2@XZ 0000000140023f90 f i scaledatagram.obj
 0001:00022fb0       ?_Getal@?$_Vector_alloc@U?$_Vec_base_types@UPointDefinition@ScaleDatagram@@V?$allocator@UPointDefinition@ScaleDatagram@@@std@@@std@@@std@@QEAAAEAV?$allocator@UPointDefinition@ScaleDatagram@@@2@XZ 0000000140023fb0 f i scaledatagram.obj
 0001:00022fd0       ?_Getal@?$_Vector_alloc@U?$_Vec_base_types@UPointDefinition@ScaleDatagram@@V?$allocator@UPointDefinition@ScaleDatagram@@@std@@@std@@@std@@QEBAAEBV?$allocator@UPointDefinition@ScaleDatagram@@@2@XZ 0000000140023fd0 f i scaledatagram.obj
 0001:00022ff0       ?_Getpfirst@?$_Vector_alloc@U?$_Vec_base_types@UNullPoseDefinition@ScaleDatagram@@V?$allocator@UNullPoseDefinition@ScaleDatagram@@@std@@@std@@@std@@QEBAPEAPEAU_Iterator_base12@2@XZ 0000000140023ff0 f i scaledatagram.obj
 0001:00023010       ?_Getpfirst@?$_Vector_alloc@U?$_Vec_base_types@UPointDefinition@ScaleDatagram@@V?$allocator@UPointDefinition@ScaleDatagram@@@std@@@std@@@std@@QEBAPEAPEAU_Iterator_base12@2@XZ 0000000140024010 f i scaledatagram.obj
 0001:00023030       ?_Has_unused_capacity@?$vector@UNullPoseDefinition@ScaleDatagram@@V?$allocator@UNullPoseDefinition@ScaleDatagram@@@std@@@std@@AEBA_NXZ 0000000140024030 f i scaledatagram.obj
 0001:00023080       ?_Has_unused_capacity@?$vector@UPointDefinition@ScaleDatagram@@V?$allocator@UPointDefinition@ScaleDatagram@@@std@@@std@@AEBA_NXZ 0000000140024080 f i scaledatagram.obj
 0001:000230d0       ?_Myend@?$_Vector_alloc@U?$_Vec_base_types@UNullPoseDefinition@ScaleDatagram@@V?$allocator@UNullPoseDefinition@ScaleDatagram@@@std@@@std@@@std@@QEAAAEAPEAUNullPoseDefinition@ScaleDatagram@@XZ 00000001400240d0 f i scaledatagram.obj
 0001:000230f0       ?_Myend@?$_Vector_alloc@U?$_Vec_base_types@UNullPoseDefinition@ScaleDatagram@@V?$allocator@UNullPoseDefinition@ScaleDatagram@@@std@@@std@@@std@@QEBAAEBQEAUNullPoseDefinition@ScaleDatagram@@XZ 00000001400240f0 f i scaledatagram.obj
 0001:00023110       ?_Myend@?$_Vector_alloc@U?$_Vec_base_types@UPointDefinition@ScaleDatagram@@V?$allocator@UPointDefinition@ScaleDatagram@@@std@@@std@@@std@@QEAAAEAPEAUPointDefinition@ScaleDatagram@@XZ 0000000140024110 f i scaledatagram.obj
 0001:00023130       ?_Myend@?$_Vector_alloc@U?$_Vec_base_types@UPointDefinition@ScaleDatagram@@V?$allocator@UPointDefinition@ScaleDatagram@@@std@@@std@@@std@@QEBAAEBQEAUPointDefinition@ScaleDatagram@@XZ 0000000140024130 f i scaledatagram.obj
 0001:00023150       ?_Myfirst@?$_Vector_alloc@U?$_Vec_base_types@UNullPoseDefinition@ScaleDatagram@@V?$allocator@UNullPoseDefinition@ScaleDatagram@@@std@@@std@@@std@@QEAAAEAPEAUNullPoseDefinition@ScaleDatagram@@XZ 0000000140024150 f i scaledatagram.obj
 0001:00023170       ?_Myfirst@?$_Vector_alloc@U?$_Vec_base_types@UNullPoseDefinition@ScaleDatagram@@V?$allocator@UNullPoseDefinition@ScaleDatagram@@@std@@@std@@@std@@QEBAAEBQEAUNullPoseDefinition@ScaleDatagram@@XZ 0000000140024170 f i scaledatagram.obj
 0001:00023190       ?_Myfirst@?$_Vector_alloc@U?$_Vec_base_types@UPointDefinition@ScaleDatagram@@V?$allocator@UPointDefinition@ScaleDatagram@@@std@@@std@@@std@@QEAAAEAPEAUPointDefinition@ScaleDatagram@@XZ 0000000140024190 f i scaledatagram.obj
 0001:000231b0       ?_Myfirst@?$_Vector_alloc@U?$_Vec_base_types@UPointDefinition@ScaleDatagram@@V?$allocator@UPointDefinition@ScaleDatagram@@@std@@@std@@@std@@QEBAAEBQEAUPointDefinition@ScaleDatagram@@XZ 00000001400241b0 f i scaledatagram.obj
 0001:000231d0       ?_Mylast@?$_Vector_alloc@U?$_Vec_base_types@UNullPoseDefinition@ScaleDatagram@@V?$allocator@UNullPoseDefinition@ScaleDatagram@@@std@@@std@@@std@@QEAAAEAPEAUNullPoseDefinition@ScaleDatagram@@XZ 00000001400241d0 f i scaledatagram.obj
 0001:000231f0       ?_Mylast@?$_Vector_alloc@U?$_Vec_base_types@UNullPoseDefinition@ScaleDatagram@@V?$allocator@UNullPoseDefinition@ScaleDatagram@@@std@@@std@@@std@@QEBAAEBQEAUNullPoseDefinition@ScaleDatagram@@XZ 00000001400241f0 f i scaledatagram.obj
 0001:00023210       ?_Mylast@?$_Vector_alloc@U?$_Vec_base_types@UPointDefinition@ScaleDatagram@@V?$allocator@UPointDefinition@ScaleDatagram@@@std@@@std@@@std@@QEAAAEAPEAUPointDefinition@ScaleDatagram@@XZ 0000000140024210 f i scaledatagram.obj
 0001:00023230       ?_Mylast@?$_Vector_alloc@U?$_Vec_base_types@UPointDefinition@ScaleDatagram@@V?$allocator@UPointDefinition@ScaleDatagram@@@std@@@std@@@std@@QEBAAEBQEAUPointDefinition@ScaleDatagram@@XZ 0000000140024230 f i scaledatagram.obj
 0001:00023250       ?_Myproxy@?$_Vector_alloc@U?$_Vec_base_types@UNullPoseDefinition@ScaleDatagram@@V?$allocator@UNullPoseDefinition@ScaleDatagram@@@std@@@std@@@std@@QEAAAEAPEAU_Container_proxy@2@XZ 0000000140024250 f i scaledatagram.obj
 0001:00023270       ?_Myproxy@?$_Vector_alloc@U?$_Vec_base_types@UPointDefinition@ScaleDatagram@@V?$allocator@UPointDefinition@ScaleDatagram@@@std@@@std@@@std@@QEAAAEAPEAU_Container_proxy@2@XZ 0000000140024270 f i scaledatagram.obj
 0001:00023290       ?_Orphan_all@?$_Vector_alloc@U?$_Vec_base_types@UNullPoseDefinition@ScaleDatagram@@V?$allocator@UNullPoseDefinition@ScaleDatagram@@@std@@@std@@@std@@QEAAXXZ 0000000140024290 f i scaledatagram.obj
 0001:000232b0       ?_Orphan_all@?$_Vector_alloc@U?$_Vec_base_types@UPointDefinition@ScaleDatagram@@V?$allocator@UPointDefinition@ScaleDatagram@@@std@@@std@@@std@@QEAAXXZ 00000001400242b0 f i scaledatagram.obj
 0001:000232d0       ?_Orphan_range@?$vector@UNullPoseDefinition@ScaleDatagram@@V?$allocator@UNullPoseDefinition@ScaleDatagram@@@std@@@std@@AEBAXPEAUNullPoseDefinition@ScaleDatagram@@0@Z 00000001400242d0 f i scaledatagram.obj
 0001:00023390       ?_Orphan_range@?$vector@UPointDefinition@ScaleDatagram@@V?$allocator@UPointDefinition@ScaleDatagram@@@std@@@std@@AEBAXPEAUPointDefinition@ScaleDatagram@@0@Z 0000000140024390 f i scaledatagram.obj
 0001:00023450       ?_Release@?$_Uninitialized_backout_al@PEAUNullPoseDefinition@ScaleDatagram@@V?$allocator@UNullPoseDefinition@ScaleDatagram@@@std@@@std@@QEAAPEAUNullPoseDefinition@ScaleDatagram@@XZ 0000000140024450 f i scaledatagram.obj
 0001:00023470       ?_Release@?$_Uninitialized_backout_al@PEAUPointDefinition@ScaleDatagram@@V?$allocator@UPointDefinition@ScaleDatagram@@@std@@@std@@QEAAPEAUPointDefinition@ScaleDatagram@@XZ 0000000140024470 f i scaledatagram.obj
 0001:00023490       ?_Tidy@?$vector@UNullPoseDefinition@ScaleDatagram@@V?$allocator@UNullPoseDefinition@ScaleDatagram@@@std@@@std@@AEAAXXZ 0000000140024490 f i scaledatagram.obj
 0001:00023560       ?_Tidy@?$vector@UPointDefinition@ScaleDatagram@@V?$allocator@UPointDefinition@ScaleDatagram@@@std@@@std@@AEAAXXZ 0000000140024560 f i scaledatagram.obj
 0001:00023630       ?_Umove@?$vector@UNullPoseDefinition@ScaleDatagram@@V?$allocator@UNullPoseDefinition@ScaleDatagram@@@std@@@std@@AEAAPEAUNullPoseDefinition@ScaleDatagram@@PEAU34@00@Z 0000000140024630 f i scaledatagram.obj
 0001:00023670       ?_Umove@?$vector@UPointDefinition@ScaleDatagram@@V?$allocator@UPointDefinition@ScaleDatagram@@@std@@@std@@AEAAPEAUPointDefinition@ScaleDatagram@@PEAU34@00@Z 0000000140024670 f i scaledatagram.obj
 0001:000236b0       ?_Umove_if_noexcept1@?$vector@UNullPoseDefinition@ScaleDatagram@@V?$allocator@UNullPoseDefinition@ScaleDatagram@@@std@@@std@@AEAAXPEAUNullPoseDefinition@ScaleDatagram@@00U?$integral_constant@_N$00@2@@Z 00000001400246b0 f i scaledatagram.obj
 0001:000236f0       ?_Umove_if_noexcept1@?$vector@UPointDefinition@ScaleDatagram@@V?$allocator@UPointDefinition@ScaleDatagram@@@std@@@std@@AEAAXPEAUPointDefinition@ScaleDatagram@@00U?$integral_constant@_N$00@2@@Z 00000001400246f0 f i scaledatagram.obj
 0001:00023730       ?_Umove_if_noexcept@?$vector@UNullPoseDefinition@ScaleDatagram@@V?$allocator@UNullPoseDefinition@ScaleDatagram@@@std@@@std@@AEAAXPEAUNullPoseDefinition@ScaleDatagram@@00@Z 0000000140024730 f i scaledatagram.obj
 0001:00023790       ?_Umove_if_noexcept@?$vector@UPointDefinition@ScaleDatagram@@V?$allocator@UPointDefinition@ScaleDatagram@@@std@@@std@@AEAAXPEAUPointDefinition@ScaleDatagram@@00@Z 0000000140024790 f i scaledatagram.obj
 0001:000237f0       ?_Xlength@?$vector@UNullPoseDefinition@ScaleDatagram@@V?$allocator@UNullPoseDefinition@ScaleDatagram@@@std@@@std@@CAXXZ 00000001400247f0 f i scaledatagram.obj
 0001:00023810       ?_Xlength@?$vector@UPointDefinition@ScaleDatagram@@V?$allocator@UPointDefinition@ScaleDatagram@@@std@@@std@@CAXXZ 0000000140024810 f i scaledatagram.obj
 0001:00023830       ?allocate@?$allocator@UNullPoseDefinition@ScaleDatagram@@@std@@QEAAPEAUNullPoseDefinition@ScaleDatagram@@_K@Z 0000000140024830 f i scaledatagram.obj
 0001:00023860       ?allocate@?$allocator@UPointDefinition@ScaleDatagram@@@std@@QEAAPEAUPointDefinition@ScaleDatagram@@_K@Z 0000000140024860 f i scaledatagram.obj
 0001:00023890       ?capacity@?$vector@UNullPoseDefinition@ScaleDatagram@@V?$allocator@UNullPoseDefinition@ScaleDatagram@@@std@@@std@@QEBA_KXZ 0000000140024890 f i scaledatagram.obj
 0001:000238e0       ?capacity@?$vector@UPointDefinition@ScaleDatagram@@V?$allocator@UPointDefinition@ScaleDatagram@@@std@@@std@@QEBA_KXZ 00000001400248e0 f i scaledatagram.obj
 0001:00023920       ?deallocate@?$allocator@UNullPoseDefinition@ScaleDatagram@@@std@@QEAAXQEAUNullPoseDefinition@ScaleDatagram@@_K@Z 0000000140024920 f i scaledatagram.obj
 0001:00023950       ?deallocate@?$allocator@UPointDefinition@ScaleDatagram@@@std@@QEAAXQEAUPointDefinition@ScaleDatagram@@_K@Z 0000000140024950 f i scaledatagram.obj
 0001:00023980       ?max_size@?$_Default_allocator_traits@V?$allocator@UNullPoseDefinition@ScaleDatagram@@@std@@@std@@SA_KAEBV?$allocator@UNullPoseDefinition@ScaleDatagram@@@2@@Z 0000000140024980 f i scaledatagram.obj
 0001:00023990       ?max_size@?$_Default_allocator_traits@V?$allocator@UPointDefinition@ScaleDatagram@@@std@@@std@@SA_KAEBV?$allocator@UPointDefinition@ScaleDatagram@@@2@@Z 0000000140024990 f i scaledatagram.obj
 0001:000239a0       ?max_size@?$vector@UNullPoseDefinition@ScaleDatagram@@V?$allocator@UNullPoseDefinition@ScaleDatagram@@@std@@@std@@QEBA_KXZ 00000001400249a0 f i scaledatagram.obj
 0001:000239f0       ?max_size@?$vector@UPointDefinition@ScaleDatagram@@V?$allocator@UPointDefinition@ScaleDatagram@@@std@@@std@@QEBA_KXZ 00000001400249f0 f i scaledatagram.obj
 0001:00023a40       ?push_back@?$vector@UNullPoseDefinition@ScaleDatagram@@V?$allocator@UNullPoseDefinition@ScaleDatagram@@@std@@@std@@QEAAXAEBUNullPoseDefinition@ScaleDatagram@@@Z 0000000140024a40 f i scaledatagram.obj
 0001:00023a70       ?push_back@?$vector@UPointDefinition@ScaleDatagram@@V?$allocator@UPointDefinition@ScaleDatagram@@@std@@@std@@QEAAXAEBUPointDefinition@ScaleDatagram@@@Z 0000000140024a70 f i scaledatagram.obj
 0001:00023aa0       ?size@?$vector@UNullPoseDefinition@ScaleDatagram@@V?$allocator@UNullPoseDefinition@ScaleDatagram@@@std@@@std@@QEBA_KXZ 0000000140024aa0 f i scaledatagram.obj
 0001:00023af0       ?size@?$vector@UPointDefinition@ScaleDatagram@@V?$allocator@UPointDefinition@ScaleDatagram@@@std@@@std@@QEBA_KXZ 0000000140024af0 f i scaledatagram.obj
 0001:00023b30       ??0Streamer@@QEAA@AEBUXsByteArray@@@Z 0000000140024b30 f   streamer.obj
 0001:00023ba0       ??1Streamer@@QEAA@XZ       0000000140024ba0 f   streamer.obj
 0001:00023bb0       ?read@Streamer@@QEAAXAEAH@Z 0000000140024bb0 f   streamer.obj
 0001:00023ce0       ?read@Streamer@@QEAAXAEAC@Z 0000000140024ce0 f   streamer.obj
 0001:00023d50       ?read@Streamer@@QEAAXAEAF@Z 0000000140024d50 f   streamer.obj
 0001:00023e20       ?read@Streamer@@QEAAXAEAE@Z 0000000140024e20 f   streamer.obj
 0001:00023e90       ?read@Streamer@@QEAAXAEAM@Z 0000000140024e90 f   streamer.obj
 0001:00023fa0       ?read@Streamer@@QEAAXAEAV?$basic_string@DU?$char_traits@D@std@@V?$allocator@D@2@@std@@H@Z 0000000140024fa0 f   streamer.obj
 0001:000241a0       ??0?$IteratorImplBase@$00$$CBEU?$IteratorImplConst@$00@?$XsArrayImpl@E$1?g_xsByteArrayDescriptor@@3UXsArrayDescriptor@@BUXsByteArray@@@@@?$XsArrayImpl@E$1?g_xsByteArrayDescriptor@@3UXsArrayDescriptor@@BUXsByteArray@@@@IEAA@PEAX@Z 00000001400251a0 f i streamer.obj
 0001:000241c0       ??0?$IteratorImplConst@$00@?$XsArrayImpl@E$1?g_xsByteArrayDescriptor@@3UXsArrayDescriptor@@BUXsByteArray@@@@QEAA@PEAX@Z 00000001400251c0 f i streamer.obj
 0001:000241f0       ??C?$IteratorImplBase@$00$$CBEU?$IteratorImplConst@$00@?$XsArrayImpl@E$1?g_xsByteArrayDescriptor@@3UXsArrayDescriptor@@BUXsByteArray@@@@@?$XsArrayImpl@E$1?g_xsByteArrayDescriptor@@3UXsArrayDescriptor@@BUXsByteArray@@@@QEBAPEBEXZ 00000001400251f0 f i streamer.obj
 0001:00024270       ?begin@?$XsArrayImpl@E$1?g_xsByteArrayDescriptor@@3UXsArrayDescriptor@@BUXsByteArray@@@@QEBA?AU?$IteratorImplConst@$00@1@XZ 0000000140025270 f i streamer.obj
 0001:000242a0       ?data@XsByteArray@@QEBAPEBEXZ 00000001400252a0 f i streamer.obj
 0001:000242d0       ?ptr@?$IteratorImplBase@$00$$CBEU?$IteratorImplConst@$00@?$XsArrayImpl@E$1?g_xsByteArrayDescriptor@@3UXsArrayDescriptor@@BUXsByteArray@@@@@?$XsArrayImpl@E$1?g_xsByteArrayDescriptor@@3UXsArrayDescriptor@@BUXsByteArray@@@@QEBAPEAEXZ 00000001400252d0 f i streamer.obj
 0001:000242e0       ??0TimeCodeDatagram@@QEAA@XZ 00000001400252e0 f   timecodedatagram.obj
 0001:00024330       ??1TimeCodeDatagram@@UEAA@XZ 0000000140025330 f   timecodedatagram.obj
 0001:00024360       ?printData@TimeCodeDatagram@@UEBAXXZ 0000000140025360 f   timecodedatagram.obj
 0001:00024370       ?deserializeData@TimeCodeDatagram@@MEAAXAEAVStreamer@@@Z 0000000140025370 f   timecodedatagram.obj
 0001:00024620       ??_GTimeCodeDatagram@@UEAAPEAXI@Z 0000000140025620 f i timecodedatagram.obj
 0001:00024620       ??_ETimeCodeDatagram@@UEAAPEAXI@Z 0000000140025620 f i timecodedatagram.obj
 0001:00024660       __local_stdio_scanf_options 0000000140025660 f i timecodedatagram.obj
 0001:00024670       _vsscanf_l                 0000000140025670 f i timecodedatagram.obj
 0001:000246c0       sscanf                     00000001400256c0 f i timecodedatagram.obj
 0001:00024710       ??0TrackerKinematicsDatagram@@QEAA@XZ 0000000140025710 f   trackerkinematicsdatagram.obj
 0001:00024770       ??1TrackerKinematicsDatagram@@UEAA@XZ 0000000140025770 f   trackerkinematicsdatagram.obj
 0001:000247b0       ?printData@TrackerKinematicsDatagram@@UEBAXXZ 00000001400257b0 f   trackerkinematicsdatagram.obj
 0001:000247e0       ?align_data@TrackerKinematicsDatagram@@SA?AV?$vector@MV?$allocator@M@std@@@std@@V?$vector@UKinematics@TrackerKinematicsDatagram@@V?$allocator@UKinematics@TrackerKinematicsDatagram@@@std@@@3@@Z 00000001400257e0 f   trackerkinematicsdatagram.obj
 0001:00024b00       ?push_sample@TrackerKinematicsDatagram@@SAXV?$vector@MV?$allocator@M@std@@@std@@@Z 0000000140025b00 f   trackerkinematicsdatagram.obj
 0001:00024b40       ?streamData@TrackerKinematicsDatagram@@UEBAXXZ 0000000140025b40 f   trackerkinematicsdatagram.obj
 0001:00024be0       ?deserializeData@TrackerKinematicsDatagram@@MEAAXAEAVStreamer@@@Z 0000000140025be0 f   trackerkinematicsdatagram.obj
 0001:00024d90       ??$?0$$V@?$_Compressed_pair@V?$allocator@UKinematics@TrackerKinematicsDatagram@@@std@@V?$_Vector_val@U?$_Simple_types@UKinematics@TrackerKinematicsDatagram@@@std@@@2@$00@std@@QEAA@U_Zero_then_variadic_args_t@1@@Z 0000000140025d90 f i trackerkinematicsdatagram.obj
 0001:00024dc0       ??$?0UKinematics@TrackerKinematicsDatagram@@@?$allocator@U_Container_proxy@std@@@std@@QEAA@AEBV?$allocator@UKinematics@TrackerKinematicsDatagram@@@1@@Z 0000000140025dc0 f i trackerkinematicsdatagram.obj
 0001:00024dd0       ??$?0V?$allocator@UKinematics@TrackerKinematicsDatagram@@@std@@$$V@?$_Compressed_pair@V?$allocator@UKinematics@TrackerKinematicsDatagram@@@std@@V?$_Vector_val@U?$_Simple_types@UKinematics@TrackerKinematicsDatagram@@@std@@@2@$00@std@@QEAA@U_One_then_variadic_args_t@1@$$QEAV?$allocator@UKinematics@TrackerKinematicsDatagram@@@1@@Z 0000000140025dd0 f i trackerkinematicsdatagram.obj
 0001:00024e10       ??$?0V?$allocator@UKinematics@TrackerKinematicsDatagram@@@std@@X@?$_Vector_alloc@U?$_Vec_base_types@UKinematics@TrackerKinematicsDatagram@@V?$allocator@UKinematics@TrackerKinematicsDatagram@@@std@@@std@@@std@@QEAA@$$QEAV?$allocator@UKinematics@TrackerKinematicsDatagram@@@1@@Z 0000000140025e10 f i trackerkinematicsdatagram.obj
 0001:00024e50       ??$_Copy_memmove@PEAUKinematics@TrackerKinematicsDatagram@@PEAU12@@std@@YAPEAUKinematics@TrackerKinematicsDatagram@@PEAU12@00@Z 0000000140025e50 f i trackerkinematicsdatagram.obj
 0001:00024ec0       ??$_Destroy_range1@V?$allocator@UKinematics@TrackerKinematicsDatagram@@@std@@@std@@YAXPEAUKinematics@TrackerKinematicsDatagram@@0AEAV?$allocator@UKinematics@TrackerKinematicsDatagram@@@0@U?$integral_constant@_N$00@0@@Z 0000000140025ec0 f i trackerkinematicsdatagram.obj
 0001:00024ee0       ??$_Destroy_range@V?$allocator@UKinematics@TrackerKinematicsDatagram@@@std@@@std@@YAXPEAUKinematics@TrackerKinematicsDatagram@@0AEAV?$allocator@UKinematics@TrackerKinematicsDatagram@@@0@@Z 0000000140025ee0 f i trackerkinematicsdatagram.obj
 0001:00024f20       ??$_Emplace_back_with_unused_capacity@AEBUKinematics@TrackerKinematicsDatagram@@@?$vector@UKinematics@TrackerKinematicsDatagram@@V?$allocator@UKinematics@TrackerKinematicsDatagram@@@std@@@std@@AEAAXAEBUKinematics@TrackerKinematicsDatagram@@@Z 0000000140025f20 f i trackerkinematicsdatagram.obj
 0001:00024fe0       ??$_Emplace_reallocate@AEBUKinematics@TrackerKinematicsDatagram@@@?$vector@UKinematics@TrackerKinematicsDatagram@@V?$allocator@UKinematics@TrackerKinematicsDatagram@@@std@@@std@@QEAAPEAUKinematics@TrackerKinematicsDatagram@@QEAU23@AEBU23@@Z 0000000140025fe0 f i trackerkinematicsdatagram.obj
 0001:00025230       ??$_Get_size_of_n@$0EE@@std@@YA_K_K@Z 0000000140026230 f i trackerkinematicsdatagram.obj
 0001:00025280       ??$_Ptr_copy_cat@UKinematics@TrackerKinematicsDatagram@@U12@@std@@YA?AU_Really_trivial_ptr_iterator_tag@0@AEBQEAUKinematics@TrackerKinematicsDatagram@@0@Z 0000000140026280 f i trackerkinematicsdatagram.obj
 0001:000252a0       ??$_Ptr_move_cat@UKinematics@TrackerKinematicsDatagram@@U12@@std@@YA?AU_Really_trivial_ptr_iterator_tag@0@AEBQEAUKinematics@TrackerKinematicsDatagram@@0@Z 00000001400262a0 f i trackerkinematicsdatagram.obj
 0001:00025400       ??$_Rechecked@PEAUKinematics@TrackerKinematicsDatagram@@PEAU12@@std@@YAAEAPEAUKinematics@TrackerKinematicsDatagram@@AEAPEAU12@QEAU12@@Z 0000000140026400 f i trackerkinematicsdatagram.obj
 0001:00025420       ??$_Ucopy@PEAUKinematics@TrackerKinematicsDatagram@@@?$vector@UKinematics@TrackerKinematicsDatagram@@V?$allocator@UKinematics@TrackerKinematicsDatagram@@@std@@@std@@AEAAPEAUKinematics@TrackerKinematicsDatagram@@PEAU23@00@Z 0000000140026420 f i trackerkinematicsdatagram.obj
 0001:00025460       ??$_Unchecked@PEAUKinematics@TrackerKinematicsDatagram@@@std@@YAPEAUKinematics@TrackerKinematicsDatagram@@PEAU12@@Z 0000000140026460 f i trackerkinematicsdatagram.obj
 0001:00025470       ??$_Unfancy@UKinematics@TrackerKinematicsDatagram@@@std@@YAPEAUKinematics@TrackerKinematicsDatagram@@PEAU12@@Z 0000000140026470 f i trackerkinematicsdatagram.obj
 0001:00025480       ??$_Uninitialized_copy@PEAUKinematics@TrackerKinematicsDatagram@@PEAU12@V?$allocator@UKinematics@TrackerKinematicsDatagram@@@std@@@std@@YAPEAUKinematics@TrackerKinematicsDatagram@@QEAU12@0PEAU12@AEAV?$allocator@UKinematics@TrackerKinematicsDatagram@@@0@@Z 0000000140026480 f i trackerkinematicsdatagram.obj
 0001:00025520       ??$_Uninitialized_copy_al_unchecked@UKinematics@TrackerKinematicsDatagram@@U12@V?$allocator@UKinematics@TrackerKinematicsDatagram@@@std@@@std@@YAPEAUKinematics@TrackerKinematicsDatagram@@QEAU12@00AEAV?$allocator@UKinematics@TrackerKinematicsDatagram@@@0@U_Really_trivial_ptr_iterator_tag@0@U?$integral_constant@_N$00@0@@Z 0000000140026520 f i trackerkinematicsdatagram.obj
 0001:00025560       ??$_Uninitialized_move@PEAUKinematics@TrackerKinematicsDatagram@@PEAU12@V?$allocator@UKinematics@TrackerKinematicsDatagram@@@std@@@std@@YAPEAUKinematics@TrackerKinematicsDatagram@@QEAU12@0PEAU12@AEAV?$allocator@UKinematics@TrackerKinematicsDatagram@@@0@@Z 0000000140026560 f i trackerkinematicsdatagram.obj
 0001:00025600       ??$_Uninitialized_move_al_unchecked@UKinematics@TrackerKinematicsDatagram@@U12@V?$allocator@UKinematics@TrackerKinematicsDatagram@@@std@@@std@@YAPEAUKinematics@TrackerKinematicsDatagram@@QEAU12@00AEAV?$allocator@UKinematics@TrackerKinematicsDatagram@@@0@U_Really_trivial_ptr_iterator_tag@0@U?$integral_constant@_N$00@0@@Z 0000000140026600 f i trackerkinematicsdatagram.obj
 0001:00025640       ??$addressof@V?$_Vector_val@U?$_Simple_types@UKinematics@TrackerKinematicsDatagram@@@std@@@std@@@std@@YAPEAV?$_Vector_val@U?$_Simple_types@UKinematics@TrackerKinematicsDatagram@@@std@@@0@AEAV10@@Z 0000000140026640 f i trackerkinematicsdatagram.obj
 0001:00025650       ??$construct@UKinematics@TrackerKinematicsDatagram@@AEBU12@@?$_Default_allocator_traits@V?$allocator@UKinematics@TrackerKinematicsDatagram@@@std@@@std@@SAXAEAV?$allocator@UKinematics@TrackerKinematicsDatagram@@@1@QEAUKinematics@TrackerKinematicsDatagram@@AEBU34@@Z 0000000140026650 f i trackerkinematicsdatagram.obj
 0001:000256a0       ??$emplace_back@AEBUKinematics@TrackerKinematicsDatagram@@@?$vector@UKinematics@TrackerKinematicsDatagram@@V?$allocator@UKinematics@TrackerKinematicsDatagram@@@std@@@std@@QEAAXAEBUKinematics@TrackerKinematicsDatagram@@@Z 00000001400266a0 f i trackerkinematicsdatagram.obj
 0001:00025710       ??$forward@AEBUKinematics@TrackerKinematicsDatagram@@@std@@YAAEBUKinematics@TrackerKinematicsDatagram@@AEBU12@@Z 0000000140026710 f i trackerkinematicsdatagram.obj
 0001:00025720       ??$forward@V?$allocator@UKinematics@TrackerKinematicsDatagram@@@std@@@std@@YA$$QEAV?$allocator@UKinematics@TrackerKinematicsDatagram@@@0@AEAV10@@Z 0000000140026720 f i trackerkinematicsdatagram.obj
 0001:00025730       ??0?$_Vector_alloc@U?$_Vec_base_types@UKinematics@TrackerKinematicsDatagram@@V?$allocator@UKinematics@TrackerKinematicsDatagram@@@std@@@std@@@std@@QEAA@XZ 0000000140026730 f i trackerkinematicsdatagram.obj
 0001:00025760       ??0?$_Vector_val@U?$_Simple_types@UKinematics@TrackerKinematicsDatagram@@@std@@@std@@QEAA@XZ 0000000140026760 f i trackerkinematicsdatagram.obj
 0001:000257b0       ??0?$allocator@UKinematics@TrackerKinematicsDatagram@@@std@@QEAA@XZ 00000001400267b0 f i trackerkinematicsdatagram.obj
 0001:000257c0       ??0?$vector@UKinematics@TrackerKinematicsDatagram@@V?$allocator@UKinematics@TrackerKinematicsDatagram@@@std@@@std@@QEAA@AEBV01@@Z 00000001400267c0 f i trackerkinematicsdatagram.obj
 0001:00025890       ??0?$vector@UKinematics@TrackerKinematicsDatagram@@V?$allocator@UKinematics@TrackerKinematicsDatagram@@@std@@@std@@QEAA@XZ 0000000140026890 f i trackerkinematicsdatagram.obj
 0001:000258c0       ??1?$_Vector_alloc@U?$_Vec_base_types@UKinematics@TrackerKinematicsDatagram@@V?$allocator@UKinematics@TrackerKinematicsDatagram@@@std@@@std@@@std@@QEAA@XZ 00000001400268c0 f i trackerkinematicsdatagram.obj
 0001:000258f0       ??1?$vector@UKinematics@TrackerKinematicsDatagram@@V?$allocator@UKinematics@TrackerKinematicsDatagram@@@std@@@std@@QEAA@XZ 00000001400268f0 f i trackerkinematicsdatagram.obj
 0001:00025980       ??_ETrackerKinematicsDatagram@@UEAAPEAXI@Z 0000000140026980 f i trackerkinematicsdatagram.obj
 0001:00025980       ??_GTrackerKinematicsDatagram@@UEAAPEAXI@Z 0000000140026980 f i trackerkinematicsdatagram.obj
 0001:000259c0       ?_Alloc_proxy@?$_Vector_alloc@U?$_Vec_base_types@UKinematics@TrackerKinematicsDatagram@@V?$allocator@UKinematics@TrackerKinematicsDatagram@@@std@@@std@@@std@@QEAAXXZ 00000001400269c0 f i trackerkinematicsdatagram.obj
 0001:00025a70       ?_Buy@?$vector@UKinematics@TrackerKinematicsDatagram@@V?$allocator@UKinematics@TrackerKinematicsDatagram@@@std@@@std@@AEAA_N_K@Z 0000000140026a70 f i trackerkinematicsdatagram.obj
 0001:00025b60       ?_Calculate_growth@?$vector@UKinematics@TrackerKinematicsDatagram@@V?$allocator@UKinematics@TrackerKinematicsDatagram@@@std@@@std@@AEBA_K_K@Z 0000000140026b60 f i trackerkinematicsdatagram.obj
 0001:00025bf0       ?_Change_array@?$vector@UKinematics@TrackerKinematicsDatagram@@V?$allocator@UKinematics@TrackerKinematicsDatagram@@@std@@@std@@AEAAXQEAUKinematics@TrackerKinematicsDatagram@@_K1@Z 0000000140026bf0 f i trackerkinematicsdatagram.obj
 0001:00025d00       ?_Destroy@?$vector@UKinematics@TrackerKinematicsDatagram@@V?$allocator@UKinematics@TrackerKinematicsDatagram@@@std@@@std@@AEAAXPEAUKinematics@TrackerKinematicsDatagram@@0@Z 0000000140026d00 f i trackerkinematicsdatagram.obj
 0001:00025d40       ?_Free_proxy@?$_Vector_alloc@U?$_Vec_base_types@UKinematics@TrackerKinematicsDatagram@@V?$allocator@UKinematics@TrackerKinematicsDatagram@@@std@@@std@@@std@@QEAAXXZ 0000000140026d40 f i trackerkinematicsdatagram.obj
 0001:00025db0       ?_Get_data@?$_Vector_alloc@U?$_Vec_base_types@UKinematics@TrackerKinematicsDatagram@@V?$allocator@UKinematics@TrackerKinematicsDatagram@@@std@@@std@@@std@@QEAAAEAV?$_Vector_val@U?$_Simple_types@UKinematics@TrackerKinematicsDatagram@@@std@@@2@XZ 0000000140026db0 f i trackerkinematicsdatagram.obj
 0001:00025dd0       ?_Get_data@?$_Vector_alloc@U?$_Vec_base_types@UKinematics@TrackerKinematicsDatagram@@V?$allocator@UKinematics@TrackerKinematicsDatagram@@@std@@@std@@@std@@QEBAAEBV?$_Vector_val@U?$_Simple_types@UKinematics@TrackerKinematicsDatagram@@@std@@@2@XZ 0000000140026dd0 f i trackerkinematicsdatagram.obj
 0001:00025df0       ?_Get_first@?$_Compressed_pair@V?$allocator@UKinematics@TrackerKinematicsDatagram@@@std@@V?$_Vector_val@U?$_Simple_types@UKinematics@TrackerKinematicsDatagram@@@std@@@2@$00@std@@QEAAAEAV?$allocator@UKinematics@TrackerKinematicsDatagram@@@2@XZ 0000000140026df0 f i trackerkinematicsdatagram.obj
 0001:00025e00       ?_Get_first@?$_Compressed_pair@V?$allocator@UKinematics@TrackerKinematicsDatagram@@@std@@V?$_Vector_val@U?$_Simple_types@UKinematics@TrackerKinematicsDatagram@@@std@@@2@$00@std@@QEBAAEBV?$allocator@UKinematics@TrackerKinematicsDatagram@@@2@XZ 0000000140026e00 f i trackerkinematicsdatagram.obj
 0001:00025e10       ?_Get_second@?$_Compressed_pair@V?$allocator@UKinematics@TrackerKinematicsDatagram@@@std@@V?$_Vector_val@U?$_Simple_types@UKinematics@TrackerKinematicsDatagram@@@std@@@2@$00@std@@QEAAAEAV?$_Vector_val@U?$_Simple_types@UKinematics@TrackerKinematicsDatagram@@@std@@@2@XZ 0000000140026e10 f i trackerkinematicsdatagram.obj
 0001:00025e20       ?_Get_second@?$_Compressed_pair@V?$allocator@UKinematics@TrackerKinematicsDatagram@@@std@@V?$_Vector_val@U?$_Simple_types@UKinematics@TrackerKinematicsDatagram@@@std@@@2@$00@std@@QEBAAEBV?$_Vector_val@U?$_Simple_types@UKinematics@TrackerKinematicsDatagram@@@std@@@2@XZ 0000000140026e20 f i trackerkinematicsdatagram.obj
 0001:00025e30       ?_Getal@?$_Vector_alloc@U?$_Vec_base_types@UKinematics@TrackerKinematicsDatagram@@V?$allocator@UKinematics@TrackerKinematicsDatagram@@@std@@@std@@@std@@QEAAAEAV?$allocator@UKinematics@TrackerKinematicsDatagram@@@2@XZ 0000000140026e30 f i trackerkinematicsdatagram.obj
 0001:00025e50       ?_Getal@?$_Vector_alloc@U?$_Vec_base_types@UKinematics@TrackerKinematicsDatagram@@V?$allocator@UKinematics@TrackerKinematicsDatagram@@@std@@@std@@@std@@QEBAAEBV?$allocator@UKinematics@TrackerKinematicsDatagram@@@2@XZ 0000000140026e50 f i trackerkinematicsdatagram.obj
 0001:00025e70       ?_Getpfirst@?$_Vector_alloc@U?$_Vec_base_types@UKinematics@TrackerKinematicsDatagram@@V?$allocator@UKinematics@TrackerKinematicsDatagram@@@std@@@std@@@std@@QEBAPEAPEAU_Iterator_base12@2@XZ 0000000140026e70 f i trackerkinematicsdatagram.obj
 0001:00025e90       ?_Has_unused_capacity@?$vector@UKinematics@TrackerKinematicsDatagram@@V?$allocator@UKinematics@TrackerKinematicsDatagram@@@std@@@std@@AEBA_NXZ 0000000140026e90 f i trackerkinematicsdatagram.obj
 0001:00025ee0       ?_Myend@?$_Vector_alloc@U?$_Vec_base_types@UKinematics@TrackerKinematicsDatagram@@V?$allocator@UKinematics@TrackerKinematicsDatagram@@@std@@@std@@@std@@QEAAAEAPEAUKinematics@TrackerKinematicsDatagram@@XZ 0000000140026ee0 f i trackerkinematicsdatagram.obj
 0001:00025f00       ?_Myend@?$_Vector_alloc@U?$_Vec_base_types@UKinematics@TrackerKinematicsDatagram@@V?$allocator@UKinematics@TrackerKinematicsDatagram@@@std@@@std@@@std@@QEBAAEBQEAUKinematics@TrackerKinematicsDatagram@@XZ 0000000140026f00 f i trackerkinematicsdatagram.obj
 0001:00025f20       ?_Myfirst@?$_Vector_alloc@U?$_Vec_base_types@UKinematics@TrackerKinematicsDatagram@@V?$allocator@UKinematics@TrackerKinematicsDatagram@@@std@@@std@@@std@@QEAAAEAPEAUKinematics@TrackerKinematicsDatagram@@XZ 0000000140026f20 f i trackerkinematicsdatagram.obj
 0001:00025f40       ?_Myfirst@?$_Vector_alloc@U?$_Vec_base_types@UKinematics@TrackerKinematicsDatagram@@V?$allocator@UKinematics@TrackerKinematicsDatagram@@@std@@@std@@@std@@QEBAAEBQEAUKinematics@TrackerKinematicsDatagram@@XZ 0000000140026f40 f i trackerkinematicsdatagram.obj
 0001:00025f60       ?_Mylast@?$_Vector_alloc@U?$_Vec_base_types@UKinematics@TrackerKinematicsDatagram@@V?$allocator@UKinematics@TrackerKinematicsDatagram@@@std@@@std@@@std@@QEAAAEAPEAUKinematics@TrackerKinematicsDatagram@@XZ 0000000140026f60 f i trackerkinematicsdatagram.obj
 0001:00025f80       ?_Mylast@?$_Vector_alloc@U?$_Vec_base_types@UKinematics@TrackerKinematicsDatagram@@V?$allocator@UKinematics@TrackerKinematicsDatagram@@@std@@@std@@@std@@QEBAAEBQEAUKinematics@TrackerKinematicsDatagram@@XZ 0000000140026f80 f i trackerkinematicsdatagram.obj
 0001:00025fa0       ?_Myproxy@?$_Vector_alloc@U?$_Vec_base_types@UKinematics@TrackerKinematicsDatagram@@V?$allocator@UKinematics@TrackerKinematicsDatagram@@@std@@@std@@@std@@QEAAAEAPEAU_Container_proxy@2@XZ 0000000140026fa0 f i trackerkinematicsdatagram.obj
 0001:00025fc0       ?_Orphan_all@?$_Vector_alloc@U?$_Vec_base_types@UKinematics@TrackerKinematicsDatagram@@V?$allocator@UKinematics@TrackerKinematicsDatagram@@@std@@@std@@@std@@QEAAXXZ 0000000140026fc0 f i trackerkinematicsdatagram.obj
 0001:00025fe0       ?_Orphan_range@?$vector@UKinematics@TrackerKinematicsDatagram@@V?$allocator@UKinematics@TrackerKinematicsDatagram@@@std@@@std@@AEBAXPEAUKinematics@TrackerKinematicsDatagram@@0@Z 0000000140026fe0 f i trackerkinematicsdatagram.obj
 0001:000260a0       ?_Tidy@?$vector@UKinematics@TrackerKinematicsDatagram@@V?$allocator@UKinematics@TrackerKinematicsDatagram@@@std@@@std@@AEAAXXZ 00000001400270a0 f i trackerkinematicsdatagram.obj
 0001:00026170       ?_Umove@?$vector@UKinematics@TrackerKinematicsDatagram@@V?$allocator@UKinematics@TrackerKinematicsDatagram@@@std@@@std@@AEAAPEAUKinematics@TrackerKinematicsDatagram@@PEAU34@00@Z 0000000140027170 f i trackerkinematicsdatagram.obj
 0001:000261b0       ?_Umove_if_noexcept1@?$vector@UKinematics@TrackerKinematicsDatagram@@V?$allocator@UKinematics@TrackerKinematicsDatagram@@@std@@@std@@AEAAXPEAUKinematics@TrackerKinematicsDatagram@@00U?$integral_constant@_N$00@2@@Z 00000001400271b0 f i trackerkinematicsdatagram.obj
 0001:000261f0       ?_Umove_if_noexcept@?$vector@UKinematics@TrackerKinematicsDatagram@@V?$allocator@UKinematics@TrackerKinematicsDatagram@@@std@@@std@@AEAAXPEAUKinematics@TrackerKinematicsDatagram@@00@Z 00000001400271f0 f i trackerkinematicsdatagram.obj
 0001:00026250       ?_Unchecked_begin@?$vector@UKinematics@TrackerKinematicsDatagram@@V?$allocator@UKinematics@TrackerKinematicsDatagram@@@std@@@std@@QEAAPEAUKinematics@TrackerKinematicsDatagram@@XZ 0000000140027250 f i trackerkinematicsdatagram.obj
 0001:00026270       ?_Unchecked_end@?$vector@UKinematics@TrackerKinematicsDatagram@@V?$allocator@UKinematics@TrackerKinematicsDatagram@@@std@@@std@@QEAAPEAUKinematics@TrackerKinematicsDatagram@@XZ 0000000140027270 f i trackerkinematicsdatagram.obj
 0001:00026290       ?_Xlength@?$vector@UKinematics@TrackerKinematicsDatagram@@V?$allocator@UKinematics@TrackerKinematicsDatagram@@@std@@@std@@CAXXZ 0000000140027290 f i trackerkinematicsdatagram.obj
 0001:000262b0       ?allocate@?$allocator@UKinematics@TrackerKinematicsDatagram@@@std@@QEAAPEAUKinematics@TrackerKinematicsDatagram@@_K@Z 00000001400272b0 f i trackerkinematicsdatagram.obj
 0001:000262e0       ?capacity@?$vector@UKinematics@TrackerKinematicsDatagram@@V?$allocator@UKinematics@TrackerKinematicsDatagram@@@std@@@std@@QEBA_KXZ 00000001400272e0 f i trackerkinematicsdatagram.obj
 0001:00026330       ?deallocate@?$allocator@UKinematics@TrackerKinematicsDatagram@@@std@@QEAAXQEAUKinematics@TrackerKinematicsDatagram@@_K@Z 0000000140027330 f i trackerkinematicsdatagram.obj
 0001:00026360       ?max_size@?$_Default_allocator_traits@V?$allocator@UKinematics@TrackerKinematicsDatagram@@@std@@@std@@SA_KAEBV?$allocator@UKinematics@TrackerKinematicsDatagram@@@2@@Z 0000000140027360 f i trackerkinematicsdatagram.obj
 0001:00026370       ?max_size@?$vector@UKinematics@TrackerKinematicsDatagram@@V?$allocator@UKinematics@TrackerKinematicsDatagram@@@std@@@std@@QEBA_KXZ 0000000140027370 f i trackerkinematicsdatagram.obj
 0001:000263c0       ?push_back@?$vector@UKinematics@TrackerKinematicsDatagram@@V?$allocator@UKinematics@TrackerKinematicsDatagram@@@std@@@std@@QEAAXAEBUKinematics@TrackerKinematicsDatagram@@@Z 00000001400273c0 f i trackerkinematicsdatagram.obj
 0001:000263f0       ?select_on_container_copy_construction@?$_Default_allocator_traits@V?$allocator@UKinematics@TrackerKinematicsDatagram@@@std@@@std@@SA?AV?$allocator@UKinematics@TrackerKinematicsDatagram@@@2@AEBV32@@Z 00000001400273f0 f i trackerkinematicsdatagram.obj
 0001:00026400       ?size@?$vector@UKinematics@TrackerKinematicsDatagram@@V?$allocator@UKinematics@TrackerKinematicsDatagram@@@std@@@std@@QEBA_KXZ 0000000140027400 f i trackerkinematicsdatagram.obj
 0001:00026450       ??0UdpServer@@QEAA@UXsString@@G@Z 0000000140027450 f   udpserver.obj
 0001:00026620       ??1UdpServer@@QEAA@XZ      0000000140027620 f   udpserver.obj
 0001:00026680       ?readMessages@UdpServer@@QEAAXXZ 0000000140027680 f   udpserver.obj
 0001:000267a0       ?startThread@UdpServer@@QEAAXXZ 00000001400277a0 f   udpserver.obj
 0001:00026800       ?stopThread@UdpServer@@QEAAXXZ 0000000140027800 f   udpserver.obj
 0001:00026850       ?udpThreadFunc@@YAKPEAX@Z  0000000140027850 f   udpserver.obj
 0001:00026880       ??$?0AEAPEAUXsSocket@@@?$_Compressed_pair@U?$default_delete@UXsSocket@@@std@@PEAUXsSocket@@$00@std@@QEAA@U_Zero_then_variadic_args_t@1@AEAPEAUXsSocket@@@Z 0000000140027880 f i udpserver.obj
 0001:000268c0       ??$?0AEAPEAVParserManager@@@?$_Compressed_pair@U?$default_delete@VParserManager@@@std@@PEAVParserManager@@$00@std@@QEAA@U_Zero_then_variadic_args_t@1@AEAPEAVParserManager@@@Z 00000001400278c0 f i udpserver.obj
 0001:00026900       ??$?0PEAUXsSocket@@@?$_Unique_ptr_base@UXsSocket@@U?$default_delete@UXsSocket@@@std@@@std@@QEAA@PEAUXsSocket@@@Z 0000000140027900 f i udpserver.obj
 0001:00026930       ??$?0PEAVParserManager@@@?$_Unique_ptr_base@VParserManager@@U?$default_delete@VParserManager@@@std@@@std@@QEAA@PEAVParserManager@@@Z 0000000140027930 f i udpserver.obj
 0001:00026960       ??$?0U?$default_delete@UXsSocket@@@std@@$0A@@?$unique_ptr@UXsSocket@@U?$default_delete@UXsSocket@@@std@@@std@@QEAA@XZ 0000000140027960 f i udpserver.obj
 0001:00026990       ??$?0U?$default_delete@VParserManager@@@std@@$0A@@?$unique_ptr@VParserManager@@U?$default_delete@VParserManager@@@std@@@std@@QEAA@XZ 0000000140027990 f i udpserver.obj
 0001:000269c0       ??$forward@AEAPEAUXsSocket@@@std@@YAAEAPEAUXsSocket@@AEAPEAU1@@Z 00000001400279c0 f i udpserver.obj
 0001:000269d0       ??$forward@AEAPEAVParserManager@@@std@@YAAEAPEAVParserManager@@AEAPEAV1@@Z 00000001400279d0 f i udpserver.obj
 0001:000269e0       ??0?$IteratorImpl@$00@?$XsArrayImpl@E$1?g_xsByteArrayDescriptor@@3UXsArrayDescriptor@@BUXsByteArray@@@@QEAA@PEAX@Z 00000001400279e0 f i udpserver.obj
 0001:00026a10       ??0?$IteratorImplBase@$00EU?$IteratorImpl@$00@?$XsArrayImpl@E$1?g_xsByteArrayDescriptor@@3UXsArrayDescriptor@@BUXsByteArray@@@@@?$XsArrayImpl@E$1?g_xsByteArrayDescriptor@@3UXsArrayDescriptor@@BUXsByteArray@@@@IEAA@PEAX@Z 0000000140027a10 f i udpserver.obj
 0001:00026a30       ??0?$XsArrayImpl@E$1?g_xsByteArrayDescriptor@@3UXsArrayDescriptor@@BUXsByteArray@@@@QEAA@_KPEBE@Z 0000000140027a30 f i udpserver.obj
 0001:00026a70       ??0XsByteArray@@QEAA@_KPEBE@Z 0000000140027a70 f i udpserver.obj
 0001:00026ab0       ??0XsSocket@@QEAA@W4IpProtocol@@W4NetworkLayerProtocol@@@Z 0000000140027ab0 f i udpserver.obj
 0001:00026af0       ??0XsString@@QEAA@_KPEBD@Z 0000000140027af0 f i udpserver.obj
 0001:00026b50       ??0bad_alloc@std@@QEAA@AEBV01@@Z 0000000140027b50 f i udpserver.obj
 0001:00026b90       ??0bad_alloc@std@@QEAA@XZ  0000000140027b90 f i udpserver.obj
 0001:00026bd0       ??1?$XsArrayImpl@D$1?g_xsStringDescriptor@@3UXsArrayDescriptor@@BUXsString@@@@QEAA@XZ 0000000140027bd0 f i udpserver.obj
 0001:00026c00       ??1?$XsArrayImpl@E$1?g_xsByteArrayDescriptor@@3UXsArrayDescriptor@@BUXsByteArray@@@@QEAA@XZ 0000000140027c00 f i udpserver.obj
 0001:00026c30       ??1?$unique_ptr@UXsSocket@@U?$default_delete@UXsSocket@@@std@@@std@@QEAA@XZ 0000000140027c30 f i udpserver.obj
 0001:00026c80       ??1?$unique_ptr@VParserManager@@U?$default_delete@VParserManager@@@std@@@std@@QEAA@XZ 0000000140027c80 f i udpserver.obj
 0001:00026cd0       ??1XsArray@@QEAA@XZ        0000000140027cd0 f i udpserver.obj
 0001:00026cf0       ??1XsByteArray@@QEAA@XZ    0000000140027cf0 f i udpserver.obj
 0001:00026d10       ??1XsSocket@@QEAA@XZ       0000000140027d10 f i udpserver.obj
 0001:00026d30       ??1XsString@@QEAA@XZ       0000000140027d30 f i udpserver.obj
 0001:00026d50       ??1bad_alloc@std@@UEAA@XZ  0000000140027d50 f i udpserver.obj
 0001:00026d70       ??2XsSocket@@SAPEAX_K@Z    0000000140027d70 f i udpserver.obj
 0001:00026dc0       ??3XsSocket@@SAXPEAX@Z     0000000140027dc0 f i udpserver.obj
 0001:00026de0       ??4?$XsArrayImpl@D$1?g_xsStringDescriptor@@3UXsArrayDescriptor@@BUXsString@@@@QEAAAEAU0@AEBU0@@Z 0000000140027de0 f i udpserver.obj
 0001:00026e20       ??4XsString@@QEAAAEAU0@AEBU0@@Z 0000000140027e20 f i udpserver.obj
 0001:00026e50       ??C?$IteratorImplBase@$00EU?$IteratorImpl@$00@?$XsArrayImpl@E$1?g_xsByteArrayDescriptor@@3UXsArrayDescriptor@@BUXsByteArray@@@@@?$XsArrayImpl@E$1?g_xsByteArrayDescriptor@@3UXsArrayDescriptor@@BUXsByteArray@@@@QEBAPEAEXZ 0000000140027e50 f i udpserver.obj
 0001:00026e70       ??C?$unique_ptr@UXsSocket@@U?$default_delete@UXsSocket@@@std@@@std@@QEBAPEAUXsSocket@@XZ 0000000140027e70 f i udpserver.obj
 0001:00026e90       ??C?$unique_ptr@VParserManager@@U?$default_delete@VParserManager@@@std@@@std@@QEBAPEAVParserManager@@XZ 0000000140027e90 f i udpserver.obj
 0001:00026eb0       ??R?$default_delete@UXsSocket@@@std@@QEBAXPEAUXsSocket@@@Z 0000000140027eb0 f i udpserver.obj
 0001:00026f00       ??R?$default_delete@VParserManager@@@std@@QEBAXPEAVParserManager@@@Z 0000000140027f00 f i udpserver.obj
 0001:00026f50       ??_GParserManager@@QEAAPEAXI@Z 0000000140027f50 f i udpserver.obj
 0001:00026f90       ??_GXsSocket@@QEAAPEAXI@Z  0000000140027f90 f i udpserver.obj
 0001:00026ff0       ??_Ebad_alloc@std@@UEAAPEAXI@Z 0000000140027ff0 f i udpserver.obj
 0001:00026ff0       ??_Gbad_alloc@std@@UEAAPEAXI@Z 0000000140027ff0 f i udpserver.obj
 0001:00027030       ?_Get_first@?$_Compressed_pair@U?$default_delete@UXsSocket@@@std@@PEAUXsSocket@@$00@std@@QEAAAEAU?$default_delete@UXsSocket@@@2@XZ 0000000140028030 f i udpserver.obj
 0001:00027040       ?_Get_first@?$_Compressed_pair@U?$default_delete@VParserManager@@@std@@PEAVParserManager@@$00@std@@QEAAAEAU?$default_delete@VParserManager@@@2@XZ 0000000140028040 f i udpserver.obj
 0001:00027050       ?_Get_second@?$_Compressed_pair@U?$default_delete@UXsSocket@@@std@@PEAUXsSocket@@$00@std@@QEAAAEAPEAUXsSocket@@XZ 0000000140028050 f i udpserver.obj
 0001:00027060       ?_Get_second@?$_Compressed_pair@U?$default_delete@UXsSocket@@@std@@PEAUXsSocket@@$00@std@@QEBAAEBQEAUXsSocket@@XZ 0000000140028060 f i udpserver.obj
 0001:00027070       ?_Get_second@?$_Compressed_pair@U?$default_delete@VParserManager@@@std@@PEAVParserManager@@$00@std@@QEAAAEAPEAVParserManager@@XZ 0000000140028070 f i udpserver.obj
 0001:00027080       ?_Get_second@?$_Compressed_pair@U?$default_delete@VParserManager@@@std@@PEAVParserManager@@$00@std@@QEBAAEBQEAVParserManager@@XZ 0000000140028080 f i udpserver.obj
 0001:00027090       ?_Myptr@?$_Unique_ptr_base@UXsSocket@@U?$default_delete@UXsSocket@@@std@@@std@@QEAAAEAPEAUXsSocket@@XZ 0000000140028090 f i udpserver.obj
 0001:000270b0       ?_Myptr@?$_Unique_ptr_base@UXsSocket@@U?$default_delete@UXsSocket@@@std@@@std@@QEBAAEBQEAUXsSocket@@XZ 00000001400280b0 f i udpserver.obj
 0001:000270d0       ?_Myptr@?$_Unique_ptr_base@VParserManager@@U?$default_delete@VParserManager@@@std@@@std@@QEAAAEAPEAVParserManager@@XZ 00000001400280d0 f i udpserver.obj
 0001:000270f0       ?_Myptr@?$_Unique_ptr_base@VParserManager@@U?$default_delete@VParserManager@@@std@@@std@@QEBAAEBQEAVParserManager@@XZ 00000001400280f0 f i udpserver.obj
 0001:00027110       ?begin@?$XsArrayImpl@E$1?g_xsByteArrayDescriptor@@3UXsArrayDescriptor@@BUXsByteArray@@@@QEAA?AU?$IteratorImpl@$00@1@XZ 0000000140028110 f i udpserver.obj
 0001:00027140       ?bind@XsSocket@@QEAA?AW4XsResultValue@@AEBUXsString@@G@Z 0000000140028140 f i udpserver.obj
 0001:00027170       ?clear@?$XsArrayImpl@E$1?g_xsByteArrayDescriptor@@3UXsArrayDescriptor@@BUXsByteArray@@@@QEAAXXZ 0000000140028170 f i udpserver.obj
 0001:00027190       ?data@XsByteArray@@QEAAPEAEXZ 0000000140028190 f i udpserver.obj
 0001:000271c0       ?get@?$unique_ptr@UXsSocket@@U?$default_delete@UXsSocket@@@std@@@std@@QEBAPEAUXsSocket@@XZ 00000001400281c0 f i udpserver.obj
 0001:000271e0       ?get@?$unique_ptr@VParserManager@@U?$default_delete@VParserManager@@@std@@@std@@QEBAPEAVParserManager@@XZ 00000001400281e0 f i udpserver.obj
 0001:00027200       ?get_deleter@?$_Unique_ptr_base@UXsSocket@@U?$default_delete@UXsSocket@@@std@@@std@@QEAAAEAU?$default_delete@UXsSocket@@@2@XZ 0000000140028200 f i udpserver.obj
 0001:00027220       ?get_deleter@?$_Unique_ptr_base@VParserManager@@U?$default_delete@VParserManager@@@std@@@std@@QEAAAEAU?$default_delete@VParserManager@@@2@XZ 0000000140028220 f i udpserver.obj
 0001:00027240       ?ptr@?$IteratorImplBase@$00EU?$IteratorImpl@$00@?$XsArrayImpl@E$1?g_xsByteArrayDescriptor@@3UXsArrayDescriptor@@BUXsByteArray@@@@@?$XsArrayImpl@E$1?g_xsByteArrayDescriptor@@3UXsArrayDescriptor@@BUXsByteArray@@@@QEBAPEAEXZ 0000000140028240 f i udpserver.obj
 0001:00027250       ?read@XsSocket@@QEAAHAEAUXsByteArray@@H@Z 0000000140028250 f i udpserver.obj
 0001:000272d0       ?read@XsSocket@@QEAAHPEAX_KH@Z 00000001400282d0 f i udpserver.obj
 0001:00027310       ?reset@?$unique_ptr@UXsSocket@@U?$default_delete@UXsSocket@@@std@@@std@@QEAAXPEAUXsSocket@@@Z 0000000140028310 f i udpserver.obj
 0001:00027370       ?reset@?$unique_ptr@VParserManager@@U?$default_delete@VParserManager@@@std@@@std@@QEAAXPEAVParserManager@@@Z 0000000140028370 f i udpserver.obj
 0001:000273d0       ?resize@?$XsArrayImpl@E$1?g_xsByteArrayDescriptor@@3UXsArrayDescriptor@@BUXsByteArray@@@@QEAAX_K@Z 00000001400283d0 f i udpserver.obj
 0001:00027400       ?size@?$XsArrayImpl@E$1?g_xsByteArrayDescriptor@@3UXsArrayDescriptor@@BUXsByteArray@@@@QEBA_KXZ 0000000140028400 f i udpserver.obj
 0001:0002740f       XsMath_rad2deg             000000014002840f f   xstypes64:xstypes64.dll
 0001:00027415       XsQuaternion_fromEulerAngles 0000000140028415 f   xstypes64:xstypes64.dll
 0001:0002741b       XsEuler_fromQuaternion     000000014002841b f   xstypes64:xstypes64.dll
 0001:00027421       XsArray_construct          0000000140028421 f   xstypes64:xstypes64.dll
 0001:00027427       XsString_assign            0000000140028427 f   xstypes64:xstypes64.dll
 0001:0002742d       XsTime_msleep              000000014002842d f   xstypes64:xstypes64.dll
 0001:00027433       XsArray_destruct           0000000140028433 f   xstypes64:xstypes64.dll
 0001:00027439       XsArray_resize             0000000140028439 f   xstypes64:xstypes64.dll
 0001:0002743f       XsArray_copy               000000014002843f f   xstypes64:xstypes64.dll
 0001:00027445       XsSocket_create            0000000140028445 f   xstypes64:xstypes64.dll
 0001:0002744b       XsSocket_destroy           000000014002844b f   xstypes64:xstypes64.dll
 0001:00027451       XsSocket_read              0000000140028451 f   xstypes64:xstypes64.dll
 0001:00027457       XsSocket_allocate          0000000140028457 f   xstypes64:xstypes64.dll
 0001:0002745d       XsSocket_free              000000014002845d f   xstypes64:xstypes64.dll
 0001:00027463       XsSocket_bind              0000000140028463 f   xstypes64:xstypes64.dll
 0001:00027469       CreateThread               0000000140028469 f   kernel32:KERNEL32.dll
 0001:0002746f       lsl_create_streaminfo      000000014002846f f   liblsl64:liblsl64.dll
 0001:00027475       lsl_destroy_streaminfo     0000000140028475 f   liblsl64:liblsl64.dll
 0001:0002747b       lsl_get_channel_count      000000014002847b f   liblsl64:liblsl64.dll
 0001:00027481       lsl_create_outlet          0000000140028481 f   liblsl64:liblsl64.dll
 0001:00027487       lsl_destroy_outlet         0000000140028487 f   liblsl64:liblsl64.dll
 0001:0002748d       lsl_push_sample_ftp        000000014002848d f   liblsl64:liblsl64.dll
 0001:00027493       ??0_Lockit@std@@QEAA@H@Z   0000000140028493 f   msvcprtd:MSVCP140D.dll
 0001:00027499       ??1_Lockit@std@@QEAA@XZ    0000000140028499 f   msvcprtd:MSVCP140D.dll
 0001:0002749f       ?_Debug_message@std@@YAXPEB_W0I@Z 000000014002849f f   msvcprtd:MSVCP140D.dll
 0001:000274a5       ?_Xlength_error@std@@YAXPEBD@Z 00000001400284a5 f   msvcprtd:MSVCP140D.dll
 0001:000274ab       ?uncaught_exception@std@@YA_NXZ 00000001400284ab f   msvcprtd:MSVCP140D.dll
 0001:000274b1       ?_Xinvalid_argument@std@@YAXPEBD@Z 00000001400284b1 f   msvcprtd:MSVCP140D.dll
 0001:000274b7       ?_Xout_of_range@std@@YAXPEBD@Z 00000001400284b7 f   msvcprtd:MSVCP140D.dll
 0001:000274c0       ??0_Fac_node@std@@QEAA@PEAU01@PEAV_Facet_base@1@@Z 00000001400284c0 f i msvcprtd:locale0_implib.obj
 0001:000274f0       ??1_Fac_node@std@@QEAA@XZ  00000001400284f0 f i msvcprtd:locale0_implib.obj
 0001:00027580       ??1_Fac_tidy_reg_t@std@@QEAA@XZ 0000000140028580 f i msvcprtd:locale0_implib.obj
 0001:000275f0       ??2_Fac_node@std@@SAPEAX_K@Z 00000001400285f0 f i msvcprtd:locale0_implib.obj
 0001:00027650       ??3_Fac_node@std@@SAXPEAX@Z 0000000140028650 f i msvcprtd:locale0_implib.obj
 0001:00027670       ??_G_Fac_node@std@@QEAAPEAXI@Z 0000000140028670 f i msvcprtd:locale0_implib.obj
 0001:000276d0       ?_Facet_Register@std@@YAXPEAV_Facet_base@1@@Z 00000001400286d0 f   msvcprtd:locale0_implib.obj
 0001:00027740       ?__empty_global_delete@@YAXPEAXW4align_val_t@std@@@Z 0000000140028740 f i msvcprtd:locale0_implib.obj
 0001:00027750       ?__empty_global_delete@@YAXPEAX_KW4align_val_t@std@@@Z 0000000140028750 f i msvcprtd:locale0_implib.obj
 0001:00027760       ??Bid@locale@std@@QEAA_KXZ 0000000140028760 f   msvcprtd:MSVCP140D.dll
 0001:00027766       ?_Getgloballocale@locale@std@@CAPEAV_Locimp@12@XZ 0000000140028766 f   msvcprtd:MSVCP140D.dll
 0001:0002776c       ?is@?$ctype@D@std@@QEBA_NFD@Z 000000014002876c f   msvcprtd:MSVCP140D.dll
 0001:00027772       ?_Getcat@?$ctype@D@std@@SA_KPEAPEBVfacet@locale@2@PEBV42@@Z 0000000140028772 f   msvcprtd:MSVCP140D.dll
 0001:00027778       ?good@ios_base@std@@QEBA_NXZ 0000000140028778 f   msvcprtd:MSVCP140D.dll
 0001:0002777e       ?flags@ios_base@std@@QEBAHXZ 000000014002877e f   msvcprtd:MSVCP140D.dll
 0001:00027784       ?setf@ios_base@std@@QEAAHHH@Z 0000000140028784 f   msvcprtd:MSVCP140D.dll
 0001:0002778a       ?width@ios_base@std@@QEBA_JXZ 000000014002878a f   msvcprtd:MSVCP140D.dll
 0001:00027790       ?width@ios_base@std@@QEAA_J_J@Z 0000000140028790 f   msvcprtd:MSVCP140D.dll
 0001:00027796       ?getloc@ios_base@std@@QEBA?AVlocale@2@XZ 0000000140028796 f   msvcprtd:MSVCP140D.dll
 0001:0002779c       ??0?$basic_streambuf@DU?$char_traits@D@std@@@std@@IEAA@XZ 000000014002879c f   msvcprtd:MSVCP140D.dll
 0001:000277a2       ??1?$basic_streambuf@DU?$char_traits@D@std@@@std@@UEAA@XZ 00000001400287a2 f   msvcprtd:MSVCP140D.dll
 0001:000277a8       ?sgetc@?$basic_streambuf@DU?$char_traits@D@std@@@std@@QEAAHXZ 00000001400287a8 f   msvcprtd:MSVCP140D.dll
 0001:000277ae       ?snextc@?$basic_streambuf@DU?$char_traits@D@std@@@std@@QEAAHXZ 00000001400287ae f   msvcprtd:MSVCP140D.dll
 0001:000277b4       ?sputc@?$basic_streambuf@DU?$char_traits@D@std@@@std@@QEAAHD@Z 00000001400287b4 f   msvcprtd:MSVCP140D.dll
 0001:000277ba       ?eback@?$basic_streambuf@DU?$char_traits@D@std@@@std@@IEBAPEADXZ 00000001400287ba f   msvcprtd:MSVCP140D.dll
 0001:000277c0       ?gptr@?$basic_streambuf@DU?$char_traits@D@std@@@std@@IEBAPEADXZ 00000001400287c0 f   msvcprtd:MSVCP140D.dll
 0001:000277c6       ?pbase@?$basic_streambuf@DU?$char_traits@D@std@@@std@@IEBAPEADXZ 00000001400287c6 f   msvcprtd:MSVCP140D.dll
 0001:000277cc       ?pptr@?$basic_streambuf@DU?$char_traits@D@std@@@std@@IEBAPEADXZ 00000001400287cc f   msvcprtd:MSVCP140D.dll
 0001:000277d2       ?egptr@?$basic_streambuf@DU?$char_traits@D@std@@@std@@IEBAPEADXZ 00000001400287d2 f   msvcprtd:MSVCP140D.dll
 0001:000277d8       ?gbump@?$basic_streambuf@DU?$char_traits@D@std@@@std@@IEAAXH@Z 00000001400287d8 f   msvcprtd:MSVCP140D.dll
 0001:000277de       ?setg@?$basic_streambuf@DU?$char_traits@D@std@@@std@@IEAAXPEAD00@Z 00000001400287de f   msvcprtd:MSVCP140D.dll
 0001:000277e4       ?epptr@?$basic_streambuf@DU?$char_traits@D@std@@@std@@IEBAPEADXZ 00000001400287e4 f   msvcprtd:MSVCP140D.dll
 0001:000277ea       ?pbump@?$basic_streambuf@DU?$char_traits@D@std@@@std@@IEAAXH@Z 00000001400287ea f   msvcprtd:MSVCP140D.dll
 0001:000277f0       ?setp@?$basic_streambuf@DU?$char_traits@D@std@@@std@@IEAAXPEAD0@Z 00000001400287f0 f   msvcprtd:MSVCP140D.dll
 0001:000277f6       ?setp@?$basic_streambuf@DU?$char_traits@D@std@@@std@@IEAAXPEAD00@Z 00000001400287f6 f   msvcprtd:MSVCP140D.dll
 0001:000277fc       ?_Pninc@?$basic_streambuf@DU?$char_traits@D@std@@@std@@IEAAPEADXZ 00000001400287fc f   msvcprtd:MSVCP140D.dll
 0001:00027802       ??1?$basic_ios@DU?$char_traits@D@std@@@std@@UEAA@XZ 0000000140028802 f   msvcprtd:MSVCP140D.dll
 0001:00027808       ?setstate@?$basic_ios@DU?$char_traits@D@std@@@std@@QEAAXH_N@Z 0000000140028808 f   msvcprtd:MSVCP140D.dll
 0001:0002780e       ?tie@?$basic_ios@DU?$char_traits@D@std@@@std@@QEBAPEAV?$basic_ostream@DU?$char_traits@D@std@@@2@XZ 000000014002880e f   msvcprtd:MSVCP140D.dll
 0001:00027814       ?rdbuf@?$basic_ios@DU?$char_traits@D@std@@@std@@QEBAPEAV?$basic_streambuf@DU?$char_traits@D@std@@@2@XZ 0000000140028814 f   msvcprtd:MSVCP140D.dll
 0001:0002781a       ?fill@?$basic_ios@DU?$char_traits@D@std@@@std@@QEBADXZ 000000014002881a f   msvcprtd:MSVCP140D.dll
 0001:00027820       ?fill@?$basic_ios@DU?$char_traits@D@std@@@std@@QEAADD@Z 0000000140028820 f   msvcprtd:MSVCP140D.dll
 0001:00027826       ??0?$basic_ios@DU?$char_traits@D@std@@@std@@IEAA@XZ 0000000140028826 f   msvcprtd:MSVCP140D.dll
 0001:0002782c       ?_Osfx@?$basic_ostream@DU?$char_traits@D@std@@@std@@QEAAXXZ 000000014002882c f   msvcprtd:MSVCP140D.dll
 0001:00027832       ??6?$basic_ostream@DU?$char_traits@D@std@@@std@@QEAAAEAV01@P6AAEAVios_base@1@AEAV21@@Z@Z 0000000140028832 f   msvcprtd:MSVCP140D.dll
 0001:00027838       ??6?$basic_ostream@DU?$char_traits@D@std@@@std@@QEAAAEAV01@H@Z 0000000140028838 f   msvcprtd:MSVCP140D.dll
 0001:0002783e       ?flush@?$basic_ostream@DU?$char_traits@D@std@@@std@@QEAAAEAV12@XZ 000000014002883e f   msvcprtd:MSVCP140D.dll
 0001:00027844       ?_Ipfx@?$basic_istream@DU?$char_traits@D@std@@@std@@QEAA_N_N@Z 0000000140028844 f   msvcprtd:MSVCP140D.dll
 0001:0002784a       ??0?$basic_iostream@DU?$char_traits@D@std@@@std@@QEAA@PEAV?$basic_streambuf@DU?$char_traits@D@std@@@1@@Z 000000014002884a f   msvcprtd:MSVCP140D.dll
 0001:00027850       ??1?$basic_iostream@DU?$char_traits@D@std@@@std@@UEAA@XZ 0000000140028850 f   msvcprtd:MSVCP140D.dll
 0001:00027856       ?_Lock@?$basic_streambuf@DU?$char_traits@D@std@@@std@@UEAAXXZ 0000000140028856 f   msvcprtd:MSVCP140D.dll
 0001:0002785c       ?_Unlock@?$basic_streambuf@DU?$char_traits@D@std@@@std@@UEAAXXZ 000000014002885c f   msvcprtd:MSVCP140D.dll
 0001:00027862       ?imbue@?$basic_streambuf@DU?$char_traits@D@std@@@std@@MEAAXAEBVlocale@2@@Z 0000000140028862 f   msvcprtd:MSVCP140D.dll
 0001:00027868       ?setbuf@?$basic_streambuf@DU?$char_traits@D@std@@@std@@MEAAPEAV12@PEAD_J@Z 0000000140028868 f   msvcprtd:MSVCP140D.dll
 0001:0002786e       ?showmanyc@?$basic_streambuf@DU?$char_traits@D@std@@@std@@MEAA_JXZ 000000014002886e f   msvcprtd:MSVCP140D.dll
 0001:00027874       ?sync@?$basic_streambuf@DU?$char_traits@D@std@@@std@@MEAAHXZ 0000000140028874 f   msvcprtd:MSVCP140D.dll
 0001:0002787a       ?uflow@?$basic_streambuf@DU?$char_traits@D@std@@@std@@MEAAHXZ 000000014002887a f   msvcprtd:MSVCP140D.dll
 0001:00027880       ?xsgetn@?$basic_streambuf@DU?$char_traits@D@std@@@std@@MEAA_JPEAD_J@Z 0000000140028880 f   msvcprtd:MSVCP140D.dll
 0001:00027886       ?xsputn@?$basic_streambuf@DU?$char_traits@D@std@@@std@@MEAA_JPEBD_J@Z 0000000140028886 f   msvcprtd:MSVCP140D.dll
 0001:0002788c       ??Bios_base@std@@QEBA_NXZ  000000014002888c f   msvcprtd:MSVCP140D.dll
 0001:00027892       ?sbumpc@?$basic_streambuf@DU?$char_traits@D@std@@@std@@QEAAHXZ 0000000140028892 f   msvcprtd:MSVCP140D.dll
 0001:00027898       ?sputn@?$basic_streambuf@DU?$char_traits@D@std@@@std@@QEAA_JPEBD_J@Z 0000000140028898 f   msvcprtd:MSVCP140D.dll
 0001:0002789e       ?widen@?$basic_ios@DU?$char_traits@D@std@@@std@@QEBADD@Z 000000014002889e f   msvcprtd:MSVCP140D.dll
 0001:000278a4       ??6?$basic_ostream@DU?$char_traits@D@std@@@std@@QEAAAEAV01@P6AAEAV01@AEAV01@@Z@Z 00000001400288a4 f   msvcprtd:MSVCP140D.dll
 0001:000278aa       ?put@?$basic_ostream@DU?$char_traits@D@std@@@std@@QEAAAEAV12@D@Z 00000001400288aa f   msvcprtd:MSVCP140D.dll
 0001:000278b0       ?_Xbad_alloc@std@@YAXXZ    00000001400288b0 f   msvcprtd:MSVCP140D.dll
 0001:000278c0       ??2@YAPEAX_K@Z             00000001400288c0 f   MSVCRTD:new_scalar.obj
 0001:00027910       ??3@YAXPEAX_K@Z            0000000140028910 f   MSVCRTD:delete_scalar_size.obj
 0001:00027930       ??$__crt_fast_decode_pointer@PEAP6AXXZ@@YAPEAP6AXXZQEAP6AXXZ@Z 0000000140028930 f i MSVCRTD:utility.obj
 0001:00027970       ??$__crt_fast_encode_pointer@PEAP6AXXZ@@YAPEAP6AXXZQEAP6AXXZ@Z 0000000140028970 f i MSVCRTD:utility.obj
 0001:000279b0       ?__crt_rotate_pointer_value@@YA_K_KH@Z 00000001400289b0 f i MSVCRTD:utility.obj
 0001:000279d0       ?configure_argv@__scrt_narrow_argv_policy@@SAHXZ 00000001400289d0 f i MSVCRTD:utility.obj
 0001:00027ac0       ?initialize_environment@__scrt_narrow_environment_policy@@SAHXZ 0000000140028ac0 f i MSVCRTD:utility.obj
 0001:00027b60       NtCurrentTeb               0000000140028b60 f i MSVCRTD:utility.obj
 0001:00027b70       __scrt_acquire_startup_lock 0000000140028b70 f   MSVCRTD:utility.obj
 0001:00027be0       __scrt_dllmain_after_initialize_c 0000000140028be0 f   MSVCRTD:utility.obj
 0001:00027c10       __scrt_dllmain_before_initialize_c 0000000140028c10 f   MSVCRTD:utility.obj
 0001:00027c30       __scrt_dllmain_crt_thread_attach 0000000140028c30 f   MSVCRTD:utility.obj
 0001:00027c60       __scrt_dllmain_crt_thread_detach 0000000140028c60 f   MSVCRTD:utility.obj
 0001:00027c80       __scrt_dllmain_exception_filter 0000000140028c80 f   MSVCRTD:utility.obj
 0001:00027ce0       __scrt_dllmain_uninitialize_c 0000000140028ce0 f   MSVCRTD:utility.obj
 0001:00027d10       __scrt_dllmain_uninitialize_critical 0000000140028d10 f   MSVCRTD:utility.obj
 0001:00027d30       __scrt_initialize_crt      0000000140028d30 f   MSVCRTD:utility.obj
 0001:00027d80       __scrt_initialize_onexit_tables 0000000140028d80 f   MSVCRTD:utility.obj
 0001:00027e90       __scrt_is_nonwritable_in_current_image 0000000140028e90 f   MSVCRTD:utility.obj
 0001:00027f20       __scrt_release_startup_lock 0000000140028f20 f   MSVCRTD:utility.obj
 0001:00027f50       __scrt_uninitialize_crt    0000000140028f50 f   MSVCRTD:utility.obj
 0001:00027f90       _onexit                    0000000140028f90 f   MSVCRTD:utility.obj
 0001:00028020       at_quick_exit              0000000140029020 f   MSVCRTD:utility.obj
 0001:00028070       atexit                     0000000140029070 f   MSVCRTD:utility.obj
 0001:000280b0       __GSHandlerCheck           00000001400290b0 f   MSVCRTD:_gshandler_.obj
 0001:000280f0       __GSHandlerCheckCommon     00000001400290f0 f   MSVCRTD:_gshandler_.obj
 0001:000281f0       __GSHandlerCheck_EH        00000001400291f0 f   MSVCRTD:gshandlereh.obj
 0001:000282b0       __security_check_cookie    00000001400292b0 f   MSVCRTD:_amdsecgs_.obj
 0001:000282e0       ??1type_info@@UEAA@XZ      00000001400292e0 f   MSVCRTD:std_type_info_static.obj
 0001:00028300       ??_Gtype_info@@UEAAPEAXI@Z 0000000140029300 f i MSVCRTD:std_type_info_static.obj
 0001:00028300       ??_Etype_info@@UEAAPEAXI@Z 0000000140029300 f i MSVCRTD:std_type_info_static.obj
 0001:00028340       ??_U@YAPEAX_K@Z            0000000140029340 f   MSVCRTD:new_array.obj
 0001:00028360       ??_V@YAXPEAX@Z             0000000140029360 f   MSVCRTD:delete_array.obj
 0001:00028650       ?set_app_type@__scrt_main_policy@@SAXXZ 0000000140029650 f i MSVCRTD:exe_main.obj
 0001:00028670       ?set_commode@__scrt_file_policy@@SAXXZ 0000000140029670 f i MSVCRTD:exe_main.obj
 0001:00028690       ?set_fmode@__scrt_file_policy@@SAXXZ 0000000140029690 f i MSVCRTD:exe_main.obj
 0001:000286b0       mainCRTStartup             00000001400296b0 f   MSVCRTD:exe_main.obj
 0001:000286c0       _guard_check_icall_nop     00000001400296c0 f i MSVCRTD:guard_support.obj
 0001:000286d0       ReadNoFence64              00000001400296d0 f i MSVCRTD:guard_support.obj
 0001:000286f0       ReadPointerNoFence         00000001400296f0 f i MSVCRTD:guard_support.obj
 0001:00028710       _guard_icall_checks_enforced 0000000140029710 f i MSVCRTD:guard_support.obj
 0001:00028750       _guard_rf_checks_enforced  0000000140029750 f i MSVCRTD:guard_support.obj
 0001:00028760       ??0bad_alloc@std@@AEAA@QEBD@Z 0000000140029760 f i MSVCRTD:throw_bad_alloc.obj
 0001:000287a0       ??0bad_array_new_length@std@@QEAA@AEBV01@@Z 00000001400297a0 f i MSVCRTD:throw_bad_alloc.obj
 0001:000287e0       ??0bad_array_new_length@std@@QEAA@XZ 00000001400297e0 f i MSVCRTD:throw_bad_alloc.obj
 0001:00028820       ??1bad_array_new_length@std@@UEAA@XZ 0000000140029820 f i MSVCRTD:throw_bad_alloc.obj
 0001:00028840       ??_Ebad_array_new_length@std@@UEAAPEAXI@Z 0000000140029840 f i MSVCRTD:throw_bad_alloc.obj
 0001:00028840       ??_Gbad_array_new_length@std@@UEAAPEAXI@Z 0000000140029840 f i MSVCRTD:throw_bad_alloc.obj
 0001:00028880       ?__scrt_throw_std_bad_alloc@@YAXXZ 0000000140029880 f   MSVCRTD:throw_bad_alloc.obj
 0001:000288b0       ?__scrt_throw_std_bad_array_new_length@@YAXXZ 00000001400298b0 f   MSVCRTD:throw_bad_alloc.obj
 0001:000288e0       ??3@YAXPEAX@Z              00000001400298e0 f   MSVCRTD:delete_scalar.obj
 0001:00028900       __isa_available_init       0000000140029900 f   MSVCRTD:_cpu_disp_.obj
 0001:00028c70       _get_startup_argv_mode     0000000140029c70 f   MSVCRTD:argv_mode.obj
 0001:00028c80       __scrt_is_ucrt_dll_in_use  0000000140029c80 f   MSVCRTD:ucrt_detection.obj
 0001:00028cb0       __crt_debugger_hook        0000000140029cb0 f   MSVCRTD:utility_desktop.obj
 0001:00028cc0       __scrt_fastfail            0000000140029cc0 f   MSVCRTD:utility_desktop.obj
 0001:00028e60       __scrt_get_show_window_mode 0000000140029e60 f   MSVCRTD:utility_desktop.obj
 0001:00028ec0       __scrt_initialize_winrt    0000000140029ec0 f   MSVCRTD:utility_desktop.obj
 0001:00028ed0       __scrt_is_managed_app      0000000140029ed0 f   MSVCRTD:utility_desktop.obj
 0001:00028f80       __scrt_set_unhandled_exception_filter 0000000140029f80 f   MSVCRTD:utility_desktop.obj
 0001:00028fa0       __scrt_unhandled_exception_filter 0000000140029fa0 f   MSVCRTD:utility_desktop.obj
 0001:00029020       __raise_securityfailure    000000014002a020 f   MSVCRTD:gs_report.obj
 0001:00029060       __report_gsfailure         000000014002a060 f   MSVCRTD:gs_report.obj
 0001:00029140       __report_rangecheckfailure 000000014002a140 f   MSVCRTD:gs_report.obj
 0001:00029160       __report_securityfailure   000000014002a160 f   MSVCRTD:gs_report.obj
 0001:00029200       __report_securityfailureEx 000000014002a200 f   MSVCRTD:gs_report.obj
 0001:00029530       __security_init_cookie     000000014002a530 f   MSVCRTD:gs_support.obj
 0001:000295b0       _matherr                   000000014002a5b0 f   MSVCRTD:matherr.obj
 0001:000295c0       _get_startup_commit_mode   000000014002a5c0 f   MSVCRTD:commit_mode.obj
 0001:000295d0       _get_startup_file_mode     000000014002a5d0 f   MSVCRTD:file_mode.obj
 0001:000295e0       _get_startup_new_mode      000000014002a5e0 f   MSVCRTD:new_mode.obj
 0001:000295f0       _get_startup_thread_locale_mode 000000014002a5f0 f   MSVCRTD:thread_locale.obj
 0001:00029600       ?__scrt_initialize_type_info@@YAXXZ 000000014002a600 f   MSVCRTD:tncleanup.obj
 0001:00029620       ?__scrt_uninitialize_type_info@@YAXXZ 000000014002a620 f   MSVCRTD:tncleanup.obj
 0001:00029640       _should_initialize_environment 000000014002a640 f   MSVCRTD:env_mode.obj
 0001:00029650       _initialize_invalid_parameter_handler 000000014002a650 f   MSVCRTD:invalid_parameter_handler.obj
 0001:00029660       _initialize_denormal_control 000000014002a660 f   MSVCRTD:denormal_control.obj
 0001:00029670       __local_stdio_printf_options 000000014002a670 f i MSVCRTD:default_local_stdio_options.obj
 0001:00029680       __scrt_initialize_default_local_stdio_options 000000014002a680 f   MSVCRTD:default_local_stdio_options.obj
 0001:000296d0       __scrt_is_user_matherr_present 000000014002a6d0 f   MSVCRTD:matherr_detection.obj
 0001:00029700       __scrt_get_dyn_tls_init_callback 000000014002a700 f   MSVCRTD:dyn_tls_init.obj
 0001:00029710       __scrt_get_dyn_tls_dtor_callback 000000014002a710 f   MSVCRTD:dyn_tls_dtor.obj
 0001:00029720       _RTC_Initialize            000000014002a720 f   MSVCRTD:_initsect_.obj
 0001:00029770       _RTC_Terminate             000000014002a770 f   MSVCRTD:_initsect_.obj
 0001:000297c0       memcpy                     000000014002a7c0 f   vcruntimed:VCRUNTIME140D.dll
 0001:000297c6       memmove                    000000014002a7c6 f   vcruntimed:VCRUNTIME140D.dll
 0001:000297cc       __std_exception_copy       000000014002a7cc f   vcruntimed:VCRUNTIME140D.dll
 0001:000297d2       __std_exception_destroy    000000014002a7d2 f   vcruntimed:VCRUNTIME140D.dll
 0001:000297d8       _CxxThrowException         000000014002a7d8 f   vcruntimed:VCRUNTIME140D.dll
 0001:000297de       __CxxFrameHandler3         000000014002a7de f   vcruntimed:VCRUNTIME140D.dll
 0001:000297e4       _purecall                  000000014002a7e4 f   vcruntimed:VCRUNTIME140D.dll
 0001:000297ea       memset                     000000014002a7ea f   vcruntimed:VCRUNTIME140D.dll
 0001:000297f0       memcmp                     000000014002a7f0 f   vcruntimed:VCRUNTIME140D.dll
 0001:000297f6       __C_specific_handler       000000014002a7f6 f   vcruntimed:VCRUNTIME140D.dll
 0001:000297fc       __std_type_info_destroy_list 000000014002a7fc f   vcruntimed:VCRUNTIME140D.dll
 0001:00029802       _invalid_parameter         000000014002a802 f   ucrtd:ucrtbased.dll
 0001:00029808       strlen                     000000014002a808 f   ucrtd:ucrtbased.dll
 0001:0002980e       _CrtDbgReportW             000000014002a80e f   ucrtd:ucrtbased.dll
 0001:00029814       _errno                     000000014002a814 f   ucrtd:ucrtbased.dll
 0001:0002981a       strtol                     000000014002a81a f   ucrtd:ucrtbased.dll
 0001:00029820       _kbhit                     000000014002a820 f   ucrtd:ucrtbased.dll
 0001:00029826       __stdio_common_vsscanf     000000014002a826 f   ucrtd:ucrtbased.dll
 0001:0002982c       _free_dbg                  000000014002a82c f   ucrtd:ucrtbased.dll
 0001:00029832       _malloc_dbg                000000014002a832 f   ucrtd:ucrtbased.dll
 0001:00029838       _callnewh                  000000014002a838 f   ucrtd:ucrtbased.dll
 0001:0002983e       malloc                     000000014002a83e f   ucrtd:ucrtbased.dll
 0001:00029844       _seh_filter_dll            000000014002a844 f   ucrtd:ucrtbased.dll
 0001:0002984a       _configure_narrow_argv     000000014002a84a f   ucrtd:ucrtbased.dll
 0001:00029850       _initialize_narrow_environment 000000014002a850 f   ucrtd:ucrtbased.dll
 0001:00029856       _initialize_onexit_table   000000014002a856 f   ucrtd:ucrtbased.dll
 0001:0002985c       _register_onexit_function  000000014002a85c f   ucrtd:ucrtbased.dll
 0001:00029862       _execute_onexit_table      000000014002a862 f   ucrtd:ucrtbased.dll
 0001:00029868       _crt_atexit                000000014002a868 f   ucrtd:ucrtbased.dll
 0001:0002986e       _crt_at_quick_exit         000000014002a86e f   ucrtd:ucrtbased.dll
 0001:00029874       _cexit                     000000014002a874 f   ucrtd:ucrtbased.dll
 0001:0002987a       _seh_filter_exe            000000014002a87a f   ucrtd:ucrtbased.dll
 0001:00029880       _set_app_type              000000014002a880 f   ucrtd:ucrtbased.dll
 0001:00029886       __setusermatherr           000000014002a886 f   ucrtd:ucrtbased.dll
 0001:0002988c       _get_initial_narrow_environment 000000014002a88c f   ucrtd:ucrtbased.dll
 0001:00029892       _initterm                  000000014002a892 f   ucrtd:ucrtbased.dll
 0001:00029898       _initterm_e                000000014002a898 f   ucrtd:ucrtbased.dll
 0001:0002989e       exit                       000000014002a89e f   ucrtd:ucrtbased.dll
 0001:000298a4       _exit                      000000014002a8a4 f   ucrtd:ucrtbased.dll
 0001:000298aa       _set_fmode                 000000014002a8aa f   ucrtd:ucrtbased.dll
 0001:000298b0       __p___argc                 000000014002a8b0 f   ucrtd:ucrtbased.dll
 0001:000298b6       __p___argv                 000000014002a8b6 f   ucrtd:ucrtbased.dll
 0001:000298bc       _c_exit                    000000014002a8bc f   ucrtd:ucrtbased.dll
 0001:000298c2       _register_thread_local_exe_atexit_callback 000000014002a8c2 f   ucrtd:ucrtbased.dll
 0001:000298c8       _configthreadlocale        000000014002a8c8 f   ucrtd:ucrtbased.dll
 0001:000298ce       _set_new_mode              000000014002a8ce f   ucrtd:ucrtbased.dll
 0001:000298d4       __p__commode               000000014002a8d4 f   ucrtd:ucrtbased.dll
 0001:000298da       terminate                  000000014002a8da f   ucrtd:ucrtbased.dll
 0001:000298e0       RtlCaptureContext          000000014002a8e0 f   kernel32:KERNEL32.dll
 0001:000298e6       RtlLookupFunctionEntry     000000014002a8e6 f   kernel32:KERNEL32.dll
 0001:000298ec       RtlVirtualUnwind           000000014002a8ec f   kernel32:KERNEL32.dll
 0001:000298f2       IsDebuggerPresent          000000014002a8f2 f   kernel32:KERNEL32.dll
 0001:000298f8       UnhandledExceptionFilter   000000014002a8f8 f   kernel32:KERNEL32.dll
 0001:000298fe       SetUnhandledExceptionFilter 000000014002a8fe f   kernel32:KERNEL32.dll
 0001:00029904       GetStartupInfoW            000000014002a904 f   kernel32:KERNEL32.dll
 0001:0002990a       IsProcessorFeaturePresent  000000014002a90a f   kernel32:KERNEL32.dll
 0001:00029910       GetModuleHandleW           000000014002a910 f   kernel32:KERNEL32.dll
 0001:00029916       GetCurrentProcess          000000014002a916 f   kernel32:KERNEL32.dll
 0001:0002991c       TerminateProcess           000000014002a91c f   kernel32:KERNEL32.dll
 0001:00029922       QueryPerformanceCounter    000000014002a922 f   kernel32:KERNEL32.dll
 0001:00029928       GetCurrentProcessId        000000014002a928 f   kernel32:KERNEL32.dll
 0001:0002992e       GetCurrentThreadId         000000014002a92e f   kernel32:KERNEL32.dll
 0001:00029934       GetSystemTimeAsFileTime    000000014002a934 f   kernel32:KERNEL32.dll
 0001:0002993a       InitializeSListHead        000000014002a93a f   kernel32:KERNEL32.dll
 0001:00029940       __vcrt_initialize          000000014002a940 f   MSVCRTD:ucrt_stubs.obj
 0001:00029940       __acrt_initialize          000000014002a940 f   MSVCRTD:ucrt_stubs.obj
 0001:00029940       __scrt_stub_for_acrt_initialize 000000014002a940 f   MSVCRTD:ucrt_stubs.obj
 0001:00029950       __scrt_stub_for_acrt_thread_attach 000000014002a950 f   MSVCRTD:ucrt_stubs.obj
 0001:00029950       __acrt_thread_attach       000000014002a950 f   MSVCRTD:ucrt_stubs.obj
 0001:00029950       __vcrt_thread_attach       000000014002a950 f   MSVCRTD:ucrt_stubs.obj
 0001:00029960       __vcrt_thread_detach       000000014002a960 f   MSVCRTD:ucrt_stubs.obj
 0001:00029960       __acrt_thread_detach       000000014002a960 f   MSVCRTD:ucrt_stubs.obj
 0001:00029960       __scrt_stub_for_acrt_thread_detach 000000014002a960 f   MSVCRTD:ucrt_stubs.obj
 0001:00029970       __scrt_stub_for_acrt_uninitialize 000000014002a970 f   MSVCRTD:ucrt_stubs.obj
 0001:00029970       __acrt_uninitialize        000000014002a970 f   MSVCRTD:ucrt_stubs.obj
 0001:00029970       __vcrt_uninitialize        000000014002a970 f   MSVCRTD:ucrt_stubs.obj
 0001:00029980       __acrt_uninitialize_critical 000000014002a980 f   MSVCRTD:ucrt_stubs.obj
 0001:00029980       __scrt_stub_for_acrt_uninitialize_critical 000000014002a980 f   MSVCRTD:ucrt_stubs.obj
 0001:00029980       __vcrt_uninitialize_critical 000000014002a980 f   MSVCRTD:ucrt_stubs.obj
 0001:00029990       __scrt_stub_for_is_c_termination_complete 000000014002a990 f   MSVCRTD:ucrt_stubs.obj
 0001:00029990       _is_c_termination_complete 000000014002a990 f   MSVCRTD:ucrt_stubs.obj
 0001:000299b0       _guard_dispatch_icall_nop  000000014002a9b0 f   MSVCRTD:_guard_dispatch_.obj
 0002:00000000       __imp_InitializeSListHead  000000014002e000     kernel32:KERNEL32.dll
 0002:00000008       __imp_GetSystemTimeAsFileTime 000000014002e008     kernel32:KERNEL32.dll
 0002:00000010       __imp_GetCurrentThreadId   000000014002e010     kernel32:KERNEL32.dll
 0002:00000018       __imp_GetCurrentProcessId  000000014002e018     kernel32:KERNEL32.dll
 0002:00000020       __imp_QueryPerformanceCounter 000000014002e020     kernel32:KERNEL32.dll
 0002:00000028       __imp_TerminateProcess     000000014002e028     kernel32:KERNEL32.dll
 0002:00000030       __imp_GetCurrentProcess    000000014002e030     kernel32:KERNEL32.dll
 0002:00000038       __imp_GetModuleHandleW     000000014002e038     kernel32:KERNEL32.dll
 0002:00000040       __imp_IsProcessorFeaturePresent 000000014002e040     kernel32:KERNEL32.dll
 0002:00000048       __imp_GetStartupInfoW      000000014002e048     kernel32:KERNEL32.dll
 0002:00000050       __imp_SetUnhandledExceptionFilter 000000014002e050     kernel32:KERNEL32.dll
 0002:00000058       __imp_UnhandledExceptionFilter 000000014002e058     kernel32:KERNEL32.dll
 0002:00000060       __imp_IsDebuggerPresent    000000014002e060     kernel32:KERNEL32.dll
 0002:00000068       __imp_RtlVirtualUnwind     000000014002e068     kernel32:KERNEL32.dll
 0002:00000070       __imp_RtlLookupFunctionEntry 000000014002e070     kernel32:KERNEL32.dll
 0002:00000078       __imp_RtlCaptureContext    000000014002e078     kernel32:KERNEL32.dll
 0002:00000080       __imp_CreateThread         000000014002e080     kernel32:KERNEL32.dll
 0002:00000088       \177KERNEL32_NULL_THUNK_DATA 000000014002e088     kernel32:KERNEL32.dll
 0002:00000090       __imp_?put@?$basic_ostream@DU?$char_traits@D@std@@@std@@QEAAAEAV12@D@Z 000000014002e090     msvcprtd:MSVCP140D.dll
 0002:00000098       __imp_??6?$basic_ostream@DU?$char_traits@D@std@@@std@@QEAAAEAV01@P6AAEAV01@AEAV01@@Z@Z 000000014002e098     msvcprtd:MSVCP140D.dll
 0002:000000a0       __imp_?widen@?$basic_ios@DU?$char_traits@D@std@@@std@@QEBADD@Z 000000014002e0a0     msvcprtd:MSVCP140D.dll
 0002:000000a8       __imp_?sputn@?$basic_streambuf@DU?$char_traits@D@std@@@std@@QEAA_JPEBD_J@Z 000000014002e0a8     msvcprtd:MSVCP140D.dll
 0002:000000b0       __imp_?sbumpc@?$basic_streambuf@DU?$char_traits@D@std@@@std@@QEAAHXZ 000000014002e0b0     msvcprtd:MSVCP140D.dll
 0002:000000b8       __imp_??Bios_base@std@@QEBA_NXZ 000000014002e0b8     msvcprtd:MSVCP140D.dll
 0002:000000c0       __imp_?cout@std@@3V?$basic_ostream@DU?$char_traits@D@std@@@1@A 000000014002e0c0     msvcprtd:MSVCP140D.dll
 0002:000000c8       __imp_?_BADOFF@std@@3_JB   000000014002e0c8     msvcprtd:MSVCP140D.dll
 0002:000000d0       __imp_?xsputn@?$basic_streambuf@DU?$char_traits@D@std@@@std@@MEAA_JPEBD_J@Z 000000014002e0d0     msvcprtd:MSVCP140D.dll
 0002:000000d8       __imp_?xsgetn@?$basic_streambuf@DU?$char_traits@D@std@@@std@@MEAA_JPEAD_J@Z 000000014002e0d8     msvcprtd:MSVCP140D.dll
 0002:000000e0       __imp_?uflow@?$basic_streambuf@DU?$char_traits@D@std@@@std@@MEAAHXZ 000000014002e0e0     msvcprtd:MSVCP140D.dll
 0002:000000e8       __imp_?sync@?$basic_streambuf@DU?$char_traits@D@std@@@std@@MEAAHXZ 000000014002e0e8     msvcprtd:MSVCP140D.dll
 0002:000000f0       __imp_?showmanyc@?$basic_streambuf@DU?$char_traits@D@std@@@std@@MEAA_JXZ 000000014002e0f0     msvcprtd:MSVCP140D.dll
 0002:000000f8       __imp_?setbuf@?$basic_streambuf@DU?$char_traits@D@std@@@std@@MEAAPEAV12@PEAD_J@Z 000000014002e0f8     msvcprtd:MSVCP140D.dll
 0002:00000100       __imp_?imbue@?$basic_streambuf@DU?$char_traits@D@std@@@std@@MEAAXAEBVlocale@2@@Z 000000014002e100     msvcprtd:MSVCP140D.dll
 0002:00000108       __imp_?_Unlock@?$basic_streambuf@DU?$char_traits@D@std@@@std@@UEAAXXZ 000000014002e108     msvcprtd:MSVCP140D.dll
 0002:00000110       __imp_?_Lock@?$basic_streambuf@DU?$char_traits@D@std@@@std@@UEAAXXZ 000000014002e110     msvcprtd:MSVCP140D.dll
 0002:00000118       __imp_??1?$basic_iostream@DU?$char_traits@D@std@@@std@@UEAA@XZ 000000014002e118     msvcprtd:MSVCP140D.dll
 0002:00000120       __imp_??0?$basic_iostream@DU?$char_traits@D@std@@@std@@QEAA@PEAV?$basic_streambuf@DU?$char_traits@D@std@@@1@@Z 000000014002e120     msvcprtd:MSVCP140D.dll
 0002:00000128       __imp_?_Ipfx@?$basic_istream@DU?$char_traits@D@std@@@std@@QEAA_N_N@Z 000000014002e128     msvcprtd:MSVCP140D.dll
 0002:00000130       __imp_?flush@?$basic_ostream@DU?$char_traits@D@std@@@std@@QEAAAEAV12@XZ 000000014002e130     msvcprtd:MSVCP140D.dll
 0002:00000138       __imp_??6?$basic_ostream@DU?$char_traits@D@std@@@std@@QEAAAEAV01@H@Z 000000014002e138     msvcprtd:MSVCP140D.dll
 0002:00000140       __imp_??6?$basic_ostream@DU?$char_traits@D@std@@@std@@QEAAAEAV01@P6AAEAVios_base@1@AEAV21@@Z@Z 000000014002e140     msvcprtd:MSVCP140D.dll
 0002:00000148       __imp_?_Osfx@?$basic_ostream@DU?$char_traits@D@std@@@std@@QEAAXXZ 000000014002e148     msvcprtd:MSVCP140D.dll
 0002:00000150       __imp_??0?$basic_ios@DU?$char_traits@D@std@@@std@@IEAA@XZ 000000014002e150     msvcprtd:MSVCP140D.dll
 0002:00000158       __imp_?fill@?$basic_ios@DU?$char_traits@D@std@@@std@@QEAADD@Z 000000014002e158     msvcprtd:MSVCP140D.dll
 0002:00000160       __imp_?fill@?$basic_ios@DU?$char_traits@D@std@@@std@@QEBADXZ 000000014002e160     msvcprtd:MSVCP140D.dll
 0002:00000168       __imp_?rdbuf@?$basic_ios@DU?$char_traits@D@std@@@std@@QEBAPEAV?$basic_streambuf@DU?$char_traits@D@std@@@2@XZ 000000014002e168     msvcprtd:MSVCP140D.dll
 0002:00000170       __imp_?_Xbad_alloc@std@@YAXXZ 000000014002e170     msvcprtd:MSVCP140D.dll
 0002:00000178       __imp_?id@?$ctype@D@std@@2V0locale@2@A 000000014002e178     msvcprtd:MSVCP140D.dll
 0002:00000180       __imp_?tie@?$basic_ios@DU?$char_traits@D@std@@@std@@QEBAPEAV?$basic_ostream@DU?$char_traits@D@std@@@2@XZ 000000014002e180     msvcprtd:MSVCP140D.dll
 0002:00000188       __imp_?setstate@?$basic_ios@DU?$char_traits@D@std@@@std@@QEAAXH_N@Z 000000014002e188     msvcprtd:MSVCP140D.dll
 0002:00000190       __imp_??1?$basic_ios@DU?$char_traits@D@std@@@std@@UEAA@XZ 000000014002e190     msvcprtd:MSVCP140D.dll
 0002:00000198       __imp_?_Pninc@?$basic_streambuf@DU?$char_traits@D@std@@@std@@IEAAPEADXZ 000000014002e198     msvcprtd:MSVCP140D.dll
 0002:000001a0       __imp_?setp@?$basic_streambuf@DU?$char_traits@D@std@@@std@@IEAAXPEAD00@Z 000000014002e1a0     msvcprtd:MSVCP140D.dll
 0002:000001a8       __imp_?setp@?$basic_streambuf@DU?$char_traits@D@std@@@std@@IEAAXPEAD0@Z 000000014002e1a8     msvcprtd:MSVCP140D.dll
 0002:000001b0       __imp_?pbump@?$basic_streambuf@DU?$char_traits@D@std@@@std@@IEAAXH@Z 000000014002e1b0     msvcprtd:MSVCP140D.dll
 0002:000001b8       __imp_??0_Lockit@std@@QEAA@H@Z 000000014002e1b8     msvcprtd:MSVCP140D.dll
 0002:000001c0       __imp_??1_Lockit@std@@QEAA@XZ 000000014002e1c0     msvcprtd:MSVCP140D.dll
 0002:000001c8       __imp_?_Debug_message@std@@YAXPEB_W0I@Z 000000014002e1c8     msvcprtd:MSVCP140D.dll
 0002:000001d0       __imp_?_Xlength_error@std@@YAXPEBD@Z 000000014002e1d0     msvcprtd:MSVCP140D.dll
 0002:000001d8       __imp_?uncaught_exception@std@@YA_NXZ 000000014002e1d8     msvcprtd:MSVCP140D.dll
 0002:000001e0       __imp_?_Xinvalid_argument@std@@YAXPEBD@Z 000000014002e1e0     msvcprtd:MSVCP140D.dll
 0002:000001e8       __imp_?_Xout_of_range@std@@YAXPEBD@Z 000000014002e1e8     msvcprtd:MSVCP140D.dll
 0002:000001f0       __imp_??Bid@locale@std@@QEAA_KXZ 000000014002e1f0     msvcprtd:MSVCP140D.dll
 0002:000001f8       __imp_?_Getgloballocale@locale@std@@CAPEAV_Locimp@12@XZ 000000014002e1f8     msvcprtd:MSVCP140D.dll
 0002:00000200       __imp_?is@?$ctype@D@std@@QEBA_NFD@Z 000000014002e200     msvcprtd:MSVCP140D.dll
 0002:00000208       __imp_?_Getcat@?$ctype@D@std@@SA_KPEAPEBVfacet@locale@2@PEBV42@@Z 000000014002e208     msvcprtd:MSVCP140D.dll
 0002:00000210       __imp_?good@ios_base@std@@QEBA_NXZ 000000014002e210     msvcprtd:MSVCP140D.dll
 0002:00000218       __imp_?flags@ios_base@std@@QEBAHXZ 000000014002e218     msvcprtd:MSVCP140D.dll
 0002:00000220       __imp_?setf@ios_base@std@@QEAAHHH@Z 000000014002e220     msvcprtd:MSVCP140D.dll
 0002:00000228       __imp_?width@ios_base@std@@QEBA_JXZ 000000014002e228     msvcprtd:MSVCP140D.dll
 0002:00000230       __imp_?width@ios_base@std@@QEAA_J_J@Z 000000014002e230     msvcprtd:MSVCP140D.dll
 0002:00000238       __imp_?getloc@ios_base@std@@QEBA?AVlocale@2@XZ 000000014002e238     msvcprtd:MSVCP140D.dll
 0002:00000240       __imp_??0?$basic_streambuf@DU?$char_traits@D@std@@@std@@IEAA@XZ 000000014002e240     msvcprtd:MSVCP140D.dll
 0002:00000248       __imp_??1?$basic_streambuf@DU?$char_traits@D@std@@@std@@UEAA@XZ 000000014002e248     msvcprtd:MSVCP140D.dll
 0002:00000250       __imp_?sgetc@?$basic_streambuf@DU?$char_traits@D@std@@@std@@QEAAHXZ 000000014002e250     msvcprtd:MSVCP140D.dll
 0002:00000258       __imp_?snextc@?$basic_streambuf@DU?$char_traits@D@std@@@std@@QEAAHXZ 000000014002e258     msvcprtd:MSVCP140D.dll
 0002:00000260       __imp_?sputc@?$basic_streambuf@DU?$char_traits@D@std@@@std@@QEAAHD@Z 000000014002e260     msvcprtd:MSVCP140D.dll
 0002:00000268       __imp_?eback@?$basic_streambuf@DU?$char_traits@D@std@@@std@@IEBAPEADXZ 000000014002e268     msvcprtd:MSVCP140D.dll
 0002:00000270       __imp_?gptr@?$basic_streambuf@DU?$char_traits@D@std@@@std@@IEBAPEADXZ 000000014002e270     msvcprtd:MSVCP140D.dll
 0002:00000278       __imp_?pbase@?$basic_streambuf@DU?$char_traits@D@std@@@std@@IEBAPEADXZ 000000014002e278     msvcprtd:MSVCP140D.dll
 0002:00000280       __imp_?pptr@?$basic_streambuf@DU?$char_traits@D@std@@@std@@IEBAPEADXZ 000000014002e280     msvcprtd:MSVCP140D.dll
 0002:00000288       __imp_?egptr@?$basic_streambuf@DU?$char_traits@D@std@@@std@@IEBAPEADXZ 000000014002e288     msvcprtd:MSVCP140D.dll
 0002:00000290       __imp_?gbump@?$basic_streambuf@DU?$char_traits@D@std@@@std@@IEAAXH@Z 000000014002e290     msvcprtd:MSVCP140D.dll
 0002:00000298       __imp_?setg@?$basic_streambuf@DU?$char_traits@D@std@@@std@@IEAAXPEAD00@Z 000000014002e298     msvcprtd:MSVCP140D.dll
 0002:000002a0       __imp_?epptr@?$basic_streambuf@DU?$char_traits@D@std@@@std@@IEBAPEADXZ 000000014002e2a0     msvcprtd:MSVCP140D.dll
 0002:000002a8       \177MSVCP140D_NULL_THUNK_DATA 000000014002e2a8     msvcprtd:MSVCP140D.dll
 0002:000002b0       __imp_memcpy               000000014002e2b0     vcruntimed:VCRUNTIME140D.dll
 0002:000002b8       __imp_memmove              000000014002e2b8     vcruntimed:VCRUNTIME140D.dll
 0002:000002c0       __imp___std_exception_copy 000000014002e2c0     vcruntimed:VCRUNTIME140D.dll
 0002:000002c8       __imp___std_exception_destroy 000000014002e2c8     vcruntimed:VCRUNTIME140D.dll
 0002:000002d0       __imp__CxxThrowException   000000014002e2d0     vcruntimed:VCRUNTIME140D.dll
 0002:000002d8       __imp___CxxFrameHandler3   000000014002e2d8     vcruntimed:VCRUNTIME140D.dll
 0002:000002e0       __imp___std_type_info_destroy_list 000000014002e2e0     vcruntimed:VCRUNTIME140D.dll
 0002:000002e8       __imp___C_specific_handler 000000014002e2e8     vcruntimed:VCRUNTIME140D.dll
 0002:000002f0       __imp_memcmp               000000014002e2f0     vcruntimed:VCRUNTIME140D.dll
 0002:000002f8       __imp_memset               000000014002e2f8     vcruntimed:VCRUNTIME140D.dll
 0002:00000300       __imp__purecall            000000014002e300     vcruntimed:VCRUNTIME140D.dll
 0002:00000308       \177VCRUNTIME140D_NULL_THUNK_DATA 000000014002e308     vcruntimed:VCRUNTIME140D.dll
 0002:00000310       __imp_lsl_get_channel_count 000000014002e310     liblsl64:liblsl64.dll
 0002:00000318       __imp_lsl_create_outlet    000000014002e318     liblsl64:liblsl64.dll
 0002:00000320       __imp_lsl_destroy_outlet   000000014002e320     liblsl64:liblsl64.dll
 0002:00000328       __imp_lsl_push_sample_ftp  000000014002e328     liblsl64:liblsl64.dll
 0002:00000330       __imp_lsl_destroy_streaminfo 000000014002e330     liblsl64:liblsl64.dll
 0002:00000338       __imp_lsl_create_streaminfo 000000014002e338     liblsl64:liblsl64.dll
 0002:00000340       \177liblsl64_NULL_THUNK_DATA 000000014002e340     liblsl64:liblsl64.dll
 0002:00000348       __imp__get_initial_narrow_environment 000000014002e348     ucrtd:ucrtbased.dll
 0002:00000350       __imp___setusermatherr     000000014002e350     ucrtd:ucrtbased.dll
 0002:00000358       __imp__set_app_type        000000014002e358     ucrtd:ucrtbased.dll
 0002:00000360       __imp__seh_filter_exe      000000014002e360     ucrtd:ucrtbased.dll
 0002:00000368       __imp__cexit               000000014002e368     ucrtd:ucrtbased.dll
 0002:00000370       __imp__initterm            000000014002e370     ucrtd:ucrtbased.dll
 0002:00000378       __imp__crt_atexit          000000014002e378     ucrtd:ucrtbased.dll
 0002:00000380       __imp__execute_onexit_table 000000014002e380     ucrtd:ucrtbased.dll
 0002:00000388       __imp__register_onexit_function 000000014002e388     ucrtd:ucrtbased.dll
 0002:00000390       __imp__initialize_onexit_table 000000014002e390     ucrtd:ucrtbased.dll
 0002:00000398       __imp__initialize_narrow_environment 000000014002e398     ucrtd:ucrtbased.dll
 0002:000003a0       __imp__configure_narrow_argv 000000014002e3a0     ucrtd:ucrtbased.dll
 0002:000003a8       __imp__seh_filter_dll      000000014002e3a8     ucrtd:ucrtbased.dll
 0002:000003b0       __imp_malloc               000000014002e3b0     ucrtd:ucrtbased.dll
 0002:000003b8       __imp__callnewh            000000014002e3b8     ucrtd:ucrtbased.dll
 0002:000003c0       __imp__malloc_dbg          000000014002e3c0     ucrtd:ucrtbased.dll
 0002:000003c8       __imp__free_dbg            000000014002e3c8     ucrtd:ucrtbased.dll
 0002:000003d0       __imp__initterm_e          000000014002e3d0     ucrtd:ucrtbased.dll
 0002:000003d8       __imp_exit                 000000014002e3d8     ucrtd:ucrtbased.dll
 0002:000003e0       __imp__exit                000000014002e3e0     ucrtd:ucrtbased.dll
 0002:000003e8       __imp__set_fmode           000000014002e3e8     ucrtd:ucrtbased.dll
 0002:000003f0       __imp___p___argc           000000014002e3f0     ucrtd:ucrtbased.dll
 0002:000003f8       __imp___p___argv           000000014002e3f8     ucrtd:ucrtbased.dll
 0002:00000400       __imp__c_exit              000000014002e400     ucrtd:ucrtbased.dll
 0002:00000408       __imp__register_thread_local_exe_atexit_callback 000000014002e408     ucrtd:ucrtbased.dll
 0002:00000410       __imp__configthreadlocale  000000014002e410     ucrtd:ucrtbased.dll
 0002:00000418       __imp__set_new_mode        000000014002e418     ucrtd:ucrtbased.dll
 0002:00000420       __imp___p__commode         000000014002e420     ucrtd:ucrtbased.dll
 0002:00000428       __imp_terminate            000000014002e428     ucrtd:ucrtbased.dll
 0002:00000430       __imp__crt_at_quick_exit   000000014002e430     ucrtd:ucrtbased.dll
 0002:00000438       __imp__invalid_parameter   000000014002e438     ucrtd:ucrtbased.dll
 0002:00000440       __imp_strlen               000000014002e440     ucrtd:ucrtbased.dll
 0002:00000448       __imp__CrtDbgReportW       000000014002e448     ucrtd:ucrtbased.dll
 0002:00000450       __imp__errno               000000014002e450     ucrtd:ucrtbased.dll
 0002:00000458       __imp_strtol               000000014002e458     ucrtd:ucrtbased.dll
 0002:00000460       __imp__kbhit               000000014002e460     ucrtd:ucrtbased.dll
 0002:00000468       __imp___stdio_common_vsscanf 000000014002e468     ucrtd:ucrtbased.dll
 0002:00000470       \177ucrtbased_NULL_THUNK_DATA 000000014002e470     ucrtd:ucrtbased.dll
 0002:00000478       __imp_XsMath_two           000000014002e478     xstypes64:xstypes64.dll
 0002:00000480       __imp_XsMath_four          000000014002e480     xstypes64:xstypes64.dll
 0002:00000488       __imp_XsMath_minusTwo      000000014002e488     xstypes64:xstypes64.dll
 0002:00000490       __imp_XsMath_minusHalfPi   000000014002e490     xstypes64:xstypes64.dll
 0002:00000498       __imp_XsMath_halfPi        000000014002e498     xstypes64:xstypes64.dll
 0002:000004a0       __imp_XsMath_twoPi         000000014002e4a0     xstypes64:xstypes64.dll
 0002:000004a8       __imp_XsMath_sqrt2         000000014002e4a8     xstypes64:xstypes64.dll
 0002:000004b0       __imp_XsMath_sqrtHalf      000000014002e4b0     xstypes64:xstypes64.dll
 0002:000004b8       __imp_XsMath_infinity      000000014002e4b8     xstypes64:xstypes64.dll
 0002:000004c0       __imp_g_xsByteArrayDescriptor 000000014002e4c0     xstypes64:xstypes64.dll
 0002:000004c8       __imp_XsQuaternion_fromEulerAngles 000000014002e4c8     xstypes64:xstypes64.dll
 0002:000004d0       __imp_XsEuler_fromQuaternion 000000014002e4d0     xstypes64:xstypes64.dll
 0002:000004d8       __imp_XsArray_construct    000000014002e4d8     xstypes64:xstypes64.dll
 0002:000004e0       __imp_XsString_assign      000000014002e4e0     xstypes64:xstypes64.dll
 0002:000004e8       __imp_XsTime_msleep        000000014002e4e8     xstypes64:xstypes64.dll
 0002:000004f0       __imp_g_xsStringDescriptor 000000014002e4f0     xstypes64:xstypes64.dll
 0002:000004f8       __imp_XsTime_secPerDay     000000014002e4f8     xstypes64:xstypes64.dll
 0002:00000500       __imp_XsTime_milliSecPerDay 000000014002e500     xstypes64:xstypes64.dll
 0002:00000508       __imp_XsTime_timeStampMax  000000014002e508     xstypes64:xstypes64.dll
 0002:00000510       __imp_XsArray_destruct     000000014002e510     xstypes64:xstypes64.dll
 0002:00000518       __imp_XsArray_resize       000000014002e518     xstypes64:xstypes64.dll
 0002:00000520       __imp_XsArray_copy         000000014002e520     xstypes64:xstypes64.dll
 0002:00000528       __imp_XsSocket_create      000000014002e528     xstypes64:xstypes64.dll
 0002:00000530       __imp_XsSocket_destroy     000000014002e530     xstypes64:xstypes64.dll
 0002:00000538       __imp_XsSocket_read        000000014002e538     xstypes64:xstypes64.dll
 0002:00000540       __imp_XsSocket_allocate    000000014002e540     xstypes64:xstypes64.dll
 0002:00000548       __imp_XsSocket_free        000000014002e548     xstypes64:xstypes64.dll
 0002:00000550       __imp_XsSocket_bind        000000014002e550     xstypes64:xstypes64.dll
 0002:00000558       __imp_XsMath_e             000000014002e558     xstypes64:xstypes64.dll
 0002:00000560       __imp_XsMath_minusOne      000000014002e560     xstypes64:xstypes64.dll
 0002:00000568       __imp_XsMath_one           000000014002e568     xstypes64:xstypes64.dll
 0002:00000570       __imp_XsMath_minusPt5      000000014002e570     xstypes64:xstypes64.dll
 0002:00000578       __imp_XsMath_pt5           000000014002e578     xstypes64:xstypes64.dll
 0002:00000580       __imp_XsMath_pt25          000000014002e580     xstypes64:xstypes64.dll
 0002:00000588       __imp_XsMath_zero          000000014002e588     xstypes64:xstypes64.dll
 0002:00000590       __imp_XsMath_deg2radValue  000000014002e590     xstypes64:xstypes64.dll
 0002:00000598       __imp_XsMath_rad2degValue  000000014002e598     xstypes64:xstypes64.dll
 0002:000005a0       __imp_XsMath_sqrtDenormalized 000000014002e5a0     xstypes64:xstypes64.dll
 0002:000005a8       __imp_XsMath_denormalized  000000014002e5a8     xstypes64:xstypes64.dll
 0002:000005b0       __imp_XsMath_sqrtEpsilon   000000014002e5b0     xstypes64:xstypes64.dll
 0002:000005b8       __imp_XsMath_epsilon       000000014002e5b8     xstypes64:xstypes64.dll
 0002:000005c0       __imp_XsMath_hugeValue     000000014002e5c0     xstypes64:xstypes64.dll
 0002:000005c8       __imp_XsMath_tinyValue     000000014002e5c8     xstypes64:xstypes64.dll
 0002:000005d0       __imp_XsMath_pi            000000014002e5d0     xstypes64:xstypes64.dll
 0002:000005d8       __imp_XsMath_rad2deg       000000014002e5d8     xstypes64:xstypes64.dll
 0002:000005e0       \177xstypes64_NULL_THUNK_DATA 000000014002e5e0     xstypes64:xstypes64.dll
 0002:000005e8       __guard_check_icall_fptr   000000014002e5e8     MSVCRTD:guard_support.obj
 0002:000005f0       __guard_dispatch_icall_fptr 000000014002e5f0     MSVCRTD:guard_support.obj
 0002:000005f8       __xc_a                     000000014002e5f8     MSVCRTD:initializers.obj
 0002:00000928       __xc_z                     000000014002e928     MSVCRTD:initializers.obj
 0002:00000930       __xi_a                     000000014002e930     MSVCRTD:initializers.obj
 0002:00000948       __xi_z                     000000014002e948     MSVCRTD:initializers.obj
 0002:00000950       __xp_a                     000000014002e950     MSVCRTD:initializers.obj
 0002:00000958       __xp_z                     000000014002e958     MSVCRTD:initializers.obj
 0002:00000960       __xt_a                     000000014002e960     MSVCRTD:initializers.obj
 0002:00000968       __xt_z                     000000014002e968     MSVCRTD:initializers.obj
 0002:00000dd0       ??_7exception@std@@6B@     000000014002edd0     angularsegmentkinematicsdatagram.obj
 0002:00000de0       ??_C@_0BC@EOODALEL@Unknown?5exception?$AA@ 000000014002ede0     angularsegmentkinematicsdatagram.obj
 0002:00000e00       ??_C@_1NC@BCCBOEFF@?$AAc?$AA?3?$AA?2?$AAp?$AAr?$AAo?$AAg?$AAr?$AAa?$AAm?$AA?5?$AAf?$AAi?$AAl?$AAe?$AAs?$AA?5?$AA?$CI?$AAx?$AA8?$AA6?$AA?$CJ?$AA?2?$AAm?$AAi?$AAc?$AAr?$AAo?$AAs?$AAo?$AAf?$AAt@ 000000014002ee00     angularsegmentkinematicsdatagram.obj
 0002:00000ee0       ??_C@_1EK@NIFDJFDG@?$AAs?$AAt?$AAd?$AA?3?$AA?3?$AA_?$AAA?$AAd?$AAj?$AAu?$AAs?$AAt?$AA_?$AAm?$AAa?$AAn?$AAu?$AAa?$AAl?$AAl?$AAy?$AA_?$AAv?$AAe?$AAc?$AAt?$AAo?$AAr?$AA_?$AAa?$AAl?$AAi@ 000000014002eee0     angularsegmentkinematicsdatagram.obj
 0002:00000f30       ??_C@_1CG@JNLFBNGN@?$AA?$CC?$AAi?$AAn?$AAv?$AAa?$AAl?$AAi?$AAd?$AA?5?$AAa?$AAr?$AAg?$AAu?$AAm?$AAe?$AAn?$AAt?$AA?$CC?$AA?$AA@ 000000014002ef30     angularsegmentkinematicsdatagram.obj
 0002:00000f60       ??_7runtime_error@std@@6B@ 000000014002ef60     angularsegmentkinematicsdatagram.obj
 0002:00000f70       ??_C@_0EC@HDAFFLMP@Provided?5element?5count?5does?5not?5@ 000000014002ef70     angularsegmentkinematicsdatagram.obj
 0002:00000fc0       ??_7AngularSegmentKinematicsDatagram@@6B@ 000000014002efc0     angularsegmentkinematicsdatagram.obj
 0002:00000fe0       ??_C@_1MO@HAJOKNPG@?$AAc?$AA?3?$AA?2?$AAp?$AAr?$AAo?$AAg?$AAr?$AAa?$AAm?$AA?5?$AAf?$AAi?$AAl?$AAe?$AAs?$AA?5?$AA?$CI?$AAx?$AA8?$AA6?$AA?$CJ?$AA?2?$AAm?$AAi?$AAc?$AAr?$AAo?$AAs?$AAo?$AAf?$AAt@ 000000014002efe0     angularsegmentkinematicsdatagram.obj
 0002:000010b0       ??_C@_1DM@LHGCHCBA@?$AAv?$AAe?$AAc?$AAt?$AAo?$AAr?$AA?5?$AAs?$AAu?$AAb?$AAs?$AAc?$AAr?$AAi?$AAp?$AAt?$AA?5?$AAo?$AAu?$AAt?$AA?5?$AAo?$AAf?$AA?5?$AAr?$AAa?$AAn?$AAg?$AAe?$AA?$AA@ 000000014002f0b0     angularsegmentkinematicsdatagram.obj
 0002:000010f0       ??_C@_1EA@LEKOKFNB@?$AA?$CC?$AAv?$AAe?$AAc?$AAt?$AAo?$AAr?$AA?5?$AAs?$AAu?$AAb?$AAs?$AAc?$AAr?$AAi?$AAp?$AAt?$AA?5?$AAo?$AAu?$AAt?$AA?5?$AAo?$AAf?$AA?5?$AAr?$AAa?$AAn?$AAg?$AAe?$AA?$CC?$AA?$AA@ 000000014002f0f0     angularsegmentkinematicsdatagram.obj
 0002:00001130       ??_C@_1HK@EJDBECKJ@?$AAs?$AAt?$AAd?$AA?3?$AA?3?$AAv?$AAe?$AAc?$AAt?$AAo?$AAr?$AA?$DM?$AAf?$AAl?$AAo?$AAa?$AAt?$AA?0?$AAc?$AAl?$AAa?$AAs?$AAs?$AA?5?$AAs?$AAt?$AAd?$AA?3?$AA?3?$AAa?$AAl?$AAl@ 000000014002f130     angularsegmentkinematicsdatagram.obj
 0002:000011b0       ??_C@_0BD@OLBABOEK@vector?$DMT?$DO?5too?5long?$AA@ 000000014002f1b0     angularsegmentkinematicsdatagram.obj
 0002:000011c8       ??_C@_0BA@JFNIOLAK@string?5too?5long?$AA@ 000000014002f1c8     angularsegmentkinematicsdatagram.obj
 0002:000011d8       ??_C@_0BE@LMNLACIC@_Ptr_container?5?$CB?$DN?50?$AA@ 000000014002f1d8     angularsegmentkinematicsdatagram.obj
 0002:000011f0       ??_C@_1DG@HGDKEBPG@?$AA?$CC?$AA_?$AAP?$AAt?$AAr?$AA_?$AAc?$AAo?$AAn?$AAt?$AAa?$AAi?$AAn?$AAe?$AAr?$AA?5?$AA?$CB?$AA?$DN?$AA?5?$AA0?$AA?$CC?$AA?5?$AA?$CG?$AA?$CG?$AA?5?$AA0?$AA?$AA@ 000000014002f1f0     angularsegmentkinematicsdatagram.obj
 0002:00001228       ??_C@_17CNPHIMPH@?$AA?$CF?$AAl?$AAs?$AA?$AA@ 000000014002f228     angularsegmentkinematicsdatagram.obj
 0002:00001230       ??_C@_1EO@GFNCMDLA@?$AAs?$AAt?$AAd?$AA?3?$AA?3?$AA_?$AAA?$AAl?$AAl?$AAo?$AAc?$AAa?$AAt?$AAe?$AA_?$AAm?$AAa?$AAn?$AAu?$AAa?$AAl?$AAl?$AAy?$AA_?$AAv?$AAe?$AAc?$AAt?$AAo?$AAr?$AA_?$AAa@ 000000014002f230     angularsegmentkinematicsdatagram.obj
 0002:00001318       ??_7CenterOfMassDatagram@@6B@ 000000014002f318     centerofmassdatagram.obj
 0002:00001330       ?EULERPOSITIONSCALE@Datagram@@1MB 000000014002f330     datagram.obj
 0002:00001d20       ??_C@_1NC@OPMKDBPG@?$AAc?$AA?3?$AA?2?$AAp?$AAr?$AAo?$AAg?$AAr?$AAa?$AAm?$AA?5?$AAf?$AAi?$AAl?$AAe?$AAs?$AA?5?$AA?$CI?$AAx?$AA8?$AA6?$AA?$CJ?$AA?2?$AAm?$AAi?$AAc?$AAr?$AAo?$AAs?$AAo?$AAf?$AAt@ 000000014002fd20     datagram.obj
 0002:00001df8       ??_C@_1DC@POOIKBAO@?$AAI?$AAT?$AAE?$AAR?$AAA?$AAT?$AAO?$AAR?$AA?5?$AAL?$AAI?$AAS?$AAT?$AA?5?$AAC?$AAO?$AAR?$AAR?$AAU?$AAP?$AAT?$AAE?$AAD?$AA?$CB?$AA?$AA@ 000000014002fdf8     datagram.obj
 0002:00001e30       ??_C@_1EE@KLDMFDFL@?$AAs?$AAt?$AAd?$AA?3?$AA?3?$AA_?$AAI?$AAt?$AAe?$AAr?$AAa?$AAt?$AAo?$AAr?$AA_?$AAb?$AAa?$AAs?$AAe?$AA1?$AA2?$AA?3?$AA?3?$AA_?$AAO?$AAr?$AAp?$AAh?$AAa?$AAn?$AA_?$AAm@ 000000014002fe30     datagram.obj
 0002:00001e78       ??_C@_1DG@PLBPCAEM@?$AA?$CC?$AAI?$AAT?$AAE?$AAR?$AAA?$AAT?$AAO?$AAR?$AA?5?$AAL?$AAI?$AAS?$AAT?$AA?5?$AAC?$AAO?$AAR?$AAR?$AAU?$AAP?$AAT?$AAE?$AAD?$AA?$CB?$AA?$CC?$AA?$AA@ 000000014002fe78     datagram.obj
 0002:00001eb8       ??_7bad_cast@std@@6B@      000000014002feb8     datagram.obj
 0002:00001ec8       ??_C@_08EPJLHIJG@bad?5cast?$AA@ 000000014002fec8     datagram.obj
 0002:00001ed8       ??_C@_0BG@HGEDEDEC@invalid?5stoi?5argument?$AA@ 000000014002fed8     datagram.obj
 0002:00001ef0       ??_C@_0BL@MFFNMGGC@stoi?5argument?5out?5of?5range?$AA@ 000000014002fef0     datagram.obj
 0002:00001f18       ??_7Datagram@@6B@          000000014002ff18     datagram.obj
 0002:00001f30       ??_7?$basic_stringbuf@DU?$char_traits@D@std@@V?$allocator@D@2@@std@@6B@ 000000014002ff30     datagram.obj
 0002:00001fb0       ??_7?$basic_stringstream@DU?$char_traits@D@std@@V?$allocator@D@2@@std@@6B@ 000000014002ffb0     datagram.obj
 0002:00001fb8       ??_8?$basic_stringstream@DU?$char_traits@D@std@@V?$allocator@D@2@@std@@7B?$basic_istream@DU?$char_traits@D@std@@@1@@ 000000014002ffb8     datagram.obj
 0002:00001fc0       ??_8?$basic_stringstream@DU?$char_traits@D@std@@V?$allocator@D@2@@std@@7B?$basic_ostream@DU?$char_traits@D@std@@@1@@ 000000014002ffc0     datagram.obj
 0002:00001fd0       ??_C@_1MM@KGLOHGEF@?$AAc?$AA?3?$AA?2?$AAp?$AAr?$AAo?$AAg?$AAr?$AAa?$AAm?$AA?5?$AAf?$AAi?$AAl?$AAe?$AAs?$AA?5?$AA?$CI?$AAx?$AA8?$AA6?$AA?$CJ?$AA?2?$AAm?$AAi?$AAc?$AAr?$AAo?$AAs?$AAo?$AAf?$AAt@ 000000014002ffd0     datagram.obj
 0002:000020a0       ??_C@_1DO@CFEEPGGJ@?$AAm?$AAa?$AAp?$AA?1?$AAs?$AAe?$AAt?$AA?5?$AAi?$AAt?$AAe?$AAr?$AAa?$AAt?$AAo?$AAr?$AAs?$AA?5?$AAi?$AAn?$AAc?$AAo?$AAm?$AAp?$AAa?$AAt?$AAi?$AAb?$AAl?$AAe?$AA?$AA@ 00000001400300a0     datagram.obj
 0002:000020e0       ??_C@_1BKO@LHPHCJMM@?$AAs?$AAt?$AAd?$AA?3?$AA?3?$AA_?$AAT?$AAr?$AAe?$AAe?$AA_?$AAc?$AAo?$AAn?$AAs?$AAt?$AA_?$AAi?$AAt?$AAe?$AAr?$AAa?$AAt?$AAo?$AAr?$AA?$DM?$AAc?$AAl?$AAa?$AAs?$AAs?$AA?5@ 00000001400300e0     datagram.obj
 0002:00002290       ??_C@_1EC@JLIDLCDH@?$AA?$CC?$AAm?$AAa?$AAp?$AA?1?$AAs?$AAe?$AAt?$AA?5?$AAi?$AAt?$AAe?$AAr?$AAa?$AAt?$AAo?$AAr?$AAs?$AA?5?$AAi?$AAn?$AAc?$AAo?$AAm?$AAp?$AAa?$AAt?$AAi?$AAb?$AAl?$AAe?$AA?$CC@ 0000000140030290     datagram.obj
 0002:000022e0       ??_C@_1EI@FHEHNNNM@?$AAm?$AAa?$AAp?$AA?1?$AAs?$AAe?$AAt?$AA?5?$AAi?$AAt?$AAe?$AAr?$AAa?$AAt?$AAo?$AAr?$AA?5?$AAn?$AAo?$AAt?$AA?5?$AAd?$AAe?$AAr?$AAe?$AAf?$AAe?$AAr?$AAe?$AAn?$AAc?$AAa@ 00000001400302e0     datagram.obj
 0002:00002330       ??_C@_1BKM@NHEBIPM@?$AAs?$AAt?$AAd?$AA?3?$AA?3?$AA_?$AAT?$AAr?$AAe?$AAe?$AA_?$AAc?$AAo?$AAn?$AAs?$AAt?$AA_?$AAi?$AAt?$AAe?$AAr?$AAa?$AAt?$AAo?$AAr?$AA?$DM?$AAc?$AAl?$AAa?$AAs?$AAs?$AA?5@ 0000000140030330     datagram.obj
 0002:000024e0       ??_C@_1EM@KEKCOCNI@?$AA?$CC?$AAm?$AAa?$AAp?$AA?1?$AAs?$AAe?$AAt?$AA?5?$AAi?$AAt?$AAe?$AAr?$AAa?$AAt?$AAo?$AAr?$AA?5?$AAn?$AAo?$AAt?$AA?5?$AAd?$AAe?$AAr?$AAe?$AAf?$AAe?$AAr?$AAe?$AAn?$AAc@ 00000001400304e0     datagram.obj
 0002:00002530       ??_C@_1EK@PPDBPCAN@?$AAm?$AAa?$AAp?$AA?1?$AAs?$AAe?$AAt?$AA?5?$AAe?$AAr?$AAa?$AAs?$AAe?$AA?5?$AAi?$AAt?$AAe?$AAr?$AAa?$AAt?$AAo?$AAr?$AA?5?$AAo?$AAu?$AAt?$AAs?$AAi?$AAd?$AAe?$AA?5?$AAr@ 0000000140030530     datagram.obj
 0002:00002580       ??_C@_1CFM@PAAINOIF@?$AAs?$AAt?$AAd?$AA?3?$AA?3?$AA_?$AAT?$AAr?$AAe?$AAe?$AA?$DM?$AAc?$AAl?$AAa?$AAs?$AAs?$AA?5?$AAs?$AAt?$AAd?$AA?3?$AA?3?$AA_?$AAT?$AAm?$AAa?$AAp?$AA_?$AAt?$AAr?$AAa?$AAi@ 0000000140030580     datagram.obj
 0002:000027e0       ??_C@_1EO@CEDAEPC@?$AA?$CC?$AAm?$AAa?$AAp?$AA?1?$AAs?$AAe?$AAt?$AA?5?$AAe?$AAr?$AAa?$AAs?$AAe?$AA?5?$AAi?$AAt?$AAe?$AAr?$AAa?$AAt?$AAo?$AAr?$AA?5?$AAo?$AAu?$AAt?$AAs?$AAi?$AAd?$AAe?$AA?5@ 00000001400307e0     datagram.obj
 0002:00002830       ??_C@_1EG@EHJFMBHJ@?$AAm?$AAa?$AAp?$AA?1?$AAs?$AAe?$AAt?$AA?5?$AAi?$AAt?$AAe?$AAr?$AAa?$AAt?$AAo?$AAr?$AA?5?$AAn?$AAo?$AAt?$AA?5?$AAi?$AAn?$AAc?$AAr?$AAe?$AAm?$AAe?$AAn?$AAt?$AAa?$AAb@ 0000000140030830     datagram.obj
 0002:00002880       ??_C@_1BKO@BHAKMAAJ@?$AAs?$AAt?$AAd?$AA?3?$AA?3?$AA_?$AAT?$AAr?$AAe?$AAe?$AA_?$AAc?$AAo?$AAn?$AAs?$AAt?$AA_?$AAi?$AAt?$AAe?$AAr?$AAa?$AAt?$AAo?$AAr?$AA?$DM?$AAc?$AAl?$AAa?$AAs?$AAs?$AA?5@ 0000000140030880     datagram.obj
 0002:00002a30       ??_C@_1EK@BCPDGOMC@?$AA?$CC?$AAm?$AAa?$AAp?$AA?1?$AAs?$AAe?$AAt?$AA?5?$AAi?$AAt?$AAe?$AAr?$AAa?$AAt?$AAo?$AAr?$AA?5?$AAn?$AAo?$AAt?$AA?5?$AAi?$AAn?$AAc?$AAr?$AAe?$AAm?$AAe?$AAn?$AAt?$AAa@ 0000000140030a30     datagram.obj
 0002:00002a80       ??_C@_1BGE@LHIDFCKF@?$AAs?$AAt?$AAd?$AA?3?$AA?3?$AA_?$AAT?$AAr?$AAe?$AAe?$AA_?$AAv?$AAa?$AAl?$AA?$DM?$AAs?$AAt?$AAr?$AAu?$AAc?$AAt?$AA?5?$AAs?$AAt?$AAd?$AA?3?$AA?3?$AA_?$AAT?$AAr?$AAe?$AAe@ 0000000140030a80     datagram.obj
 0002:00002be8       ??_C@_0BI@CFPLBAOH@invalid?5string?5position?$AA@ 0000000140030be8     datagram.obj
 0002:00002c00       ??_C@_1CG@LEJCKCBB@?$AAi?$AAn?$AAv?$AAa?$AAl?$AAi?$AAd?$AA?5?$AAc?$AAo?$AAm?$AAp?$AAa?$AAr?$AAa?$AAt?$AAo?$AAr?$AA?$AA@ 0000000140030c00     datagram.obj
 0002:00002c28       ??_C@_1CI@JONCLBEJ@?$AAs?$AAt?$AAd?$AA?3?$AA?3?$AA_?$AAD?$AAe?$AAb?$AAu?$AAg?$AA_?$AAl?$AAt?$AA_?$AAp?$AAr?$AAe?$AAd?$AA?$AA@ 0000000140030c28     datagram.obj
 0002:00002c50       ??_C@_1CK@NDNHPKPI@?$AA?$CC?$AAi?$AAn?$AAv?$AAa?$AAl?$AAi?$AAd?$AA?5?$AAc?$AAo?$AAm?$AAp?$AAa?$AAr?$AAa?$AAt?$AAo?$AAr?$AA?$CC?$AA?$AA@ 0000000140030c50     datagram.obj
 0002:00002c80       ??_C@_1MI@GHHFAAMD@?$AAc?$AA?3?$AA?2?$AAp?$AAr?$AAo?$AAg?$AAr?$AAa?$AAm?$AA?5?$AAf?$AAi?$AAl?$AAe?$AAs?$AA?5?$AA?$CI?$AAx?$AA8?$AA6?$AA?$CJ?$AA?2?$AAm?$AAi?$AAc?$AAr?$AAo?$AAs?$AAo?$AAf?$AAt@ 0000000140030c80     datagram.obj
 0002:00002d50       ??_C@_1EM@MHOKKPFH@?$AAm?$AAa?$AAp?$AA?1?$AAs?$AAe?$AAt?$AA?5?$AAi?$AAn?$AAs?$AAe?$AAr?$AAt?$AA?5?$AAi?$AAt?$AAe?$AAr?$AAa?$AAt?$AAo?$AAr?$AA?5?$AAo?$AAu?$AAt?$AAs?$AAi?$AAd?$AAe?$AA?5@ 0000000140030d50     datagram.obj
 0002:00002da0       ??_C@_1CGK@FHBEMGOM@?$AAs?$AAt?$AAd?$AA?3?$AA?3?$AA_?$AAT?$AAr?$AAe?$AAe?$AA?$DM?$AAc?$AAl?$AAa?$AAs?$AAs?$AA?5?$AAs?$AAt?$AAd?$AA?3?$AA?3?$AA_?$AAT?$AAm?$AAa?$AAp?$AA_?$AAt?$AAr?$AAa?$AAi@ 0000000140030da0     datagram.obj
 0002:00003010       ??_C@_1FA@HNFOKDLB@?$AA?$CC?$AAm?$AAa?$AAp?$AA?1?$AAs?$AAe?$AAt?$AA?5?$AAi?$AAn?$AAs?$AAe?$AAr?$AAt?$AA?5?$AAi?$AAt?$AAe?$AAr?$AAa?$AAt?$AAo?$AAr?$AA?5?$AAo?$AAu?$AAt?$AAs?$AAi?$AAd?$AAe@ 0000000140031010     datagram.obj
 0002:00003060       ??_C@_1EG@OKCGOALM@?$AAm?$AAa?$AAp?$AA?1?$AAs?$AAe?$AAt?$AA?5?$AAi?$AAt?$AAe?$AAr?$AAa?$AAt?$AAo?$AAr?$AA?5?$AAn?$AAo?$AAt?$AA?5?$AAd?$AAe?$AAc?$AAr?$AAe?$AAm?$AAe?$AAn?$AAt?$AAa?$AAb@ 0000000140031060     datagram.obj
 0002:000030b0       ??_C@_1BKO@OEDIHMMI@?$AAs?$AAt?$AAd?$AA?3?$AA?3?$AA_?$AAT?$AAr?$AAe?$AAe?$AA_?$AAc?$AAo?$AAn?$AAs?$AAt?$AA_?$AAi?$AAt?$AAe?$AAr?$AAa?$AAt?$AAo?$AAr?$AA?$DM?$AAc?$AAl?$AAa?$AAs?$AAs?$AA?5@ 00000001400310b0     datagram.obj
 0002:00003260       ??_C@_1EK@OIBHPACE@?$AA?$CC?$AAm?$AAa?$AAp?$AA?1?$AAs?$AAe?$AAt?$AA?5?$AAi?$AAt?$AAe?$AAr?$AAa?$AAt?$AAo?$AAr?$AA?5?$AAn?$AAo?$AAt?$AA?5?$AAd?$AAe?$AAc?$AAr?$AAe?$AAm?$AAe?$AAn?$AAt?$AAa@ 0000000140031260     datagram.obj
 0002:000032b0       ??_C@_0BE@JONHPENG@map?1set?$DMT?$DO?5too?5long?$AA@ 00000001400312b0     datagram.obj
 0002:00003498       ??_7EulerDatagram@@6B@     0000000140031498     eulerdatagram.obj
 0002:00003690       ??_7JointAnglesDatagram@@6B@ 0000000140031690     jointanglesdatagram.obj
 0002:00003888       ??_7LinearSegmentKinematicsDatagram@@6B@ 0000000140031888     linearsegmentkinematicsdatagram.obj
 0002:00004138       ??_7MetaDatagram@@6B@      0000000140032138     metadatagram.obj
 0002:00004150       ??_C@_1BME@NCIPHHDN@?$AAs?$AAt?$AAd?$AA?3?$AA?3?$AAv?$AAe?$AAc?$AAt?$AAo?$AAr?$AA?$DM?$AAc?$AAl?$AAa?$AAs?$AAs?$AA?5?$AAs?$AAt?$AAd?$AA?3?$AA?3?$AAb?$AAa?$AAs?$AAi?$AAc?$AA_?$AAs?$AAt?$AAr@ 0000000140032150     metadatagram.obj
 0002:00004320       ??_C@_1NA@DFGHBIGI@?$AAc?$AA?3?$AA?2?$AAp?$AAr?$AAo?$AAg?$AAr?$AAa?$AAm?$AA?5?$AAf?$AAi?$AAl?$AAe?$AAs?$AA?5?$AA?$CI?$AAx?$AA8?$AA6?$AA?$CJ?$AA?2?$AAm?$AAi?$AAc?$AAr?$AAo?$AAs?$AAo?$AAf?$AAt@ 0000000140032320     metadatagram.obj
 0002:000043f0       ??_C@_1CFG@FGJHCIBH@?$AAs?$AAt?$AAd?$AA?3?$AA?3?$AA_?$AAT?$AAr?$AAe?$AAe?$AA_?$AAc?$AAo?$AAn?$AAs?$AAt?$AA_?$AAi?$AAt?$AAe?$AAr?$AAa?$AAt?$AAo?$AAr?$AA?$DM?$AAc?$AAl?$AAa?$AAs?$AAs?$AA?5@ 00000001400323f0     metadatagram.obj
 0002:00004650       ??_C@_1CFE@PPLBLEGL@?$AAs?$AAt?$AAd?$AA?3?$AA?3?$AA_?$AAT?$AAr?$AAe?$AAe?$AA_?$AAc?$AAo?$AAn?$AAs?$AAt?$AA_?$AAi?$AAt?$AAe?$AAr?$AAa?$AAt?$AAo?$AAr?$AA?$DM?$AAc?$AAl?$AAa?$AAs?$AAs?$AA?5@ 0000000140032650     metadatagram.obj
 0002:000048a8       ??_C@_0BM@NMJKDPPO@invalid?5vector?$DMT?$DO?5subscript?$AA@ 00000001400328a8     metadatagram.obj
 0002:000048d0       ??_C@_1EFG@HPDNAECC@?$AAs?$AAt?$AAd?$AA?3?$AA?3?$AA_?$AAT?$AAr?$AAe?$AAe?$AA?$DM?$AAc?$AAl?$AAa?$AAs?$AAs?$AA?5?$AAs?$AAt?$AAd?$AA?3?$AA?3?$AA_?$AAT?$AAm?$AAa?$AAp?$AA_?$AAt?$AAr?$AAa?$AAi@ 00000001400328d0     metadatagram.obj
 0002:00004d30       ??_C@_1CFG@PGGKMBNC@?$AAs?$AAt?$AAd?$AA?3?$AA?3?$AA_?$AAT?$AAr?$AAe?$AAe?$AA_?$AAc?$AAo?$AAn?$AAs?$AAt?$AA_?$AAi?$AAt?$AAe?$AAr?$AAa?$AAt?$AAo?$AAr?$AA?$DM?$AAc?$AAl?$AAa?$AAs?$AAs?$AA?5@ 0000000140032d30     metadatagram.obj
 0002:00004f90       ??_C@_1CAM@NGLDEJOH@?$AAs?$AAt?$AAd?$AA?3?$AA?3?$AA_?$AAT?$AAr?$AAe?$AAe?$AA_?$AAv?$AAa?$AAl?$AA?$DM?$AAs?$AAt?$AAr?$AAu?$AAc?$AAt?$AA?5?$AAs?$AAt?$AAd?$AA?3?$AA?3?$AA_?$AAT?$AAr?$AAe?$AAe@ 0000000140032f90     metadatagram.obj
 0002:000051a0       ??_C@_1CO@DGLIKNHI@?$AAi?$AAn?$AAv?$AAa?$AAl?$AAi?$AAd?$AA?5?$AAi?$AAt?$AAe?$AAr?$AAa?$AAt?$AAo?$AAr?$AA?5?$AAr?$AAa?$AAn?$AAg?$AAe?$AA?$AA@ 00000001400331a0     metadatagram.obj
 0002:000051d0       ??_C@_1CG@MDICLDJA@?$AAs?$AAt?$AAd?$AA?3?$AA?3?$AA_?$AAD?$AAe?$AAb?$AAu?$AAg?$AA_?$AAr?$AAa?$AAn?$AAg?$AAe?$AA2?$AA?$AA@ 00000001400331d0     metadatagram.obj
 0002:000051f8       ??_C@_1DC@CHPPODDE@?$AA?$CC?$AAi?$AAn?$AAv?$AAa?$AAl?$AAi?$AAd?$AA?5?$AAi?$AAt?$AAe?$AAr?$AAa?$AAt?$AAo?$AAr?$AA?5?$AAr?$AAa?$AAn?$AAg?$AAe?$AA?$CC?$AA?$AA@ 00000001400331f8     metadatagram.obj
 0002:00005230       ??_C@_1CFG@FFIHNBD@?$AAs?$AAt?$AAd?$AA?3?$AA?3?$AA_?$AAT?$AAr?$AAe?$AAe?$AA_?$AAc?$AAo?$AAn?$AAs?$AAt?$AA_?$AAi?$AAt?$AAe?$AAr?$AAa?$AAt?$AAo?$AAr?$AA?$DM?$AAc?$AAl?$AAa?$AAs?$AAs?$AA?5@ 0000000140033230     metadatagram.obj
 0002:00005688       ??_7PositionDatagram@@6B@  0000000140033688     positiondatagram.obj
 0002:00005880       ??_7QuaternionDatagram@@6B@ 0000000140033880     quaterniondatagram.obj
 0002:00005b28       ??_7ScaleDatagram@@6B@     0000000140033b28     scaledatagram.obj
 0002:00005be8       ??_7TimeCodeDatagram@@6B@  0000000140033be8     timecodedatagram.obj
 0002:00005de0       ??_7TrackerKinematicsDatagram@@6B@ 0000000140033de0     trackerkinematicsdatagram.obj
 0002:00005f20       ??_7bad_alloc@std@@6B@     0000000140033f20     udpserver.obj
 0002:00005f30       ??_C@_0P@GHFPNOJB@bad?5allocation?$AA@ 0000000140033f30     udpserver.obj
 0002:00005f90       ??_C@_0CM@OKINAFCK@f?3?2dd?2vctools?2crt?2crtw32?2stdcpp?2@ 0000000140033f90     msvcprtd:locale0_implib.obj
 0002:00005fc8       ??_7type_info@@6B@         0000000140033fc8     MSVCRTD:std_type_info_static.obj
 0002:00005fd8       ??_7bad_array_new_length@std@@6B@ 0000000140033fd8     MSVCRTD:throw_bad_alloc.obj
 0002:00005fe8       ??_C@_0BF@KINCDENJ@bad?5array?5new?5length?$AA@ 0000000140033fe8     MSVCRTD:throw_bad_alloc.obj
 0002:00006070       _load_config_used          0000000140034070     MSVCRTD:loadcfg.obj
 0002:00006170       ??_R4exception@std@@6B@    0000000140034170     angularsegmentkinematicsdatagram.obj
 0002:00006198       ??_R3exception@std@@8      0000000140034198     angularsegmentkinematicsdatagram.obj
 0002:000061b0       ??_R2exception@std@@8      00000001400341b0     angularsegmentkinematicsdatagram.obj
 0002:000061c0       ??_R1A@?0A@EA@exception@std@@8 00000001400341c0     angularsegmentkinematicsdatagram.obj
 0002:000061e8       ??_R4runtime_error@std@@6B@ 00000001400341e8     angularsegmentkinematicsdatagram.obj
 0002:00006210       ??_R3runtime_error@std@@8  0000000140034210     angularsegmentkinematicsdatagram.obj
 0002:00006228       ??_R2runtime_error@std@@8  0000000140034228     angularsegmentkinematicsdatagram.obj
 0002:00006240       ??_R1A@?0A@EA@runtime_error@std@@8 0000000140034240     angularsegmentkinematicsdatagram.obj
 0002:00006268       ??_R4AngularSegmentKinematicsDatagram@@6B@ 0000000140034268     angularsegmentkinematicsdatagram.obj
 0002:00006290       ??_R3AngularSegmentKinematicsDatagram@@8 0000000140034290     angularsegmentkinematicsdatagram.obj
 0002:000062a8       ??_R2AngularSegmentKinematicsDatagram@@8 00000001400342a8     angularsegmentkinematicsdatagram.obj
 0002:000062c0       ??_R1A@?0A@EA@AngularSegmentKinematicsDatagram@@8 00000001400342c0     angularsegmentkinematicsdatagram.obj
 0002:000062e8       ??_R1A@?0A@EA@Datagram@@8  00000001400342e8     angularsegmentkinematicsdatagram.obj
 0002:00006310       ??_R3Datagram@@8           0000000140034310     angularsegmentkinematicsdatagram.obj
 0002:00006328       ??_R2Datagram@@8           0000000140034328     angularsegmentkinematicsdatagram.obj
 0002:00006338       ??_R4CenterOfMassDatagram@@6B@ 0000000140034338     centerofmassdatagram.obj
 0002:00006360       ??_R3CenterOfMassDatagram@@8 0000000140034360     centerofmassdatagram.obj
 0002:00006378       ??_R2CenterOfMassDatagram@@8 0000000140034378     centerofmassdatagram.obj
 0002:00006390       ??_R1A@?0A@EA@CenterOfMassDatagram@@8 0000000140034390     centerofmassdatagram.obj
 0002:000063b8       ??_R4?$basic_stringbuf@DU?$char_traits@D@std@@V?$allocator@D@2@@std@@6B@ 00000001400343b8     datagram.obj
 0002:000063e0       ??_R3?$basic_stringbuf@DU?$char_traits@D@std@@V?$allocator@D@2@@std@@8 00000001400343e0     datagram.obj
 0002:000063f8       ??_R2?$basic_stringbuf@DU?$char_traits@D@std@@V?$allocator@D@2@@std@@8 00000001400343f8     datagram.obj
 0002:00006410       ??_R1A@?0A@EA@?$basic_stringbuf@DU?$char_traits@D@std@@V?$allocator@D@2@@std@@8 0000000140034410     datagram.obj
 0002:00006438       ??_R1A@?0A@EA@?$basic_streambuf@DU?$char_traits@D@std@@@std@@8 0000000140034438     datagram.obj
 0002:00006460       ??_R3?$basic_streambuf@DU?$char_traits@D@std@@@std@@8 0000000140034460     datagram.obj
 0002:00006478       ??_R2?$basic_streambuf@DU?$char_traits@D@std@@@std@@8 0000000140034478     datagram.obj
 0002:00006488       ??_R4?$basic_stringstream@DU?$char_traits@D@std@@V?$allocator@D@2@@std@@6B@ 0000000140034488     datagram.obj
 0002:000064b0       ??_R3?$basic_stringstream@DU?$char_traits@D@std@@V?$allocator@D@2@@std@@8 00000001400344b0     datagram.obj
 0002:000064d0       ??_R2?$basic_stringstream@DU?$char_traits@D@std@@V?$allocator@D@2@@std@@8 00000001400344d0     datagram.obj
 0002:00006528       ??_R1A@?0A@EA@?$basic_stringstream@DU?$char_traits@D@std@@V?$allocator@D@2@@std@@8 0000000140034528     datagram.obj
 0002:00006550       ??_R1A@?0A@EA@?$basic_iostream@DU?$char_traits@D@std@@@std@@8 0000000140034550     datagram.obj
 0002:00006578       ??_R3?$basic_iostream@DU?$char_traits@D@std@@@std@@8 0000000140034578     datagram.obj
 0002:00006590       ??_R2?$basic_iostream@DU?$char_traits@D@std@@@std@@8 0000000140034590     datagram.obj
 0002:000065e0       ??_R1A@?0A@EA@?$basic_istream@DU?$char_traits@D@std@@@std@@8 00000001400345e0     datagram.obj
 0002:00006608       ??_R3?$basic_istream@DU?$char_traits@D@std@@@std@@8 0000000140034608     datagram.obj
 0002:00006620       ??_R2?$basic_istream@DU?$char_traits@D@std@@@std@@8 0000000140034620     datagram.obj
 0002:00006648       ??_R1A@A@3FA@?$basic_ios@DU?$char_traits@D@std@@@std@@8 0000000140034648     datagram.obj
 0002:00006670       ??_R3?$basic_ios@DU?$char_traits@D@std@@@std@@8 0000000140034670     datagram.obj
 0002:00006688       ??_R2?$basic_ios@DU?$char_traits@D@std@@@std@@8 0000000140034688     datagram.obj
 0002:000066a8       ??_R1A@?0A@EA@?$basic_ios@DU?$char_traits@D@std@@@std@@8 00000001400346a8     datagram.obj
 0002:000066d0       ??_R1A@?0A@EA@ios_base@std@@8 00000001400346d0     datagram.obj
 0002:000066f8       ??_R3ios_base@std@@8       00000001400346f8     datagram.obj
 0002:00006710       ??_R2ios_base@std@@8       0000000140034710     datagram.obj
 0002:00006728       ??_R17?0A@EA@?$_Iosb@H@std@@8 0000000140034728     datagram.obj
 0002:00006750       ??_R3?$_Iosb@H@std@@8      0000000140034750     datagram.obj
 0002:00006768       ??_R2?$_Iosb@H@std@@8      0000000140034768     datagram.obj
 0002:00006778       ??_R1A@?0A@EA@?$_Iosb@H@std@@8 0000000140034778     datagram.obj
 0002:000067a0       ??_R1A@A@3EA@ios_base@std@@8 00000001400347a0     datagram.obj
 0002:000067c8       ??_R17A@3EA@?$_Iosb@H@std@@8 00000001400347c8     datagram.obj
 0002:000067f0       ??_R1BA@?0A@EA@?$basic_ostream@DU?$char_traits@D@std@@@std@@8 00000001400347f0     datagram.obj
 0002:00006818       ??_R3?$basic_ostream@DU?$char_traits@D@std@@@std@@8 0000000140034818     datagram.obj
 0002:00006830       ??_R2?$basic_ostream@DU?$char_traits@D@std@@@std@@8 0000000140034830     datagram.obj
 0002:00006858       ??_R1A@?0A@EA@?$basic_ostream@DU?$char_traits@D@std@@@std@@8 0000000140034858     datagram.obj
 0002:00006880       ??_R4bad_cast@std@@6B@     0000000140034880     datagram.obj
 0002:000068a8       ??_R3bad_cast@std@@8       00000001400348a8     datagram.obj
 0002:000068c0       ??_R2bad_cast@std@@8       00000001400348c0     datagram.obj
 0002:000068d8       ??_R1A@?0A@EA@bad_cast@std@@8 00000001400348d8     datagram.obj
 0002:00006900       ??_R4Datagram@@6B@         0000000140034900     datagram.obj
 0002:00006928       ??_R4EulerDatagram@@6B@    0000000140034928     eulerdatagram.obj
 0002:00006950       ??_R3EulerDatagram@@8      0000000140034950     eulerdatagram.obj
 0002:00006968       ??_R2EulerDatagram@@8      0000000140034968     eulerdatagram.obj
 0002:00006980       ??_R1A@?0A@EA@EulerDatagram@@8 0000000140034980     eulerdatagram.obj
 0002:000069a8       ??_R4JointAnglesDatagram@@6B@ 00000001400349a8     jointanglesdatagram.obj
 0002:000069d0       ??_R3JointAnglesDatagram@@8 00000001400349d0     jointanglesdatagram.obj
 0002:000069e8       ??_R2JointAnglesDatagram@@8 00000001400349e8     jointanglesdatagram.obj
 0002:00006a00       ??_R1A@?0A@EA@JointAnglesDatagram@@8 0000000140034a00     jointanglesdatagram.obj
 0002:00006a28       ??_R4LinearSegmentKinematicsDatagram@@6B@ 0000000140034a28     linearsegmentkinematicsdatagram.obj
 0002:00006a50       ??_R3LinearSegmentKinematicsDatagram@@8 0000000140034a50     linearsegmentkinematicsdatagram.obj
 0002:00006a68       ??_R2LinearSegmentKinematicsDatagram@@8 0000000140034a68     linearsegmentkinematicsdatagram.obj
 0002:00006a80       ??_R1A@?0A@EA@LinearSegmentKinematicsDatagram@@8 0000000140034a80     linearsegmentkinematicsdatagram.obj
 0002:00006aa8       ??_R4MetaDatagram@@6B@     0000000140034aa8     metadatagram.obj
 0002:00006ad0       ??_R3MetaDatagram@@8       0000000140034ad0     metadatagram.obj
 0002:00006ae8       ??_R2MetaDatagram@@8       0000000140034ae8     metadatagram.obj
 0002:00006b00       ??_R1A@?0A@EA@MetaDatagram@@8 0000000140034b00     metadatagram.obj
 0002:00006b28       ??_R4PositionDatagram@@6B@ 0000000140034b28     positiondatagram.obj
 0002:00006b50       ??_R3PositionDatagram@@8   0000000140034b50     positiondatagram.obj
 0002:00006b68       ??_R2PositionDatagram@@8   0000000140034b68     positiondatagram.obj
 0002:00006b80       ??_R1A@?0A@EA@PositionDatagram@@8 0000000140034b80     positiondatagram.obj
 0002:00006ba8       ??_R4QuaternionDatagram@@6B@ 0000000140034ba8     quaterniondatagram.obj
 0002:00006bd0       ??_R3QuaternionDatagram@@8 0000000140034bd0     quaterniondatagram.obj
 0002:00006be8       ??_R2QuaternionDatagram@@8 0000000140034be8     quaterniondatagram.obj
 0002:00006c00       ??_R1A@?0A@EA@QuaternionDatagram@@8 0000000140034c00     quaterniondatagram.obj
 0002:00006c28       ??_R4ScaleDatagram@@6B@    0000000140034c28     scaledatagram.obj
 0002:00006c50       ??_R3ScaleDatagram@@8      0000000140034c50     scaledatagram.obj
 0002:00006c68       ??_R2ScaleDatagram@@8      0000000140034c68     scaledatagram.obj
 0002:00006c80       ??_R1A@?0A@EA@ScaleDatagram@@8 0000000140034c80     scaledatagram.obj
 0002:00006ca8       ??_R4TimeCodeDatagram@@6B@ 0000000140034ca8     timecodedatagram.obj
 0002:00006cd0       ??_R3TimeCodeDatagram@@8   0000000140034cd0     timecodedatagram.obj
 0002:00006ce8       ??_R2TimeCodeDatagram@@8   0000000140034ce8     timecodedatagram.obj
 0002:00006d00       ??_R1A@?0A@EA@TimeCodeDatagram@@8 0000000140034d00     timecodedatagram.obj
 0002:00006d28       ??_R4TrackerKinematicsDatagram@@6B@ 0000000140034d28     trackerkinematicsdatagram.obj
 0002:00006d50       ??_R3TrackerKinematicsDatagram@@8 0000000140034d50     trackerkinematicsdatagram.obj
 0002:00006d68       ??_R2TrackerKinematicsDatagram@@8 0000000140034d68     trackerkinematicsdatagram.obj
 0002:00006d80       ??_R1A@?0A@EA@TrackerKinematicsDatagram@@8 0000000140034d80     trackerkinematicsdatagram.obj
 0002:00006da8       ??_R4bad_alloc@std@@6B@    0000000140034da8     udpserver.obj
 0002:00006dd0       ??_R3bad_alloc@std@@8      0000000140034dd0     udpserver.obj
 0002:00006de8       ??_R2bad_alloc@std@@8      0000000140034de8     udpserver.obj
 0002:00006e00       ??_R1A@?0A@EA@bad_alloc@std@@8 0000000140034e00     udpserver.obj
 0002:00006e28       ??_R4type_info@@6B@        0000000140034e28     MSVCRTD:std_type_info_static.obj
 0002:00006e50       ??_R3type_info@@8          0000000140034e50     MSVCRTD:std_type_info_static.obj
 0002:00006e68       ??_R2type_info@@8          0000000140034e68     MSVCRTD:std_type_info_static.obj
 0002:00006e78       ??_R1A@?0A@EA@type_info@@8 0000000140034e78     MSVCRTD:std_type_info_static.obj
 0002:00006ea0       ??_R4bad_array_new_length@std@@6B@ 0000000140034ea0     MSVCRTD:throw_bad_alloc.obj
 0002:00006ec8       ??_R3bad_array_new_length@std@@8 0000000140034ec8     MSVCRTD:throw_bad_alloc.obj
 0002:00006ee0       ??_R2bad_array_new_length@std@@8 0000000140034ee0     MSVCRTD:throw_bad_alloc.obj
 0002:00006f00       ??_R1A@?0A@EA@bad_array_new_length@std@@8 0000000140034f00     MSVCRTD:throw_bad_alloc.obj
 0002:000072c8       __rtc_iaa                  00000001400352c8     MSVCRTD:_initsect_.obj
 0002:000072d0       __rtc_izz                  00000001400352d0     MSVCRTD:_initsect_.obj
 0002:000072d8       __rtc_taa                  00000001400352d8     MSVCRTD:_initsect_.obj
 0002:000072e0       __rtc_tzz                  00000001400352e0     MSVCRTD:_initsect_.obj
 0002:0000dc78       _TI2?AVruntime_error@std@@ 000000014003bc78     angularsegmentkinematicsdatagram.obj
 0002:0000dc98       _CTA2?AVruntime_error@std@@ 000000014003bc98     angularsegmentkinematicsdatagram.obj
 0002:0000dcb0       _CT??_R0?AVruntime_error@std@@@8??0runtime_error@std@@QEAA@AEBV01@@Z24 000000014003bcb0     angularsegmentkinematicsdatagram.obj
 0002:0000dcd8       _CT??_R0?AVexception@std@@@8??0exception@std@@QEAA@AEBV01@@Z24 000000014003bcd8     angularsegmentkinematicsdatagram.obj
 0002:0000dd00       _TI2?AVbad_cast@std@@      000000014003bd00     datagram.obj
 0002:0000dd20       _CTA2?AVbad_cast@std@@     000000014003bd20     datagram.obj
 0002:0000dd38       _CT??_R0?AVbad_cast@std@@@8??0bad_cast@std@@QEAA@AEBV01@@Z24 000000014003bd38     datagram.obj
 0002:0000dd60       _TI2?AVbad_alloc@std@@     000000014003bd60     udpserver.obj
 0002:0000dd80       _CTA2?AVbad_alloc@std@@    000000014003bd80     udpserver.obj
 0002:0000dd98       _CT??_R0?AVbad_alloc@std@@@8??0bad_alloc@std@@QEAA@AEBV01@@Z24 000000014003bd98     udpserver.obj
 0002:0000ddc0       _TI3?AVbad_array_new_length@std@@ 000000014003bdc0     MSVCRTD:throw_bad_alloc.obj
 0002:0000dde0       _CTA3?AVbad_array_new_length@std@@ 000000014003bde0     MSVCRTD:throw_bad_alloc.obj
 0002:0000de00       _CT??_R0?AVbad_array_new_length@std@@@8??0bad_array_new_length@std@@QEAA@AEBV01@@Z24 000000014003be00     MSVCRTD:throw_bad_alloc.obj
 0002:0000de24       __IMPORT_DESCRIPTOR_xstypes64 000000014003be24     xstypes64:xstypes64.dll
 0002:0000de38       __IMPORT_DESCRIPTOR_KERNEL32 000000014003be38     kernel32:KERNEL32.dll
 0002:0000de4c       __IMPORT_DESCRIPTOR_liblsl64 000000014003be4c     liblsl64:liblsl64.dll
 0002:0000de60       __IMPORT_DESCRIPTOR_MSVCP140D 000000014003be60     msvcprtd:MSVCP140D.dll
 0002:0000de74       __IMPORT_DESCRIPTOR_VCRUNTIME140D 000000014003be74     vcruntimed:VCRUNTIME140D.dll
 0002:0000de88       __IMPORT_DESCRIPTOR_ucrtbased 000000014003be88     ucrtd:ucrtbased.dll
 0002:0000de9c       __NULL_IMPORT_DESCRIPTOR   000000014003be9c     xstypes64:xstypes64.dll
 0003:00000000       __scrt_native_dllmain_reason 000000014003e000     MSVCRTD:utility.obj
 0003:00000010       __security_cookie          000000014003e010     MSVCRTD:gs_cookie.obj
 0003:00000018       __security_cookie_complement 000000014003e018     MSVCRTD:gs_cookie.obj
 0003:00000020       _fltused                   000000014003e020     MSVCRTD:fltused.obj
 0003:00000028       __isa_available            000000014003e028     MSVCRTD:_cpu_disp_.obj
 0003:0000002c       __isa_enabled              000000014003e02c     MSVCRTD:_cpu_disp_.obj
 0003:00000030       __memcpy_nt_iters          000000014003e030     MSVCRTD:_cpu_disp_.obj
 0003:00000038       __scrt_default_matherr     000000014003e038     MSVCRTD:matherr.obj
 0003:00000040       __scrt_ucrt_dll_is_in_use  000000014003e040     MSVCRTD:ucrt_stubs.obj
 0003:00000050       ??_R0?AVruntime_error@std@@@8 000000014003e050     angularsegmentkinematicsdatagram.obj
 0003:00000078       ??_R0?AVexception@std@@@8  000000014003e078     angularsegmentkinematicsdatagram.obj
 0003:000000a0       ??_R0?AVAngularSegmentKinematicsDatagram@@@8 000000014003e0a0     angularsegmentkinematicsdatagram.obj
 0003:000000d8       ??_R0?AVDatagram@@@8       000000014003e0d8     angularsegmentkinematicsdatagram.obj
 0003:000000f8       ??_R0?AVCenterOfMassDatagram@@@8 000000014003e0f8     centerofmassdatagram.obj
 0003:00000128       ??_R0?AVbad_cast@std@@@8   000000014003e128     datagram.obj
 0003:00000150       ??_R0?AV?$basic_stringbuf@DU?$char_traits@D@std@@V?$allocator@D@2@@std@@@8 000000014003e150     datagram.obj
 0003:000001b0       ??_R0?AV?$basic_streambuf@DU?$char_traits@D@std@@@std@@@8 000000014003e1b0     datagram.obj
 0003:00000200       ??_R0?AV?$basic_stringstream@DU?$char_traits@D@std@@V?$allocator@D@2@@std@@@8 000000014003e200     datagram.obj
 0003:00000260       ??_R0?AV?$basic_iostream@DU?$char_traits@D@std@@@std@@@8 000000014003e260     datagram.obj
 0003:000002b0       ??_R0?AV?$basic_istream@DU?$char_traits@D@std@@@std@@@8 000000014003e2b0     datagram.obj
 0003:000002f8       ??_R0?AV?$basic_ios@DU?$char_traits@D@std@@@std@@@8 000000014003e2f8     datagram.obj
 0003:00000338       ??_R0?AVios_base@std@@@8   000000014003e338     datagram.obj
 0003:00000360       ??_R0?AV?$_Iosb@H@std@@@8  000000014003e360     datagram.obj
 0003:00000390       ??_R0?AV?$basic_ostream@DU?$char_traits@D@std@@@std@@@8 000000014003e390     datagram.obj
 0003:000003d8       ??_R0?AVEulerDatagram@@@8  000000014003e3d8     eulerdatagram.obj
 0003:00000400       ??_R0?AVJointAnglesDatagram@@@8 000000014003e400     jointanglesdatagram.obj
 0003:00000430       ??_R0?AVLinearSegmentKinematicsDatagram@@@8 000000014003e430     linearsegmentkinematicsdatagram.obj
 0003:00000468       ??_R0?AVMetaDatagram@@@8   000000014003e468     metadatagram.obj
 0003:00000490       ??_R0?AVPositionDatagram@@@8 000000014003e490     positiondatagram.obj
 0003:000004b8       ??_R0?AVQuaternionDatagram@@@8 000000014003e4b8     quaterniondatagram.obj
 0003:000004e8       ??_R0?AVScaleDatagram@@@8  000000014003e4e8     scaledatagram.obj
 0003:00000510       ??_R0?AVTimeCodeDatagram@@@8 000000014003e510     timecodedatagram.obj
 0003:00000538       ??_R0?AVTrackerKinematicsDatagram@@@8 000000014003e538     trackerkinematicsdatagram.obj
 0003:00000568       ??_R0?AVbad_alloc@std@@@8  000000014003e568     udpserver.obj
 0003:00000590       ??_R0?AVtype_info@@@8      000000014003e590     MSVCRTD:std_type_info_static.obj
 0003:000005b0       ??_R0?AVbad_array_new_length@std@@@8 000000014003e5b0     MSVCRTD:throw_bad_alloc.obj
 0003:000005e0       ?outlet@AngularSegmentKinematicsDatagram@@2Vstream_outlet@lsl@@A 000000014003e5e0     angularsegmentkinematicsdatagram.obj
 0003:000005f0       ?info@AngularSegmentKinematicsDatagram@@2Vstream_info@lsl@@A 000000014003e5f0     angularsegmentkinematicsdatagram.obj
 0003:000006c0       ?outlet@CenterOfMassDatagram@@2Vstream_outlet@lsl@@A 000000014003e6c0     centerofmassdatagram.obj
 0003:000006d0       ?info@CenterOfMassDatagram@@2Vstream_info@lsl@@A 000000014003e6d0     centerofmassdatagram.obj
 0003:000006d8       ?_Psave@?$_Facetptr@V?$ctype@D@std@@@std@@2PEBVfacet@locale@2@EB 000000014003e6d8     datagram.obj
 0003:000006e0       ?outlet@EulerDatagram@@2Vstream_outlet@lsl@@A 000000014003e6e0     eulerdatagram.obj
 0003:000007b0       ?info@EulerDatagram@@2Vstream_info@lsl@@A 000000014003e7b0     eulerdatagram.obj
 0003:000007c0       ?info@JointAnglesDatagram@@2Vstream_info@lsl@@A 000000014003e7c0     jointanglesdatagram.obj
 0003:000007c8       ?outlet@JointAnglesDatagram@@2Vstream_outlet@lsl@@A 000000014003e7c8     jointanglesdatagram.obj
 0003:000007d8       ?info@LinearSegmentKinematicsDatagram@@2Vstream_info@lsl@@A 000000014003e7d8     linearsegmentkinematicsdatagram.obj
 0003:000007e0       ?outlet@LinearSegmentKinematicsDatagram@@2Vstream_outlet@lsl@@A 000000014003e7e0     linearsegmentkinematicsdatagram.obj
 0003:00000808       ?info@PositionDatagram@@2Vstream_info@lsl@@A 000000014003e808     positiondatagram.obj
 0003:00000810       ?outlet@PositionDatagram@@2Vstream_outlet@lsl@@A 000000014003e810     positiondatagram.obj
 0003:00000820       ?info@QuaternionDatagram@@2Vstream_info@lsl@@A 000000014003e820     quaterniondatagram.obj
 0003:00000828       ?outlet@QuaternionDatagram@@2Vstream_outlet@lsl@@A 000000014003e828     quaterniondatagram.obj
 0003:00000900       ?_OptionsStorage@?1??__local_stdio_scanf_options@@9@4_KA 000000014003e900     timecodedatagram.obj
 0003:00000908       ?outlet@TimeCodeDatagram@@2Vstream_outlet@lsl@@A 000000014003e908     timecodedatagram.obj
 0003:00000918       ?info@TimeCodeDatagram@@2Vstream_info@lsl@@A 000000014003e918     timecodedatagram.obj
 0003:00000920       ?info@TrackerKinematicsDatagram@@2Vstream_info@lsl@@A 000000014003e920     trackerkinematicsdatagram.obj
 0003:00000928       ?outlet@TrackerKinematicsDatagram@@2Vstream_outlet@lsl@@A 000000014003e928     trackerkinematicsdatagram.obj
 0003:00000960       __scrt_current_native_startup_state 000000014003e960     MSVCRTD:utility.obj
 0003:00000968       __scrt_native_startup_lock 000000014003e968     MSVCRTD:utility.obj
 0003:000009a4       __favor                    000000014003e9a4     MSVCRTD:_cpu_disp_.obj
 0003:000009a8       __scrt_debugger_hook_flag  000000014003e9a8     MSVCRTD:utility_desktop.obj
 0003:00000f20       ?__type_info_root_node@@3U__type_info_node@@A 000000014003ef20     MSVCRTD:tncleanup.obj
 0003:00000f30       ?_OptionsStorage@?1??__local_stdio_printf_options@@9@4_KA 000000014003ef30     MSVCRTD:default_local_stdio_options.obj
 0003:00000f38       __dyn_tls_dtor_callback    000000014003ef38     <common>
 0003:00000f40       __dyn_tls_init_callback    000000014003ef40     <common>

 entry point at        0001:000286b0

 Static symbols

 0002:fffd2000       $unwind$??0exception@std@@QEAA@AEBV01@@Z 0000000140000000     jointanglesdatagram.obj
 0000:fffbb000       .debug$S                   0000000140000000     kernel32:KERNEL32.dll
 0000:fffbb000       .debug$S                   0000000140000000     kernel32:KERNEL32.dll
 0000:fffbb000       .debug$S                   0000000140000000     kernel32:KERNEL32.dll
 0000:fffbb000       .debug$S                   0000000140000000     kernel32:KERNEL32.dll
 0000:fffbb000       .debug$S                   0000000140000000     kernel32:KERNEL32.dll
 0000:fffbb000       .debug$S                   0000000140000000     kernel32:KERNEL32.dll
 0000:fffbb000       .debug$S                   0000000140000000     kernel32:KERNEL32.dll
 0000:fffbb000       .debug$S                   0000000140000000     kernel32:KERNEL32.dll
 0000:fffbb000       .debug$S                   0000000140000000     kernel32:KERNEL32.dll
 0000:fffbb000       .debug$S                   0000000140000000     kernel32:KERNEL32.dll
 0000:fffbb000       .debug$S                   0000000140000000     kernel32:KERNEL32.dll
 0000:fffbb000       .debug$S                   0000000140000000     kernel32:KERNEL32.dll
 0000:fffbb000       .debug$S                   0000000140000000     kernel32:KERNEL32.dll
 0000:fffbb000       .debug$S                   0000000140000000     kernel32:KERNEL32.dll
 0000:fffbb000       .debug$S                   0000000140000000     kernel32:KERNEL32.dll
 0000:fffbb000       .debug$S                   0000000140000000     kernel32:KERNEL32.dll
 0002:fffd2000       $unwind$??$_Uninitialized_move@PEAMPEAMV?$allocator@M@std@@@std@@YAPEAMQEAM0PEAMAEAV?$allocator@M@0@@Z 0000000140000000     linearsegmentkinematicsdatagram.obj
 0000:fffbb000       .debug$S                   0000000140000000     ucrtd:ucrtbased.dll
 0000:fffbb000       .debug$S                   0000000140000000     ucrtd:ucrtbased.dll
 0000:fffbb000       .debug$S                   0000000140000000     ucrtd:ucrtbased.dll
 0000:fffbb000       .debug$S                   0000000140000000     ucrtd:ucrtbased.dll
 0000:fffbb000       .debug$S                   0000000140000000     ucrtd:ucrtbased.dll
 0000:fffbb000       .debug$S                   0000000140000000     ucrtd:ucrtbased.dll
 0000:fffbb000       .debug$S                   0000000140000000     ucrtd:ucrtbased.dll
 0000:fffbb000       .debug$S                   0000000140000000     ucrtd:ucrtbased.dll
 0000:fffbb000       .debug$S                   0000000140000000     ucrtd:ucrtbased.dll
 0000:fffbb000       .debug$S                   0000000140000000     ucrtd:ucrtbased.dll
 0000:fffbb000       .debug$S                   0000000140000000     ucrtd:ucrtbased.dll
 0000:fffbb000       .debug$S                   0000000140000000     ucrtd:ucrtbased.dll
 0000:fffbb000       .debug$S                   0000000140000000     ucrtd:ucrtbased.dll
 0000:fffbb000       .debug$S                   0000000140000000     ucrtd:ucrtbased.dll
 0000:fffbb000       .debug$S                   0000000140000000     ucrtd:ucrtbased.dll
 0000:fffbb000       .debug$S                   0000000140000000     ucrtd:ucrtbased.dll
 0000:fffbb000       .debug$S                   0000000140000000     ucrtd:ucrtbased.dll
 0000:fffbb000       .debug$S                   0000000140000000     ucrtd:ucrtbased.dll
 0000:fffbb000       .debug$S                   0000000140000000     ucrtd:ucrtbased.dll
 0000:fffbb000       .debug$S                   0000000140000000     ucrtd:ucrtbased.dll
 0000:fffbb000       .debug$S                   0000000140000000     ucrtd:ucrtbased.dll
 0000:fffbb000       .debug$S                   0000000140000000     ucrtd:ucrtbased.dll
 0000:fffbb000       .debug$S                   0000000140000000     ucrtd:ucrtbased.dll
 0000:fffbb000       .debug$S                   0000000140000000     ucrtd:ucrtbased.dll
 0000:fffbb000       .debug$S                   0000000140000000     ucrtd:ucrtbased.dll
 0000:fffbb000       .debug$S                   0000000140000000     ucrtd:ucrtbased.dll
 0000:fffbb000       .debug$S                   0000000140000000     ucrtd:ucrtbased.dll
 0000:fffbb000       .debug$S                   0000000140000000     ucrtd:ucrtbased.dll
 0000:fffbb000       .debug$S                   0000000140000000     ucrtd:ucrtbased.dll
 0000:fffbb000       .debug$S                   0000000140000000     ucrtd:ucrtbased.dll
 0000:fffbb000       .debug$S                   0000000140000000     ucrtd:ucrtbased.dll
 0000:fffbb000       .debug$S                   0000000140000000     ucrtd:ucrtbased.dll
 0000:fffbb000       .debug$S                   0000000140000000     ucrtd:ucrtbased.dll
 0000:fffbb000       .debug$S                   0000000140000000     ucrtd:ucrtbased.dll
 0000:fffbb000       .debug$S                   0000000140000000     ucrtd:ucrtbased.dll
 0000:fffbb000       .debug$S                   0000000140000000     ucrtd:ucrtbased.dll
 0000:fffbb000       .debug$S                   0000000140000000     ucrtd:ucrtbased.dll
 0002:fffd2000       $unwind$??$emplace_back@AEBM@?$vector@MV?$allocator@M@std@@@std@@QEAAXAEBM@Z 0000000140000000     centerofmassdatagram.obj
 0000:fffbb000       .debug$S                   0000000140000000     vcruntimed:VCRUNTIME140D.dll
 0000:fffbb000       .debug$S                   0000000140000000     vcruntimed:VCRUNTIME140D.dll
 0000:fffbb000       .debug$S                   0000000140000000     vcruntimed:VCRUNTIME140D.dll
 0000:fffbb000       .debug$S                   0000000140000000     vcruntimed:VCRUNTIME140D.dll
 0000:fffbb000       .debug$S                   0000000140000000     vcruntimed:VCRUNTIME140D.dll
 0000:fffbb000       .debug$S                   0000000140000000     vcruntimed:VCRUNTIME140D.dll
 0000:fffbb000       .debug$S                   0000000140000000     vcruntimed:VCRUNTIME140D.dll
 0000:fffbb000       .debug$S                   0000000140000000     vcruntimed:VCRUNTIME140D.dll
 0000:fffbb000       .debug$S                   0000000140000000     vcruntimed:VCRUNTIME140D.dll
 0000:fffbb000       .debug$S                   0000000140000000     vcruntimed:VCRUNTIME140D.dll
 0000:fffbb000       .debug$S                   0000000140000000     vcruntimed:VCRUNTIME140D.dll
 0004:fffc1000       $pdata$??$_Uninitialized_move@PEAMPEAMV?$allocator@M@std@@@std@@YAPEAMQEAM0PEAMAEAV?$allocator@M@0@@Z 0000000140000000     linearsegmentkinematicsdatagram.obj
 0004:fffc1000       $pdata$??$emplace_back@AEBM@?$vector@MV?$allocator@M@std@@@std@@QEAAXAEBM@Z 0000000140000000     centerofmassdatagram.obj
 0002:fffd2000       $unwind$??$_Allocate_manually_vector_aligned@U_Default_allocate_traits@std@@@std@@YAPEAX_K@Z 0000000140000000     linearsegmentkinematicsdatagram.obj
 0002:fffd2000       $unwind$??$_Emplace_back_with_unused_capacity@AEBM@?$vector@MV?$allocator@M@std@@@std@@AEAAXAEBM@Z 0000000140000000     centerofmassdatagram.obj
 0004:fffc1000       $pdata$??$_Uninitialized_copy@PEAMPEAMV?$allocator@M@std@@@std@@YAPEAMQEAM0PEAMAEAV?$allocator@M@0@@Z 0000000140000000     linearsegmentkinematicsdatagram.obj
 0004:fffc1000       $pdata$??$_Emplace_back_with_unused_capacity@AEBM@?$vector@MV?$allocator@M@std@@@std@@AEAAXAEBM@Z 0000000140000000     centerofmassdatagram.obj
 0002:fffd2000       $unwind$??$_Uninitialized_copy_al_unchecked@MMV?$allocator@M@std@@@std@@YAPEAMQEAM00AEAV?$allocator@M@0@U_Really_trivial_ptr_iterator_tag@0@U?$integral_constant@_N$00@0@@Z 0000000140000000     linearsegmentkinematicsdatagram.obj
 0002:fffd2000       $unwind$??$construct@MAEBM@?$_Default_allocator_traits@V?$allocator@M@std@@@std@@SAXAEAV?$allocator@M@1@QEAMAEBM@Z 0000000140000000     centerofmassdatagram.obj
 0004:fffc1000       $pdata$??$_Uninitialized_copy_al_unchecked@MMV?$allocator@M@std@@@std@@YAPEAMQEAM00AEAV?$allocator@M@0@U_Really_trivial_ptr_iterator_tag@0@U?$integral_constant@_N$00@0@@Z 0000000140000000     linearsegmentkinematicsdatagram.obj
 0004:fffc1000       $pdata$??$construct@MAEBM@?$_Default_allocator_traits@V?$allocator@M@std@@@std@@SAXAEAV?$allocator@M@1@QEAMAEBM@Z 0000000140000000     centerofmassdatagram.obj
 0002:fffd2000       $unwind$??$_Uninitialized_copy@PEAMPEAMV?$allocator@M@std@@@std@@YAPEAMQEAM0PEAMAEAV?$allocator@M@0@@Z 0000000140000000     linearsegmentkinematicsdatagram.obj
 0002:fffd2000       $unwind$??$_Emplace_reallocate@AEBM@?$vector@MV?$allocator@M@std@@@std@@QEAAPEAMQEAMAEBM@Z 0000000140000000     centerofmassdatagram.obj
 0004:fffc1000       $pdata$??$?0V?$allocator@M@std@@$$V@?$_Compressed_pair@V?$allocator@M@std@@V?$_Vector_val@U?$_Simple_types@M@std@@@2@$00@std@@QEAA@U_One_then_variadic_args_t@1@$$QEAV?$allocator@M@1@@Z 0000000140000000     linearsegmentkinematicsdatagram.obj
 0004:fffc1000       $pdata$??$_Emplace_reallocate@AEBM@?$vector@MV?$allocator@M@std@@@std@@QEAAPEAMQEAMAEBM@Z 0000000140000000     centerofmassdatagram.obj
 0002:fffd2000       $unwind$??$_Uninitialized_move_al_unchecked@MMV?$allocator@M@std@@@std@@YAPEAMQEAM00AEAV?$allocator@M@0@U_Really_trivial_ptr_iterator_tag@0@U?$integral_constant@_N$00@0@@Z 0000000140000000     linearsegmentkinematicsdatagram.obj
 0002:fffd2000       $cppxdata$??$_Emplace_reallocate@AEBM@?$vector@MV?$allocator@M@std@@@std@@QEAAPEAMQEAMAEBM@Z 0000000140000000     centerofmassdatagram.obj
 0004:fffc1000       $pdata$??$_Uninitialized_move_al_unchecked@MMV?$allocator@M@std@@@std@@YAPEAMQEAM00AEAV?$allocator@M@0@U_Really_trivial_ptr_iterator_tag@0@U?$integral_constant@_N$00@0@@Z 0000000140000000     linearsegmentkinematicsdatagram.obj
 0002:fffd2000       $stateUnwindMap$??$_Emplace_reallocate@AEBM@?$vector@MV?$allocator@M@std@@@std@@QEAAPEAMQEAMAEBM@Z 0000000140000000     centerofmassdatagram.obj
 0002:fffd2000       $unwind$??$?0V?$allocator@M@std@@$$V@?$_Compressed_pair@V?$allocator@M@std@@V?$_Vector_val@U?$_Simple_types@M@std@@@2@$00@std@@QEAA@U_One_then_variadic_args_t@1@$$QEAV?$allocator@M@1@@Z 0000000140000000     linearsegmentkinematicsdatagram.obj
 0004:fffc1000       $pdata$??$_Get_size_of_n@$0BA@@std@@YA_K_K@Z 0000000140000000     linearsegmentkinematicsdatagram.obj
 0002:fffd2000       $tryMap$??$_Emplace_reallocate@AEBM@?$vector@MV?$allocator@M@std@@@std@@QEAAPEAMQEAMAEBM@Z 0000000140000000     centerofmassdatagram.obj
 0002:fffd2000       $unwind$??$_Copy_memmove@PEAMPEAM@std@@YAPEAMPEAM00@Z 0000000140000000     linearsegmentkinematicsdatagram.obj
 0002:fffd2000       $handlerMap$0$??$_Emplace_reallocate@AEBM@?$vector@MV?$allocator@M@std@@@std@@QEAAPEAMQEAMAEBM@Z 0000000140000000     centerofmassdatagram.obj
 0004:fffc1000       $pdata$??$_Copy_memmove@PEAMPEAM@std@@YAPEAMPEAM00@Z 0000000140000000     linearsegmentkinematicsdatagram.obj
 0002:fffd2000       $ip2state$??$_Emplace_reallocate@AEBM@?$vector@MV?$allocator@M@std@@@std@@QEAAPEAMQEAMAEBM@Z 0000000140000000     centerofmassdatagram.obj
 0001:fffff000       ?dtor$0@?0???0?$_String_alloc@U?$_String_base_types@DV?$allocator@D@std@@@std@@@std@@QEAA@XZ@4HA 0000000140000000 f   main.obj
 0002:fffd2000       $unwind$?catch$0@?0???$_Emplace_reallocate@AEBM@?$vector@MV?$allocator@M@std@@@std@@QEAAPEAMQEAMAEBM@Z@4HA 0000000140000000     centerofmassdatagram.obj
 0001:fffff000       ?dtor$0@?0???0?$basic_string@DU?$char_traits@D@std@@V?$allocator@D@2@@std@@QEAA@QEBD@Z@4HA 0000000140000000 f   main.obj
 0004:fffc1000       $pdata$?catch$0@?0???$_Emplace_reallocate@AEBM@?$vector@MV?$allocator@M@std@@@std@@QEAAPEAMQEAMAEBM@Z@4HA 0000000140000000     centerofmassdatagram.obj
 0002:fffd2000       $unwind$?length@?$char_traits@D@std@@SA_KQEBD@Z 0000000140000000     main.obj
 0002:fffd2000       $unwind$??$_Min_value@_K@std@@YAAEB_KAEB_K0@Z 0000000140000000     centerofmassdatagram.obj
 0004:fffc1000       $pdata$?length@?$char_traits@D@std@@SA_KQEBD@Z 0000000140000000     main.obj
 0004:fffc1000       $pdata$??$_Min_value@_K@std@@YAAEB_KAEB_K0@Z 0000000140000000     centerofmassdatagram.obj
 0002:fffd2000       $unwind$?copy@?$char_traits@D@std@@SAPEADQEADQEBD_K@Z 0000000140000000     main.obj
 0004:fffc1000       $pdata$?copy@?$char_traits@D@std@@SAPEADQEADQEBD_K@Z 0000000140000000     main.obj
 0002:fffd2000       $unwind$?move@?$char_traits@D@std@@SAPEADQEADQEBD_K@Z 0000000140000000     main.obj
 0002:fffd2000       $unwind$??$?0$$V@?$_Compressed_pair@V?$allocator@M@std@@V?$_Vector_val@U?$_Simple_types@M@std@@@2@$00@std@@QEAA@U_Zero_then_variadic_args_t@1@@Z 0000000140000000     centerofmassdatagram.obj
 0004:fffc1000       $pdata$??$?0$$V@?$_Compressed_pair@V?$allocator@M@std@@V?$_Vector_val@U?$_Simple_types@M@std@@@2@$00@std@@QEAA@U_Zero_then_variadic_args_t@1@@Z 0000000140000000     centerofmassdatagram.obj
 0004:fffc1000       $pdata$?move@?$char_traits@D@std@@SAPEADQEADQEBD_K@Z 0000000140000000     main.obj
 0002:fffd2000       $unwind$??$?0$$V@?$_Compressed_pair@V?$allocator@D@std@@V?$_String_val@U?$_Simple_types@D@std@@@2@$00@std@@QEAA@U_Zero_then_variadic_args_t@1@@Z 0000000140000000     centerofmassdatagram.obj
 0002:fffd2000       $unwind$?_Orphan_all@_Container_base12@std@@QEAAXXZ 0000000140000000     main.obj
 0004:fffc1000       $pdata$??$?0$$V@?$_Compressed_pair@V?$allocator@D@std@@V?$_String_val@U?$_Simple_types@D@std@@@2@$00@std@@QEAA@U_Zero_then_variadic_args_t@1@@Z 0000000140000000     centerofmassdatagram.obj
 0004:fffc1000       $pdata$?_Orphan_all@_Container_base12@std@@QEAAXXZ 0000000140000000     main.obj
 0002:fffd2000       $unwind$??$_Max_value@_K@std@@YAAEB_KAEB_K0@Z 0000000140000000     centerofmassdatagram.obj
 0002:fffd2000       __guard_fids___scrt_set_unhandled_exception_filter 0000000140000000     MSVCRTD:utility_desktop.obj
 0002:fffd2000       $cppxdata$?_Orphan_all@_Container_base12@std@@QEAAXXZ 0000000140000000     main.obj
 0004:fffc1000       $pdata$??$_Max_value@_K@std@@YAAEB_KAEB_K0@Z 0000000140000000     centerofmassdatagram.obj
 0002:fffd2000       $ip2state$?_Orphan_all@_Container_base12@std@@QEAAXXZ 0000000140000000     main.obj
 0002:fffd2000       $unwind$??$construct@PEADAEBQEAD@?$_Default_allocator_traits@V?$allocator@D@std@@@std@@SAXAEAV?$allocator@D@1@QEAPEADAEBQEAD@Z 0000000140000000     centerofmassdatagram.obj
 0002:fffd2000       $unwind$?_Allocate@_Default_allocate_traits@std@@SAPEAX_K@Z 0000000140000000     main.obj
 0004:fffc1000       $pdata$??$construct@PEADAEBQEAD@?$_Default_allocator_traits@V?$allocator@D@std@@@std@@SAXAEAV?$allocator@D@1@QEAPEADAEBQEAD@Z 0000000140000000     centerofmassdatagram.obj
 0004:fffc1000       $pdata$?_Allocate@_Default_allocate_traits@std@@SAPEAX_K@Z 0000000140000000     main.obj
 0002:fffd2000       $unwind$??$_Allocate@$0BA@U_Default_allocate_traits@std@@$0A@@std@@YAPEAX_K@Z 0000000140000000     centerofmassdatagram.obj
 0002:fffd2000       $unwind$?_Adjust_manually_vector_aligned@std@@YAXAEAPEAXAEA_K@Z 0000000140000000     main.obj
 0004:fffc1000       $pdata$??$_Allocate@$0BA@U_Default_allocate_traits@std@@$0A@@std@@YAPEAX_K@Z 0000000140000000     centerofmassdatagram.obj
 0002:fffd2000       __guard_fids__             0000000140000000     MSVCRTD:throw_bad_alloc.obj
 0002:fffd2000       __guard_fids__             0000000140000000     MSVCRTD:throw_bad_alloc.obj
 0002:fffd2000       __guard_fids__             0000000140000000     MSVCRTD:throw_bad_alloc.obj
 0004:fffc1000       $pdata$?_Adjust_manually_vector_aligned@std@@YAXAEAPEAXAEA_K@Z 0000000140000000     main.obj
 0002:fffd2000       $unwind$??$_Deallocate@$0BA@$0A@@std@@YAXPEAX_K@Z 0000000140000000     centerofmassdatagram.obj
 0002:fffd2000       $unwind$?deallocate@?$allocator@D@std@@QEAAXQEAD_K@Z 0000000140000000     main.obj
 0004:fffc1000       $pdata$??$_Deallocate@$0BA@$0A@@std@@YAXPEAX_K@Z 0000000140000000     centerofmassdatagram.obj
 0004:fffc1000       $pdata$?deallocate@?$allocator@D@std@@QEAAXQEAD_K@Z 0000000140000000     main.obj
 0002:fffd2000       $unwind$?allocate@?$allocator@U_Container_proxy@std@@@std@@QEAAPEAU_Container_proxy@2@_K@Z 0000000140000000     centerofmassdatagram.obj
 0002:fffd2000       $unwind$?allocate@?$allocator@D@std@@QEAAPEAD_K@Z 0000000140000000     main.obj
 0004:fffc1000       $pdata$?allocate@?$allocator@U_Container_proxy@std@@@std@@QEAAPEAU_Container_proxy@2@_K@Z 0000000140000000     centerofmassdatagram.obj
 0004:fffc1000       $pdata$?allocate@?$allocator@D@std@@QEAAPEAD_K@Z 0000000140000000     main.obj
 0002:fffd2000       $unwind$?deallocate@?$_Default_allocator_traits@V?$allocator@U_Container_proxy@std@@@std@@@std@@SAXAEAV?$allocator@U_Container_proxy@std@@@2@QEAU_Container_proxy@2@_K@Z 0000000140000000     centerofmassdatagram.obj
 0002:fffd2000       $unwind$??0?$_String_val@U?$_Simple_types@D@std@@@std@@QEAA@XZ 0000000140000000     main.obj
 0004:fffc1000       $pdata$?deallocate@?$_Default_allocator_traits@V?$allocator@U_Container_proxy@std@@@std@@@std@@SAXAEAV?$allocator@U_Container_proxy@std@@@2@QEAU_Container_proxy@2@_K@Z 0000000140000000     centerofmassdatagram.obj
 0004:fffc1000       $pdata$??_Gbad_alloc@std@@UEAAPEAXI@Z 0000000140000000     MSVCRTD:throw_bad_alloc.obj
 0002:fffd2000       $unwind$??_Gbad_alloc@std@@UEAAPEAXI@Z 0000000140000000     MSVCRTD:throw_bad_alloc.obj
 0004:fffc1000       $pdata$??0bad_alloc@std@@QEAA@AEBV01@@Z 0000000140000000     MSVCRTD:throw_bad_alloc.obj
 0002:fffd2000       $unwind$??0bad_alloc@std@@QEAA@AEBV01@@Z 0000000140000000     MSVCRTD:throw_bad_alloc.obj
 0004:fffc1000       $pdata$??1bad_alloc@std@@UEAA@XZ 0000000140000000     MSVCRTD:throw_bad_alloc.obj
 0002:fffd2000       $unwind$??1bad_alloc@std@@UEAA@XZ 0000000140000000     MSVCRTD:throw_bad_alloc.obj
 0004:fffc1000       $pdata$??0?$_String_val@U?$_Simple_types@D@std@@@std@@QEAA@XZ 0000000140000000     main.obj
 0002:fffd2000       $unwind$??$_Deallocate_plain@V?$allocator@U_Container_proxy@std@@@std@@$0A@@std@@YAXAEAV?$allocator@U_Container_proxy@std@@@0@QEAU_Container_proxy@0@@Z 0000000140000000     centerofmassdatagram.obj
 0004:fffc1000       $pdata$??0bad_alloc@std@@QEAA@XZ 0000000140000000     MSVCRTD:throw_bad_alloc.obj
 0002:fffd2000       $unwind$??0bad_alloc@std@@QEAA@XZ 0000000140000000     MSVCRTD:throw_bad_alloc.obj
 0004:fffc1000       $pdata$??_Gexception@std@@UEAAPEAXI@Z 0000000140000000     MSVCRTD:throw_bad_alloc.obj
 0002:fffd2000       $unwind$??_Gexception@std@@UEAAPEAXI@Z 0000000140000000     MSVCRTD:throw_bad_alloc.obj
 0004:fffc1000       $pdata$?what@exception@std@@UEBAPEBDXZ 0000000140000000     MSVCRTD:throw_bad_alloc.obj
 0002:fffd2000       $unwind$?what@exception@std@@UEBAPEBDXZ 0000000140000000     MSVCRTD:throw_bad_alloc.obj
 0004:fffc1000       $pdata$??1exception@std@@UEAA@XZ 0000000140000000     MSVCRTD:throw_bad_alloc.obj
 0002:fffd2000       $unwind$??1exception@std@@UEAA@XZ 0000000140000000     MSVCRTD:throw_bad_alloc.obj
 0004:fffc1000       $pdata$??0exception@std@@QEAA@AEBV01@@Z 0000000140000000     MSVCRTD:throw_bad_alloc.obj
 0002:fffd2000       $unwind$??0exception@std@@QEAA@AEBV01@@Z 0000000140000000     MSVCRTD:throw_bad_alloc.obj
 0004:fffc1000       $pdata$??0exception@std@@QEAA@QEBDH@Z 0000000140000000     MSVCRTD:throw_bad_alloc.obj
 0002:fffd2000       $unwind$??0exception@std@@QEAA@QEBDH@Z 0000000140000000     MSVCRTD:throw_bad_alloc.obj
 0002:fffd2000       $unwind$?_Myptr@?$_String_val@U?$_Simple_types@D@std@@@std@@QEAAPEADXZ 0000000140000000     main.obj
 0004:fffc1000       $pdata$??$_Deallocate_plain@V?$allocator@U_Container_proxy@std@@@std@@$0A@@std@@YAXAEAV?$allocator@U_Container_proxy@std@@@0@QEAU_Container_proxy@0@@Z 0000000140000000     centerofmassdatagram.obj
 0002:fffd2000       __guard_fids__guard_icall_checks_enforced 0000000140000000     MSVCRTD:guard_support.obj
 0004:fffc1000       $pdata$?_Myptr@?$_String_val@U?$_Simple_types@D@std@@@std@@QEAAPEADXZ 0000000140000000     main.obj
 0002:fffd2000       $unwind$??$_Get_size_of_n@$03@std@@YA_K_K@Z 0000000140000000     centerofmassdatagram.obj
 0002:fffd2000       $unwind$?_Myptr@?$_String_val@U?$_Simple_types@D@std@@@std@@QEBAPEBDXZ 0000000140000000     main.obj
 0004:fffc1000       $pdata$??$_Get_size_of_n@$03@std@@YA_K_K@Z 0000000140000000     centerofmassdatagram.obj
 0002:fffd2000       __guard_fids__             0000000140000000     MSVCRTD:guard_support.obj
 0004:fffc1000       $pdata$?_Myptr@?$_String_val@U?$_Simple_types@D@std@@@std@@QEBAPEBDXZ 0000000140000000     main.obj
 0002:fffd2000       $unwind$??$construct@U_Container_proxy@std@@U12@@?$_Default_allocator_traits@V?$allocator@U_Container_proxy@std@@@std@@@std@@SAXAEAV?$allocator@U_Container_proxy@std@@@1@QEAU_Container_proxy@1@$$QEAU31@@Z 0000000140000000     centerofmassdatagram.obj
 0002:fffd2000       $unwind$?_Large_string_engaged@?$_String_val@U?$_Simple_types@D@std@@@std@@QEBA_NXZ 0000000140000000     main.obj
 0004:fffc1000       $pdata$??$construct@U_Container_proxy@std@@U12@@?$_Default_allocator_traits@V?$allocator@U_Container_proxy@std@@@std@@@std@@SAXAEAV?$allocator@U_Container_proxy@std@@@1@QEAU_Container_proxy@1@$$QEAU31@@Z 0000000140000000     centerofmassdatagram.obj
 0004:fffc1000       $pdata$?_Large_string_engaged@?$_String_val@U?$_Simple_types@D@std@@@std@@QEBA_NXZ 0000000140000000     main.obj
 0002:fffd2000       $unwind$??$_Destroy_range@V?$allocator@M@std@@@std@@YAXPEAM0AEAV?$allocator@M@0@@Z 0000000140000000     centerofmassdatagram.obj
 0002:fffd2000       $unwind$??1?$_String_val@U?$_Simple_types@D@std@@@std@@QEAA@XZ 0000000140000000     main.obj
 0004:fffc1000       $pdata$??$_Destroy_range@V?$allocator@M@std@@@std@@YAXPEAM0AEAV?$allocator@M@0@@Z 0000000140000000     centerofmassdatagram.obj
 0004:fffc1000       $pdata$??1?$_String_val@U?$_Simple_types@D@std@@@std@@QEAA@XZ 0000000140000000     main.obj
 0002:fffd2000       $unwind$??$_Get_size_of_n@$0BA@@std@@YA_K_K@Z 0000000140000000     centerofmassdatagram.obj
 0002:fffd2000       $unwind$??0?$_String_alloc@U?$_String_base_types@DV?$allocator@D@std@@@std@@@std@@QEAA@XZ 0000000140000000     main.obj
 0004:fffc1000       $pdata$??$_Get_size_of_n@$0BA@@std@@YA_K_K@Z 0000000140000000     centerofmassdatagram.obj
 0004:fffc1000       $pdata$??0?$_String_alloc@U?$_String_base_types@DV?$allocator@D@std@@@std@@@std@@QEAA@XZ 0000000140000000     main.obj
 0002:fffd2000       $unwind$??$_Allocate_manually_vector_aligned@U_Default_allocate_traits@std@@@std@@YAPEAX_K@Z 0000000140000000     centerofmassdatagram.obj
 0002:fffd2000       __guard_fids_?pre_c_initialization@@YAHXZ 0000000140000000     MSVCRTD:exe_main.obj
 0002:fffd2000       $cppxdata$??0?$_String_alloc@U?$_String_base_types@DV?$allocator@D@std@@@std@@@std@@QEAA@XZ 0000000140000000     main.obj
 0004:fffc1000       $pdata$??$_Allocate_manually_vector_aligned@U_Default_allocate_traits@std@@@std@@YAPEAX_K@Z 0000000140000000     centerofmassdatagram.obj
 0002:fffd2000       $stateUnwindMap$??0?$_String_alloc@U?$_String_base_types@DV?$allocator@D@std@@@std@@@std@@QEAA@XZ 0000000140000000     main.obj
 0002:fffd2000       $unwind$??$_Uninitialized_move@PEAMPEAMV?$allocator@M@std@@@std@@YAPEAMQEAM0PEAMAEAV?$allocator@M@0@@Z 0000000140000000     centerofmassdatagram.obj
 0002:fffd2000       $ip2state$??0?$_String_alloc@U?$_String_base_types@DV?$allocator@D@std@@@std@@@std@@QEAA@XZ 0000000140000000     main.obj
 0004:fffc1000       $pdata$??$_Uninitialized_move@PEAMPEAMV?$allocator@M@std@@@std@@YAPEAMQEAM0PEAMAEAV?$allocator@M@0@@Z 0000000140000000     centerofmassdatagram.obj
 0002:fffd2000       $unwind$?dtor$0@?0???0?$_String_alloc@U?$_String_base_types@DV?$allocator@D@std@@@std@@@std@@QEAA@XZ@4HA 0000000140000000     main.obj
 0002:fffd2000       $unwind$??$_Uninitialized_move_al_unchecked@MMV?$allocator@M@std@@@std@@YAPEAMQEAM00AEAV?$allocator@M@0@U_Really_trivial_ptr_iterator_tag@0@U?$integral_constant@_N$00@0@@Z 0000000140000000     centerofmassdatagram.obj
 0004:fffc1000       $pdata$?initialize_environment@__scrt_narrow_environment_policy@@SAHXZ 0000000140000000     MSVCRTD:exe_main.obj
 0002:fffd2000       $unwind$?initialize_environment@__scrt_narrow_environment_policy@@SAHXZ 0000000140000000     MSVCRTD:exe_main.obj
 0004:fffc1000       $pdata$?configure_argv@__scrt_narrow_argv_policy@@SAHXZ 0000000140000000     MSVCRTD:exe_main.obj
 0002:fffd2000       $unwind$?configure_argv@__scrt_narrow_argv_policy@@SAHXZ 0000000140000000     MSVCRTD:exe_main.obj
 0004:fffc1000       $pdata$?dtor$0@?0???0?$_String_alloc@U?$_String_base_types@DV?$allocator@D@std@@@std@@@std@@QEAA@XZ@4HA 0000000140000000     main.obj
 0002:fffd2000       $unwind$??1?$_String_alloc@U?$_String_base_types@DV?$allocator@D@std@@@std@@@std@@QEAA@XZ 0000000140000000     main.obj
 0004:fffc1000       $pdata$??1?$_String_alloc@U?$_String_base_types@DV?$allocator@D@std@@@std@@@std@@QEAA@XZ 0000000140000000     main.obj
 0002:fffd2000       $cppxdata$??1?$_String_alloc@U?$_String_base_types@DV?$allocator@D@std@@@std@@@std@@QEAA@XZ 0000000140000000     main.obj
 0002:fffd2000       $ip2state$??1?$_String_alloc@U?$_String_base_types@DV?$allocator@D@std@@@std@@@std@@QEAA@XZ 0000000140000000     main.obj
 0002:fffd2000       $unwind$?_Alloc_proxy@?$_String_alloc@U?$_String_base_types@DV?$allocator@D@std@@@std@@@std@@QEAAXXZ 0000000140000000     main.obj
 0002:fffd2000       __guard_fids__             0000000140000000     MSVCRTD:exe_main.obj
 0004:fffc1000       $pdata$?_Alloc_proxy@?$_String_alloc@U?$_String_base_types@DV?$allocator@D@std@@@std@@@std@@QEAAXXZ 0000000140000000     main.obj
 0002:fffd2000       $unwind$?_Free_proxy@?$_String_alloc@U?$_String_base_types@DV?$allocator@D@std@@@std@@@std@@QEAAXXZ 0000000140000000     main.obj
 0004:fffc1000       $pdata$?_Free_proxy@?$_String_alloc@U?$_String_base_types@DV?$allocator@D@std@@@std@@@std@@QEAAXXZ 0000000140000000     main.obj
 0002:fffd2000       $unwind$?_Myproxy@?$_String_alloc@U?$_String_base_types@DV?$allocator@D@std@@@std@@@std@@QEAAAEAPEAU_Container_proxy@2@XZ 0000000140000000     main.obj
 0004:fffc1000       $pdata$?_Myproxy@?$_String_alloc@U?$_String_base_types@DV?$allocator@D@std@@@std@@@std@@QEAAAEAPEAU_Container_proxy@2@XZ 0000000140000000     main.obj
 0002:fffd2000       $unwind$?_Orphan_all@?$_String_alloc@U?$_String_base_types@DV?$allocator@D@std@@@std@@@std@@QEAAXXZ 0000000140000000     main.obj
 0004:fffc1000       $pdata$?_Orphan_all@?$_String_alloc@U?$_String_base_types@DV?$allocator@D@std@@@std@@@std@@QEAAXXZ 0000000140000000     main.obj
 0004:fffc1000       $pdata$??$_Uninitialized_move_al_unchecked@MMV?$allocator@M@std@@@std@@YAPEAMQEAM00AEAV?$allocator@M@0@U_Really_trivial_ptr_iterator_tag@0@U?$integral_constant@_N$00@0@@Z 0000000140000000     centerofmassdatagram.obj
 0002:fffd2000       $unwind$?_Getal@?$_String_alloc@U?$_String_base_types@DV?$allocator@D@std@@@std@@@std@@QEAAAEAV?$allocator@D@2@XZ 0000000140000000     main.obj
 0002:fffd2000       $unwind$??$_Copy_memmove@PEAMPEAM@std@@YAPEAMPEAM00@Z 0000000140000000     centerofmassdatagram.obj
 0002:fffd2000       __guard_fids__             0000000140000000     MSVCRTD:std_type_info_static.obj
 0004:fffc1000       $pdata$?_Getal@?$_String_alloc@U?$_String_base_types@DV?$allocator@D@std@@@std@@@std@@QEAAAEAV?$allocator@D@2@XZ 0000000140000000     main.obj
 0004:fffc1000       $pdata$??$_Copy_memmove@PEAMPEAM@std@@YAPEAMPEAM00@Z 0000000140000000     centerofmassdatagram.obj
 0002:fffd2000       $unwind$?_Getal@?$_String_alloc@U?$_String_base_types@DV?$allocator@D@std@@@std@@@std@@QEBAAEBV?$allocator@D@2@XZ 0000000140000000     main.obj
 0004:fffc1000       $pdata$?_Getal@?$_String_alloc@U?$_String_base_types@DV?$allocator@D@std@@@std@@@std@@QEBAAEBV?$allocator@D@2@XZ 0000000140000000     main.obj
 0002:fffd2000       $unwind$?_Get_data@?$_String_alloc@U?$_String_base_types@DV?$allocator@D@std@@@std@@@std@@QEAAAEAV?$_String_val@U?$_Simple_types@D@std@@@2@XZ 0000000140000000     main.obj
 0004:fffc1000       $pdata$?_Get_data@?$_String_alloc@U?$_String_base_types@DV?$allocator@D@std@@@std@@@std@@QEAAAEAV?$_String_val@U?$_Simple_types@D@std@@@2@XZ 0000000140000000     main.obj
 0002:fffd2000       $unwind$?_Get_data@?$_String_alloc@U?$_String_base_types@DV?$allocator@D@std@@@std@@@std@@QEBAAEBV?$_String_val@U?$_Simple_types@D@std@@@2@XZ 0000000140000000     main.obj
 0004:fffc1000       $pdata$?_Get_data@?$_String_alloc@U?$_String_base_types@DV?$allocator@D@std@@@std@@@std@@QEBAAEBV?$_String_val@U?$_Simple_types@D@std@@@2@XZ 0000000140000000     main.obj
 0002:fffd2000       $unwind$??1?$_Compressed_pair@V?$allocator@D@std@@V?$_String_val@U?$_Simple_types@D@std@@@2@$00@std@@QEAA@XZ 0000000140000000     main.obj
 0004:fffc1000       $pdata$??1?$_Compressed_pair@V?$allocator@D@std@@V?$_String_val@U?$_Simple_types@D@std@@@2@$00@std@@QEAA@XZ 0000000140000000     main.obj
 0002:fffd2000       $unwind$??0?$basic_string@DU?$char_traits@D@std@@V?$allocator@D@2@@std@@QEAA@QEBD@Z 0000000140000000     main.obj
 0004:fffc1000       $pdata$??0?$basic_string@DU?$char_traits@D@std@@V?$allocator@D@2@@std@@QEAA@QEBD@Z 0000000140000000     main.obj
 0002:fffd2000       $cppxdata$??0?$basic_string@DU?$char_traits@D@std@@V?$allocator@D@2@@std@@QEAA@QEBD@Z 0000000140000000     main.obj
 0002:fffd2000       $stateUnwindMap$??0?$basic_string@DU?$char_traits@D@std@@V?$allocator@D@2@@std@@QEAA@QEBD@Z 0000000140000000     main.obj
 0002:fffd2000       $ip2state$??0?$basic_string@DU?$char_traits@D@std@@V?$allocator@D@2@@std@@QEAA@QEBD@Z 0000000140000000     main.obj
 0002:fffd2000       $unwind$?dtor$0@?0???0?$basic_string@DU?$char_traits@D@std@@V?$allocator@D@2@@std@@QEAA@QEBD@Z@4HA 0000000140000000     main.obj
 0004:fffc1000       $pdata$?dtor$0@?0???0?$basic_string@DU?$char_traits@D@std@@V?$allocator@D@2@@std@@QEAA@QEBD@Z@4HA 0000000140000000     main.obj
 0002:fffd2000       $unwind$??1?$basic_string@DU?$char_traits@D@std@@V?$allocator@D@2@@std@@QEAA@XZ 0000000140000000     main.obj
 0004:fffc1000       $pdata$??1?$basic_string@DU?$char_traits@D@std@@V?$allocator@D@2@@std@@QEAA@XZ 0000000140000000     main.obj
 0002:fffd2000       $cppxdata$??1?$basic_string@DU?$char_traits@D@std@@V?$allocator@D@2@@std@@QEAA@XZ 0000000140000000     main.obj
 0002:fffd2000       $ip2state$??1?$basic_string@DU?$char_traits@D@std@@V?$allocator@D@2@@std@@QEAA@XZ 0000000140000000     main.obj
 0002:fffd2000       $unwind$?assign@?$basic_string@DU?$char_traits@D@std@@V?$allocator@D@2@@std@@QEAAAEAV12@QEBD_K@Z 0000000140000000     main.obj
 0004:fffc1000       $pdata$?assign@?$basic_string@DU?$char_traits@D@std@@V?$allocator@D@2@@std@@QEAAAEAV12@QEBD_K@Z 0000000140000000     main.obj
 0002:fffd2000       $unwind$?assign@?$basic_string@DU?$char_traits@D@std@@V?$allocator@D@2@@std@@QEAAAEAV12@QEBD@Z 0000000140000000     main.obj
 0004:fffc1000       $pdata$?assign@?$basic_string@DU?$char_traits@D@std@@V?$allocator@D@2@@std@@QEAAAEAV12@QEBD@Z 0000000140000000     main.obj
 0002:fffd2000       $unwind$?c_str@?$basic_string@DU?$char_traits@D@std@@V?$allocator@D@2@@std@@QEBAPEBDXZ 0000000140000000     main.obj
 0004:fffc1000       $pdata$?c_str@?$basic_string@DU?$char_traits@D@std@@V?$allocator@D@2@@std@@QEBAPEBDXZ 0000000140000000     main.obj
 0002:fffd2000       $cppxdata$?c_str@?$basic_string@DU?$char_traits@D@std@@V?$allocator@D@2@@std@@QEBAPEBDXZ 0000000140000000     main.obj
 0002:fffd2000       $ip2state$?c_str@?$basic_string@DU?$char_traits@D@std@@V?$allocator@D@2@@std@@QEBAPEBDXZ 0000000140000000     main.obj
 0002:fffd2000       $unwind$?size@?$basic_string@DU?$char_traits@D@std@@V?$allocator@D@2@@std@@QEBA_KXZ 0000000140000000     main.obj
 0004:fffc1000       $pdata$?size@?$basic_string@DU?$char_traits@D@std@@V?$allocator@D@2@@std@@QEBA_KXZ 0000000140000000     main.obj
 0002:fffd2000       $unwind$?max_size@?$basic_string@DU?$char_traits@D@std@@V?$allocator@D@2@@std@@QEBA_KXZ 0000000140000000     main.obj
 0004:fffc1000       $pdata$?max_size@?$basic_string@DU?$char_traits@D@std@@V?$allocator@D@2@@std@@QEBA_KXZ 0000000140000000     main.obj
 0002:fffd2000       $unwind$??$_Get_size_of_n@$0BA@@std@@YA_K_K@Z 0000000140000000     linearsegmentkinematicsdatagram.obj
 0004:fffc1000       $pdata$??$_Destroy_range@V?$allocator@M@std@@@std@@YAXPEAM0AEAV?$allocator@M@0@@Z 0000000140000000     linearsegmentkinematicsdatagram.obj
 0002:fffd2000       $unwind$?_Calculate_growth@?$basic_string@DU?$char_traits@D@std@@V?$allocator@D@2@@std@@QEBA_K_K@Z 0000000140000000     main.obj
 0004:fffc1000       $pdata$?_Calculate_growth@?$basic_string@DU?$char_traits@D@std@@V?$allocator@D@2@@std@@QEBA_K_K@Z 0000000140000000     main.obj
 0002:fffd2000       $unwind$?_Tidy_init@?$basic_string@DU?$char_traits@D@std@@V?$allocator@D@2@@std@@QEAAXXZ 0000000140000000     main.obj
 0004:fffc1000       $pdata$?_Tidy_init@?$basic_string@DU?$char_traits@D@std@@V?$allocator@D@2@@std@@QEAAXXZ 0000000140000000     main.obj
 0002:fffd2000       $unwind$?_Tidy_deallocate@?$basic_string@DU?$char_traits@D@std@@V?$allocator@D@2@@std@@QEAAXXZ 0000000140000000     main.obj
 0004:fffc1000       $pdata$?_Tidy_deallocate@?$basic_string@DU?$char_traits@D@std@@V?$allocator@D@2@@std@@QEAAXXZ 0000000140000000     main.obj
 0002:fffd2000       $unwind$?_Xlen@?$basic_string@DU?$char_traits@D@std@@V?$allocator@D@2@@std@@SAXXZ 0000000140000000     main.obj
 0004:fffc1000       $pdata$?_Xlen@?$basic_string@DU?$char_traits@D@std@@V?$allocator@D@2@@std@@SAXXZ 0000000140000000     main.obj
 0002:fffd2000       $unwind$??$_Destroy_range@V?$allocator@M@std@@@std@@YAXPEAM0AEAV?$allocator@M@0@@Z 0000000140000000     linearsegmentkinematicsdatagram.obj
 0004:fffc1000       $pdata$??$_Get_size_of_n@$03@std@@YA_K_K@Z 0000000140000000     linearsegmentkinematicsdatagram.obj
 0002:fffd2000       $unwind$??$_Get_size_of_n@$03@std@@YA_K_K@Z 0000000140000000     linearsegmentkinematicsdatagram.obj
 0004:fffc1000       $pdata$??$construct@U_Container_proxy@std@@U12@@?$_Default_allocator_traits@V?$allocator@U_Container_proxy@std@@@std@@@std@@SAXAEAV?$allocator@U_Container_proxy@std@@@1@QEAU_Container_proxy@1@$$QEAU31@@Z 0000000140000000     linearsegmentkinematicsdatagram.obj
 0002:fffd2000       $unwind$??$construct@U_Container_proxy@std@@U12@@?$_Default_allocator_traits@V?$allocator@U_Container_proxy@std@@@std@@@std@@SAXAEAV?$allocator@U_Container_proxy@std@@@1@QEAU_Container_proxy@1@$$QEAU31@@Z 0000000140000000     linearsegmentkinematicsdatagram.obj
 0004:fffc1000       $pdata$??$_Deallocate_plain@V?$allocator@U_Container_proxy@std@@@std@@$0A@@std@@YAXAEAV?$allocator@U_Container_proxy@std@@@0@QEAU_Container_proxy@0@@Z 0000000140000000     linearsegmentkinematicsdatagram.obj
 0002:fffd2000       $unwind$??$_Deallocate_plain@V?$allocator@U_Container_proxy@std@@@std@@$0A@@std@@YAXAEAV?$allocator@U_Container_proxy@std@@@0@QEAU_Container_proxy@0@@Z 0000000140000000     linearsegmentkinematicsdatagram.obj
 0004:fffc1000       $pdata$?deallocate@?$_Default_allocator_traits@V?$allocator@U_Container_proxy@std@@@std@@@std@@SAXAEAV?$allocator@U_Container_proxy@std@@@2@QEAU_Container_proxy@2@_K@Z 0000000140000000     linearsegmentkinematicsdatagram.obj
 0002:fffd2000       $unwind$?deallocate@?$_Default_allocator_traits@V?$allocator@U_Container_proxy@std@@@std@@@std@@SAXAEAV?$allocator@U_Container_proxy@std@@@2@QEAU_Container_proxy@2@_K@Z 0000000140000000     linearsegmentkinematicsdatagram.obj
 0004:fffc1000       $pdata$?allocate@?$allocator@U_Container_proxy@std@@@std@@QEAAPEAU_Container_proxy@2@_K@Z 0000000140000000     linearsegmentkinematicsdatagram.obj
 0002:fffd2000       $unwind$?allocate@?$allocator@U_Container_proxy@std@@@std@@QEAAPEAU_Container_proxy@2@_K@Z 0000000140000000     linearsegmentkinematicsdatagram.obj
 0004:fffc1000       $pdata$??$_Deallocate@$0BA@$0A@@std@@YAXPEAX_K@Z 0000000140000000     linearsegmentkinematicsdatagram.obj
 0002:fffd2000       $unwind$??$_Deallocate@$0BA@$0A@@std@@YAXPEAX_K@Z 0000000140000000     linearsegmentkinematicsdatagram.obj
 0004:fffc1000       $pdata$??$_Allocate@$0BA@U_Default_allocate_traits@std@@$0A@@std@@YAPEAX_K@Z 0000000140000000     linearsegmentkinematicsdatagram.obj
 0002:fffd2000       $unwind$??$_Allocate@$0BA@U_Default_allocate_traits@std@@$0A@@std@@YAPEAX_K@Z 0000000140000000     linearsegmentkinematicsdatagram.obj
 0004:fffc1000       $pdata$??$construct@PEADAEBQEAD@?$_Default_allocator_traits@V?$allocator@D@std@@@std@@SAXAEAV?$allocator@D@1@QEAPEADAEBQEAD@Z 0000000140000000     linearsegmentkinematicsdatagram.obj
 0002:fffd2000       $unwind$??$_Min_value@_K@std@@YAAEB_KAEB_K0@Z 0000000140000000     main.obj
 0004:fffc1000       $pdata$??$_Min_value@_K@std@@YAAEB_KAEB_K0@Z 0000000140000000     main.obj
 0002:fffd2000       $unwind$??$construct@PEADAEBQEAD@?$_Default_allocator_traits@V?$allocator@D@std@@@std@@SAXAEAV?$allocator@D@1@QEAPEADAEBQEAD@Z 0000000140000000     linearsegmentkinematicsdatagram.obj
 0004:fffc1000       $pdata$??$_Max_value@_K@std@@YAAEB_KAEB_K0@Z 0000000140000000     linearsegmentkinematicsdatagram.obj
 0002:fffd2000       $unwind$??$_Max_value@_K@std@@YAAEB_KAEB_K0@Z 0000000140000000     linearsegmentkinematicsdatagram.obj
 0001:fffff000       ?dtor$0@?0???0?$_String_alloc@U?$_String_base_types@DV?$allocator@D@std@@@std@@@std@@QEAA@XZ@4HA 0000000140000000 f   datagram.obj
 0004:fffc1000       $pdata$??$?0$$V@?$_Compressed_pair@V?$allocator@D@std@@V?$_String_val@U?$_Simple_types@D@std@@@2@$00@std@@QEAA@U_Zero_then_variadic_args_t@1@@Z 0000000140000000     linearsegmentkinematicsdatagram.obj
 0002:fffd2000       $unwind$??$?0$$V@?$_Compressed_pair@V?$allocator@D@std@@V?$_String_val@U?$_Simple_types@D@std@@@2@$00@std@@QEAA@U_Zero_then_variadic_args_t@1@@Z 0000000140000000     main.obj
 0000:fffbb000       .debug$S                   0000000140000000     msvcprtd:MSVCP140D.dll
 0001:fffff000       ?dtor$0@?0???0?$basic_string@DU?$char_traits@D@std@@V?$allocator@D@2@@std@@QEAA@QEBD@Z@4HA 0000000140000000 f   datagram.obj
 0000:fffbb000       .debug$S                   0000000140000000     msvcprtd:MSVCP140D.dll
 0000:fffbb000       .debug$S                   0000000140000000     msvcprtd:MSVCP140D.dll
 0000:fffbb000       .debug$S                   0000000140000000     msvcprtd:MSVCP140D.dll
 0000:fffbb000       .debug$S                   0000000140000000     msvcprtd:MSVCP140D.dll
 0000:fffbb000       .debug$S                   0000000140000000     msvcprtd:MSVCP140D.dll
 0000:fffbb000       .debug$S                   0000000140000000     msvcprtd:MSVCP140D.dll
 0000:fffbb000       .debug$S                   0000000140000000     msvcprtd:MSVCP140D.dll
 0000:fffbb000       .debug$S                   0000000140000000     msvcprtd:MSVCP140D.dll
 0000:fffbb000       .debug$S                   0000000140000000     msvcprtd:MSVCP140D.dll
 0000:fffbb000       .debug$S                   0000000140000000     msvcprtd:MSVCP140D.dll
 0000:fffbb000       .debug$S                   0000000140000000     msvcprtd:MSVCP140D.dll
 0000:fffbb000       .debug$S                   0000000140000000     msvcprtd:MSVCP140D.dll
 0000:fffbb000       .debug$S                   0000000140000000     msvcprtd:MSVCP140D.dll
 0000:fffbb000       .debug$S                   0000000140000000     msvcprtd:MSVCP140D.dll
 0000:fffbb000       .debug$S                   0000000140000000     msvcprtd:MSVCP140D.dll
 0000:fffbb000       .debug$S                   0000000140000000     msvcprtd:MSVCP140D.dll
 0000:fffbb000       .debug$S                   0000000140000000     msvcprtd:MSVCP140D.dll
 0000:fffbb000       .debug$S                   0000000140000000     msvcprtd:MSVCP140D.dll
 0000:fffbb000       .debug$S                   0000000140000000     msvcprtd:MSVCP140D.dll
 0000:fffbb000       .debug$S                   0000000140000000     msvcprtd:MSVCP140D.dll
 0000:fffbb000       .debug$S                   0000000140000000     msvcprtd:MSVCP140D.dll
 0000:fffbb000       .debug$S                   0000000140000000     msvcprtd:MSVCP140D.dll
 0000:fffbb000       .debug$S                   0000000140000000     msvcprtd:MSVCP140D.dll
 0000:fffbb000       .debug$S                   0000000140000000     msvcprtd:MSVCP140D.dll
 0000:fffbb000       .debug$S                   0000000140000000     msvcprtd:MSVCP140D.dll
 0000:fffbb000       .debug$S                   0000000140000000     msvcprtd:MSVCP140D.dll
 0000:fffbb000       .debug$S                   0000000140000000     msvcprtd:MSVCP140D.dll
 0000:fffbb000       .debug$S                   0000000140000000     msvcprtd:MSVCP140D.dll
 0000:fffbb000       .debug$S                   0000000140000000     msvcprtd:MSVCP140D.dll
 0000:fffbb000       .debug$S                   0000000140000000     msvcprtd:MSVCP140D.dll
 0000:fffbb000       .debug$S                   0000000140000000     msvcprtd:MSVCP140D.dll
 0000:fffbb000       .debug$S                   0000000140000000     msvcprtd:MSVCP140D.dll
 0000:fffbb000       .debug$S                   0000000140000000     msvcprtd:MSVCP140D.dll
 0000:fffbb000       .debug$S                   0000000140000000     msvcprtd:MSVCP140D.dll
 0000:fffbb000       .debug$S                   0000000140000000     msvcprtd:MSVCP140D.dll
 0000:fffbb000       .debug$S                   0000000140000000     msvcprtd:MSVCP140D.dll
 0000:fffbb000       .debug$S                   0000000140000000     msvcprtd:MSVCP140D.dll
 0000:fffbb000       .debug$S                   0000000140000000     msvcprtd:MSVCP140D.dll
 0000:fffbb000       .debug$S                   0000000140000000     msvcprtd:MSVCP140D.dll
 0000:fffbb000       .debug$S                   0000000140000000     msvcprtd:MSVCP140D.dll
 0000:fffbb000       .debug$S                   0000000140000000     msvcprtd:MSVCP140D.dll
 0000:fffbb000       .debug$S                   0000000140000000     msvcprtd:MSVCP140D.dll
 0000:fffbb000       .debug$S                   0000000140000000     msvcprtd:MSVCP140D.dll
 0000:fffbb000       .debug$S                   0000000140000000     msvcprtd:MSVCP140D.dll
 0000:fffbb000       .debug$S                   0000000140000000     msvcprtd:MSVCP140D.dll
 0000:fffbb000       .debug$S                   0000000140000000     msvcprtd:MSVCP140D.dll
 0000:fffbb000       .debug$S                   0000000140000000     msvcprtd:MSVCP140D.dll
 0000:fffbb000       .debug$S                   0000000140000000     msvcprtd:MSVCP140D.dll
 0000:fffbb000       .debug$S                   0000000140000000     msvcprtd:MSVCP140D.dll
 0000:fffbb000       .debug$S                   0000000140000000     msvcprtd:MSVCP140D.dll
 0000:fffbb000       .debug$S                   0000000140000000     msvcprtd:MSVCP140D.dll
 0000:fffbb000       .debug$S                   0000000140000000     msvcprtd:MSVCP140D.dll
 0000:fffbb000       .debug$S                   0000000140000000     msvcprtd:MSVCP140D.dll
 0000:fffbb000       .debug$S                   0000000140000000     msvcprtd:MSVCP140D.dll
 0000:fffbb000       .debug$S                   0000000140000000     msvcprtd:MSVCP140D.dll
 0000:fffbb000       .debug$S                   0000000140000000     msvcprtd:MSVCP140D.dll
 0000:fffbb000       .debug$S                   0000000140000000     msvcprtd:MSVCP140D.dll
 0000:fffbb000       .debug$S                   0000000140000000     msvcprtd:MSVCP140D.dll
 0000:fffbb000       .debug$S                   0000000140000000     msvcprtd:MSVCP140D.dll
 0002:fffd2000       __guard_fids__             0000000140000000     msvcprtd:locale0_implib.obj
 0004:fffc1000       $pdata$??$?0$$V@?$_Compressed_pair@V?$allocator@D@std@@V?$_String_val@U?$_Simple_types@D@std@@@2@$00@std@@QEAA@U_Zero_then_variadic_args_t@1@@Z 0000000140000000     main.obj
 0002:fffd2000       $unwind$??$_Max_value@_K@std@@YAAEB_KAEB_K0@Z 0000000140000000     main.obj
 0004:fffc1000       $pdata$??$_Max_value@_K@std@@YAAEB_KAEB_K0@Z 0000000140000000     main.obj
 0002:fffd2000       $unwind$??$construct@PEADAEBQEAD@?$_Default_allocator_traits@V?$allocator@D@std@@@std@@SAXAEAV?$allocator@D@1@QEAPEADAEBQEAD@Z 0000000140000000     main.obj
 0004:fffc1000       $pdata$??$construct@PEADAEBQEAD@?$_Default_allocator_traits@V?$allocator@D@std@@@std@@SAXAEAV?$allocator@D@1@QEAPEADAEBQEAD@Z 0000000140000000     main.obj
 0002:fffd2000       $unwind$??$_Allocate@$0BA@U_Default_allocate_traits@std@@$0A@@std@@YAPEAX_K@Z 0000000140000000     main.obj
 0002:fffd2000       __guard_fids_??__E_Fac_tidy_reg@std@@YAXXZ 0000000140000000     msvcprtd:locale0_implib.obj
 0004:fffc1000       $pdata$??$_Allocate@$0BA@U_Default_allocate_traits@std@@$0A@@std@@YAPEAX_K@Z 0000000140000000     main.obj
 0002:fffd2000       $unwind$??$_Deallocate@$0BA@$0A@@std@@YAXPEAX_K@Z 0000000140000000     main.obj
 0004:fffc1000       $pdata$??$_Deallocate@$0BA@$0A@@std@@YAXPEAX_K@Z 0000000140000000     main.obj
 0002:fffd2000       $unwind$?allocate@?$allocator@U_Container_proxy@std@@@std@@QEAAPEAU_Container_proxy@2@_K@Z 0000000140000000     main.obj
 0004:fffc1000       $pdata$?allocate@?$allocator@U_Container_proxy@std@@@std@@QEAAPEAU_Container_proxy@2@_K@Z 0000000140000000     main.obj
 0002:fffd2000       $unwind$?deallocate@?$_Default_allocator_traits@V?$allocator@U_Container_proxy@std@@@std@@@std@@SAXAEAV?$allocator@U_Container_proxy@std@@@2@QEAU_Container_proxy@2@_K@Z 0000000140000000     main.obj
 0004:fffc1000       $pdata$?deallocate@?$_Default_allocator_traits@V?$allocator@U_Container_proxy@std@@@std@@@std@@SAXAEAV?$allocator@U_Container_proxy@std@@@2@QEAU_Container_proxy@2@_K@Z 0000000140000000     main.obj
 0002:fffd2000       $unwind$??$_Deallocate_plain@V?$allocator@U_Container_proxy@std@@@std@@$0A@@std@@YAXAEAV?$allocator@U_Container_proxy@std@@@0@QEAU_Container_proxy@0@@Z 0000000140000000     main.obj
 0004:fffc1000       $pdata$??$_Deallocate_plain@V?$allocator@U_Container_proxy@std@@@std@@$0A@@std@@YAXAEAV?$allocator@U_Container_proxy@std@@@0@QEAU_Container_proxy@0@@Z 0000000140000000     main.obj
 0002:fffd2000       $unwind$??$construct@U_Container_proxy@std@@U12@@?$_Default_allocator_traits@V?$allocator@U_Container_proxy@std@@@std@@@std@@SAXAEAV?$allocator@U_Container_proxy@std@@@1@QEAU_Container_proxy@1@$$QEAU31@@Z 0000000140000000     main.obj
 0004:fffc1000       $pdata$??$construct@U_Container_proxy@std@@U12@@?$_Default_allocator_traits@V?$allocator@U_Container_proxy@std@@@std@@@std@@SAXAEAV?$allocator@U_Container_proxy@std@@@1@QEAU_Container_proxy@1@$$QEAU31@@Z 0000000140000000     main.obj
 0002:fffd2000       $unwind$??$_Get_size_of_n@$0BA@@std@@YA_K_K@Z 0000000140000000     main.obj
 0004:fffc1000       $pdata$??$_Get_size_of_n@$0BA@@std@@YA_K_K@Z 0000000140000000     main.obj
 0002:fffd2000       $unwind$??$_Allocate_manually_vector_aligned@U_Default_allocate_traits@std@@@std@@YAPEAX_K@Z 0000000140000000     main.obj
 0004:fffc1000       $pdata$??$_Allocate_manually_vector_aligned@U_Default_allocate_traits@std@@@std@@YAPEAX_K@Z 0000000140000000     main.obj
 0002:fffd2000       $unwind$??$?0$$V@?$_Compressed_pair@V?$allocator@D@std@@V?$_String_val@U?$_Simple_types@D@std@@@2@$00@std@@QEAA@U_Zero_then_variadic_args_t@1@@Z 0000000140000000     linearsegmentkinematicsdatagram.obj
 0004:fffc1000       $pdata$??$?0$$V@?$_Compressed_pair@V?$allocator@M@std@@V?$_Vector_val@U?$_Simple_types@M@std@@@2@$00@std@@QEAA@U_Zero_then_variadic_args_t@1@@Z 0000000140000000     linearsegmentkinematicsdatagram.obj
 0002:fffd2000       $unwind$??$?0$$V@?$_Compressed_pair@V?$allocator@M@std@@V?$_Vector_val@U?$_Simple_types@M@std@@@2@$00@std@@QEAA@U_Zero_then_variadic_args_t@1@@Z 0000000140000000     linearsegmentkinematicsdatagram.obj
 0001:fffff000       ?dtor$0@?0???$?0AEBV?$allocator@D@std@@X@?$_String_alloc@U?$_String_base_types@DV?$allocator@D@std@@@std@@@std@@QEAA@AEBV?$allocator@D@1@@Z@4HA 0000000140000000 f   metadatagram.obj
 0001:fffff000       ?dtor$0@?0???$?0V?$allocator@D@std@@X@?$_String_alloc@U?$_String_base_types@DV?$allocator@D@std@@@std@@@std@@QEAA@$$QEAV?$allocator@D@1@@Z@4HA 0000000140000000 f   metadatagram.obj
 0001:fffff000       ?dtor$0@?0???0?$_String_alloc@U?$_String_base_types@DV?$allocator@D@std@@@std@@@std@@QEAA@XZ@4HA 0000000140000000 f   metadatagram.obj
 0001:fffff000       ?dtor$0@?0???0?$basic_string@DU?$char_traits@D@std@@V?$allocator@D@2@@std@@QEAA@AEBV01@@Z@4HA 0000000140000000 f   metadatagram.obj
 0001:fffff000       ?dtor$0@?0???0?$basic_string@DU?$char_traits@D@std@@V?$allocator@D@2@@std@@QEAA@QEBD@Z@4HA 0000000140000000 f   metadatagram.obj
 0000:fffbb000       .debug$S                   0000000140000000     msvcprtd:MSVCP140D.dll
 0000:fffbb000       .debug$S                   0000000140000000     msvcprtd:MSVCP140D.dll
 0000:fffbb000       .debug$S                   0000000140000000     msvcprtd:MSVCP140D.dll
 0000:fffbb000       .debug$S                   0000000140000000     msvcprtd:MSVCP140D.dll
 0000:fffbb000       .debug$S                   0000000140000000     msvcprtd:MSVCP140D.dll
 0000:fffbb000       .debug$S                   0000000140000000     msvcprtd:MSVCP140D.dll
 0000:fffbb000       .debug$S                   0000000140000000     msvcprtd:MSVCP140D.dll
 0001:fffff000       ?dtor$0@?0???0sentry@?$basic_istream@DU?$char_traits@D@std@@@std@@QEAA@AEAV12@_N@Z@4HA 0000000140000000 f   metadatagram.obj
 0000:fffbb000       .debug$S                   0000000140000000     liblsl64:liblsl64.dll
 0000:fffbb000       .debug$S                   0000000140000000     liblsl64:liblsl64.dll
 0000:fffbb000       .debug$S                   0000000140000000     liblsl64:liblsl64.dll
 0000:fffbb000       .debug$S                   0000000140000000     liblsl64:liblsl64.dll
 0000:fffbb000       .debug$S                   0000000140000000     liblsl64:liblsl64.dll
 0000:fffbb000       .debug$S                   0000000140000000     liblsl64:liblsl64.dll
 0001:fffff000       ?dtor$0@?0???0sentry@?$basic_ostream@DU?$char_traits@D@std@@@std@@QEAA@AEAV12@@Z@4HA 0000000140000000 f   metadatagram.obj
 0000:fffbb000       .debug$S                   0000000140000000     kernel32:KERNEL32.dll
 0004:fffc1000       $pdata$??$_Min_value@_K@std@@YAAEB_KAEB_K0@Z 0000000140000000     linearsegmentkinematicsdatagram.obj
 0000:fffbb000       .debug$S                   0000000140000000     xstypes64:xstypes64.dll
 0000:fffbb000       .debug$S                   0000000140000000     xstypes64:xstypes64.dll
 0000:fffbb000       .debug$S                   0000000140000000     xstypes64:xstypes64.dll
 0000:fffbb000       .debug$S                   0000000140000000     xstypes64:xstypes64.dll
 0000:fffbb000       .debug$S                   0000000140000000     xstypes64:xstypes64.dll
 0000:fffbb000       .debug$S                   0000000140000000     xstypes64:xstypes64.dll
